<abi-corpus version='2.3' path='build/.libs/libusbguard.so' architecture='elf-amd-x86_64' soname='libusbguard.so.1'>
  <elf-needed>
    <dependency name='libqb.so.100'/>
    <dependency name='libprotobuf.so.30'/>
    <dependency name='libgcrypt.so.20'/>
    <dependency name='libgpg-error.so.0'/>
    <dependency name='libumockdev.so.0'/>
    <dependency name='libgobject-2.0.so.0'/>
    <dependency name='libglib-2.0.so.0'/>
    <dependency name='libstdc++.so.6'/>
    <dependency name='libm.so.6'/>
    <dependency name='libgcc_s.so.1'/>
    <dependency name='libc.so.6'/>
    <dependency name='ld-linux-x86-64.so.2'/>
  </elf-needed>
  <elf-function-symbols>
    <elf-symbol name='_ZN8usbguard10AuditEvent11setCommitedEb' type='func-type' binding='global-binding' visibility='default-visibility' is-defined='yes'/>
    <elf-symbol name='_ZN8usbguard10AuditEvent6commitERKNSt7__cxx1112basic_stringIcSt11char_traitsIcESaIcEEE' type='func-type' binding='global-binding' visibility='default-visibility' is-defined='yes'/>
    <elf-symbol name='_ZN8usbguard10AuditEvent6setKeyERKNSt7__cxx1112basic_stringIcSt11char_traitsIcESaIcEEES8_' type='func-type' binding='global-binding' visibility='default-visibility' is-defined='yes'/>
    <elf-symbol name='_ZN8usbguard10AuditEvent7failureEv' type='func-type' binding='global-binding' visibility='default-visibility' is-defined='yes'/>
    <elf-symbol name='_ZN8usbguard10AuditEvent7successEv' type='func-type' binding='global-binding' visibility='default-visibility' is-defined='yes'/>
    <elf-symbol name='_ZN8usbguard10AuditEventC1EOS0_' type='func-type' binding='global-binding' visibility='default-visibility' is-defined='yes'/>
    <elf-symbol name='_ZN8usbguard10AuditEventC1ERKNS_13AuditIdentityERSt10shared_ptrINS_12AuditBackendEE' type='func-type' binding='global-binding' visibility='default-visibility' alias='_ZN8usbguard10AuditEventC2ERKNS_13AuditIdentityERSt10shared_ptrINS_12AuditBackendEE' is-defined='yes'/>
    <elf-symbol name='_ZN8usbguard10AuditEventC2EOS0_' type='func-type' binding='global-binding' visibility='default-visibility' alias='_ZN8usbguard10AuditEventC1EOS0_' is-defined='yes'/>
    <elf-symbol name='_ZN8usbguard10AuditEventC2ERKNS_13AuditIdentityERSt10shared_ptrINS_12AuditBackendEE' type='func-type' binding='global-binding' visibility='default-visibility' is-defined='yes'/>
    <elf-symbol name='_ZN8usbguard10AuditEventD1Ev' type='func-type' binding='global-binding' visibility='default-visibility' alias='_ZN8usbguard10AuditEventD2Ev' is-defined='yes'/>
    <elf-symbol name='_ZN8usbguard10AuditEventD2Ev' type='func-type' binding='global-binding' visibility='default-visibility' is-defined='yes'/>
    <elf-symbol name='_ZN8usbguard10ConfigFile15setSettingValueERKNSt7__cxx1112basic_stringIcSt11char_traitsIcESaIcEEERS6_' type='func-type' binding='global-binding' visibility='default-visibility' is-defined='yes'/>
    <elf-symbol name='_ZN8usbguard10ConfigFile4openERKNSt7__cxx1112basic_stringIcSt11char_traitsIcESaIcEEEb' type='func-type' binding='global-binding' visibility='default-visibility' is-defined='yes'/>
    <elf-symbol name='_ZN8usbguard10ConfigFile5closeEv' type='func-type' binding='global-binding' visibility='default-visibility' is-defined='yes'/>
    <elf-symbol name='_ZN8usbguard10ConfigFile5writeEv' type='func-type' binding='global-binding' visibility='default-visibility' is-defined='yes'/>
    <elf-symbol name='_ZN8usbguard10ConfigFileC1ERKSt6vectorINSt7__cxx1112basic_stringIcSt11char_traitsIcESaIcEEESaIS7_EE' type='func-type' binding='global-binding' visibility='default-visibility' alias='_ZN8usbguard10ConfigFileC2ERKSt6vectorINSt7__cxx1112basic_stringIcSt11char_traitsIcESaIcEEESaIS7_EE' is-defined='yes'/>
    <elf-symbol name='_ZN8usbguard10ConfigFileC2ERKSt6vectorINSt7__cxx1112basic_stringIcSt11char_traitsIcESaIcEEESaIS7_EE' type='func-type' binding='global-binding' visibility='default-visibility' is-defined='yes'/>
    <elf-symbol name='_ZN8usbguard10ConfigFileD1Ev' type='func-type' binding='global-binding' visibility='default-visibility' alias='_ZN8usbguard10ConfigFileD2Ev' is-defined='yes'/>
    <elf-symbol name='_ZN8usbguard10ConfigFileD2Ev' type='func-type' binding='global-binding' visibility='default-visibility' is-defined='yes'/>
    <elf-symbol name='_ZN8usbguard10Predicates10isSubsetOfINS_11USBDeviceIDEEEbRKT_S5_' type='func-type' binding='global-binding' visibility='default-visibility' is-defined='yes'/>
    <elf-symbol name='_ZN8usbguard10Predicates10isSubsetOfINS_16USBInterfaceTypeEEEbRKT_S5_' type='func-type' binding='global-binding' visibility='default-visibility' is-defined='yes'/>
    <elf-symbol name='_ZN8usbguard10Predicates10isSubsetOfINSt7__cxx1112basic_stringIcSt11char_traitsIcESaIcEEEEEbRKT_SA_' type='func-type' binding='weak-binding' visibility='default-visibility' is-defined='yes'/>
    <elf-symbol name='_ZN8usbguard10Predicates12isSupersetOfINS_11USBDeviceIDEEEbRKT_S5_' type='func-type' binding='global-binding' visibility='default-visibility' is-defined='yes'/>
    <elf-symbol name='_ZN8usbguard10Predicates12isSupersetOfINS_16USBInterfaceTypeEEEbRKT_S5_' type='func-type' binding='global-binding' visibility='default-visibility' is-defined='yes'/>
    <elf-symbol name='_ZN8usbguard10Predicates12isSupersetOfINSt7__cxx1112basic_stringIcSt11char_traitsIcESaIcEEEEEbRKT_SA_' type='func-type' binding='weak-binding' visibility='default-visibility' is-defined='yes'/>
    <elf-symbol name='_ZN8usbguard11USBDeviceID11setVendorIDERKNSt7__cxx1112basic_stringIcSt11char_traitsIcESaIcEEE' type='func-type' binding='global-binding' visibility='default-visibility' is-defined='yes'/>
    <elf-symbol name='_ZN8usbguard11USBDeviceID12setProductIDERKNSt7__cxx1112basic_stringIcSt11char_traitsIcESaIcEEE' type='func-type' binding='global-binding' visibility='default-visibility' is-defined='yes'/>
    <elf-symbol name='_ZN8usbguard11USBDeviceID13checkDeviceIDERKNSt7__cxx1112basic_stringIcSt11char_traitsIcESaIcEEES8_' type='func-type' binding='global-binding' visibility='default-visibility' is-defined='yes'/>
    <elf-symbol name='_ZN8usbguard11USBDeviceIDC1ERKNSt7__cxx1112basic_stringIcSt11char_traitsIcESaIcEEES8_' type='func-type' binding='global-binding' visibility='default-visibility' alias='_ZN8usbguard11USBDeviceIDC2ERKNSt7__cxx1112basic_stringIcSt11char_traitsIcESaIcEEES8_' is-defined='yes'/>
    <elf-symbol name='_ZN8usbguard11USBDeviceIDC1ERKS0_' type='func-type' binding='weak-binding' visibility='default-visibility' is-defined='yes'/>
    <elf-symbol name='_ZN8usbguard11USBDeviceIDC1Ev' type='func-type' binding='weak-binding' visibility='default-visibility' is-defined='yes'/>
    <elf-symbol name='_ZN8usbguard11USBDeviceIDC2ERKNSt7__cxx1112basic_stringIcSt11char_traitsIcESaIcEEES8_' type='func-type' binding='global-binding' visibility='default-visibility' is-defined='yes'/>
    <elf-symbol name='_ZN8usbguard11USBDeviceIDC2ERKS0_' type='func-type' binding='weak-binding' visibility='default-visibility' alias='_ZN8usbguard11USBDeviceIDC1ERKS0_' is-defined='yes'/>
    <elf-symbol name='_ZN8usbguard11USBDeviceIDC2Ev' type='func-type' binding='weak-binding' visibility='default-visibility' alias='_ZN8usbguard11USBDeviceIDC1Ev' is-defined='yes'/>
    <elf-symbol name='_ZN8usbguard11USBDeviceIDD1Ev' type='func-type' binding='weak-binding' visibility='default-visibility' alias='_ZN8usbguard11USBDeviceIDD2Ev' is-defined='yes'/>
    <elf-symbol name='_ZN8usbguard11USBDeviceIDD2Ev' type='func-type' binding='weak-binding' visibility='default-visibility' is-defined='yes'/>
    <elf-symbol name='_ZN8usbguard11USBDeviceIDaSERKS0_' type='func-type' binding='weak-binding' visibility='default-visibility' is-defined='yes'/>
    <elf-symbol name='_ZN8usbguard12AuditBackend6commitERKNS_10AuditEventE' type='func-type' binding='global-binding' visibility='default-visibility' is-defined='yes'/>
    <elf-symbol name='_ZN8usbguard12AuditBackendC1Ev' type='func-type' binding='global-binding' visibility='default-visibility' alias='_ZN8usbguard12AuditBackendC2Ev' is-defined='yes'/>
    <elf-symbol name='_ZN8usbguard12AuditBackendC2Ev' type='func-type' binding='global-binding' visibility='default-visibility' is-defined='yes'/>
    <elf-symbol name='_ZN8usbguard12AuditBackendD0Ev' type='func-type' binding='global-binding' visibility='default-visibility' is-defined='yes'/>
    <elf-symbol name='_ZN8usbguard12AuditBackendD1Ev' type='func-type' binding='global-binding' visibility='default-visibility' is-defined='yes'/>
    <elf-symbol name='_ZN8usbguard12AuditBackendD2Ev' type='func-type' binding='global-binding' visibility='default-visibility' alias='_ZN8usbguard12AuditBackendD1Ev' is-defined='yes'/>
    <elf-symbol name='_ZN8usbguard12toRuleStringINSt7__cxx1112basic_stringIcSt11char_traitsIcESaIcEEEEES6_RKT_' type='func-type' binding='global-binding' visibility='default-visibility' is-defined='yes'/>
    <elf-symbol name='_ZN8usbguard13AuditIdentityC1Eji' type='func-type' binding='global-binding' visibility='default-visibility' is-defined='yes'/>
    <elf-symbol name='_ZN8usbguard13AuditIdentityC1Ev' type='func-type' binding='global-binding' visibility='default-visibility' alias='_ZN8usbguard13AuditIdentityC2Ev' is-defined='yes'/>
    <elf-symbol name='_ZN8usbguard13AuditIdentityC2Eji' type='func-type' binding='global-binding' visibility='default-visibility' alias='_ZN8usbguard13AuditIdentityC1Eji' is-defined='yes'/>
    <elf-symbol name='_ZN8usbguard13AuditIdentityC2Ev' type='func-type' binding='global-binding' visibility='default-visibility' is-defined='yes'/>
    <elf-symbol name='_ZN8usbguard13DeviceManager11DeviceEventENS0_9EventTypeESt10shared_ptrINS_6DeviceEE' type='func-type' binding='global-binding' visibility='default-visibility' is-defined='yes'/>
    <elf-symbol name='_ZN8usbguard13DeviceManager12insertDeviceESt10shared_ptrINS_6DeviceEE' type='func-type' binding='global-binding' visibility='default-visibility' is-defined='yes'/>
    <elf-symbol name='_ZN8usbguard13DeviceManager12removeDeviceEj' type='func-type' binding='global-binding' visibility='default-visibility' is-defined='yes'/>
    <elf-symbol name='_ZN8usbguard13DeviceManager13getDeviceListERKNS_4RuleE' type='func-type' binding='global-binding' visibility='default-visibility' is-defined='yes'/>
    <elf-symbol name='_ZN8usbguard13DeviceManager13getDeviceListEv' type='func-type' binding='global-binding' visibility='default-visibility' is-defined='yes'/>
    <elf-symbol name='_ZN8usbguard13DeviceManager15DeviceExceptionERKNSt7__cxx1112basic_stringIcSt11char_traitsIcESaIcEEE' type='func-type' binding='global-binding' visibility='default-visibility' is-defined='yes'/>
    <elf-symbol name='_ZN8usbguard13DeviceManager17eventTypeToStringB5cxx11ENS0_9EventTypeE' type='func-type' binding='global-binding' visibility='default-visibility' is-defined='yes'/>
    <elf-symbol name='_ZN8usbguard13DeviceManager18eventTypeToIntegerENS0_9EventTypeE' type='func-type' binding='global-binding' visibility='default-visibility' is-defined='yes'/>
    <elf-symbol name='_ZN8usbguard13DeviceManager20eventTypeFromIntegerEj' type='func-type' binding='global-binding' visibility='default-visibility' is-defined='yes'/>
    <elf-symbol name='_ZN8usbguard13DeviceManager20setAuthorizedDefaultENS0_21AuthorizedDefaultTypeE' type='func-type' binding='global-binding' visibility='default-visibility' is-defined='yes'/>
    <elf-symbol name='_ZN8usbguard13DeviceManager29authorizedDefaultTypeToStringB5cxx11ENS0_21AuthorizedDefaultTypeE' type='func-type' binding='global-binding' visibility='default-visibility' is-defined='yes'/>
    <elf-symbol name='_ZN8usbguard13DeviceManager30authorizedDefaultTypeToIntegerENS0_21AuthorizedDefaultTypeE' type='func-type' binding='global-binding' visibility='default-visibility' is-defined='yes'/>
    <elf-symbol name='_ZN8usbguard13DeviceManager31authorizedDefaultTypeFromStringERKNSt7__cxx1112basic_stringIcSt11char_traitsIcESaIcEEE' type='func-type' binding='global-binding' visibility='default-visibility' is-defined='yes'/>
    <elf-symbol name='_ZN8usbguard13DeviceManager31setRestoreControllerDeviceStateEb' type='func-type' binding='global-binding' visibility='default-visibility' is-defined='yes'/>
    <elf-symbol name='_ZN8usbguard13DeviceManager32authorizedDefaultTypeFromIntegerEi' type='func-type' binding='global-binding' visibility='default-visibility' is-defined='yes'/>
    <elf-symbol name='_ZN8usbguard13DeviceManager6createERNS_18DeviceManagerHooksERKNSt7__cxx1112basic_stringIcSt11char_traitsIcESaIcEEE' type='func-type' binding='global-binding' visibility='default-visibility' is-defined='yes'/>
    <elf-symbol name='_ZN8usbguard13DeviceManager9getDeviceEj' type='func-type' binding='global-binding' visibility='default-visibility' is-defined='yes'/>
    <elf-symbol name='_ZN8usbguard13DeviceManagerC1ERKS0_' type='func-type' binding='global-binding' visibility='default-visibility' alias='_ZN8usbguard13DeviceManagerC2ERKS0_' is-defined='yes'/>
    <elf-symbol name='_ZN8usbguard13DeviceManagerC1ERNS_18DeviceManagerHooksE' type='func-type' binding='global-binding' visibility='default-visibility' alias='_ZN8usbguard13DeviceManagerC2ERNS_18DeviceManagerHooksE' is-defined='yes'/>
    <elf-symbol name='_ZN8usbguard13DeviceManagerC2ERKS0_' type='func-type' binding='global-binding' visibility='default-visibility' is-defined='yes'/>
    <elf-symbol name='_ZN8usbguard13DeviceManagerC2ERNS_18DeviceManagerHooksE' type='func-type' binding='global-binding' visibility='default-visibility' is-defined='yes'/>
    <elf-symbol name='_ZN8usbguard13DeviceManagerD0Ev' type='func-type' binding='global-binding' visibility='default-visibility' is-defined='yes'/>
    <elf-symbol name='_ZN8usbguard13DeviceManagerD1Ev' type='func-type' binding='global-binding' visibility='default-visibility' alias='_ZN8usbguard13DeviceManagerD2Ev' is-defined='yes'/>
    <elf-symbol name='_ZN8usbguard13DeviceManagerD2Ev' type='func-type' binding='global-binding' visibility='default-visibility' is-defined='yes'/>
    <elf-symbol name='_ZN8usbguard13DeviceManageraSERKS0_' type='func-type' binding='global-binding' visibility='default-visibility' is-defined='yes'/>
    <elf-symbol name='_ZN8usbguard13MemoryRuleSet4loadEv' type='func-type' binding='global-binding' visibility='default-visibility' is-defined='yes'/>
    <elf-symbol name='_ZN8usbguard13MemoryRuleSet4saveEv' type='func-type' binding='global-binding' visibility='default-visibility' is-defined='yes'/>
    <elf-symbol name='_ZN8usbguard13MemoryRuleSetC1EPNS_9InterfaceE' type='func-type' binding='global-binding' visibility='default-visibility' is-defined='yes'/>
    <elf-symbol name='_ZN8usbguard13MemoryRuleSetC1ERKS0_' type='func-type' binding='global-binding' visibility='default-visibility' alias='_ZN8usbguard13MemoryRuleSetC2ERKS0_' is-defined='yes'/>
    <elf-symbol name='_ZN8usbguard13MemoryRuleSetC2EPNS_9InterfaceE' type='func-type' binding='global-binding' visibility='default-visibility' alias='_ZN8usbguard13MemoryRuleSetC1EPNS_9InterfaceE' is-defined='yes'/>
    <elf-symbol name='_ZN8usbguard13MemoryRuleSetC2ERKS0_' type='func-type' binding='global-binding' visibility='default-visibility' is-defined='yes'/>
    <elf-symbol name='_ZN8usbguard13MemoryRuleSetD0Ev' type='func-type' binding='weak-binding' visibility='default-visibility' is-defined='yes'/>
    <elf-symbol name='_ZN8usbguard13MemoryRuleSetD1Ev' type='func-type' binding='weak-binding' visibility='default-visibility' alias='_ZN8usbguard13MemoryRuleSetD2Ev' is-defined='yes'/>
    <elf-symbol name='_ZN8usbguard13MemoryRuleSetD2Ev' type='func-type' binding='weak-binding' visibility='default-visibility' is-defined='yes'/>
    <elf-symbol name='_ZN8usbguard13MemoryRuleSetaSERKS0_' type='func-type' binding='global-binding' visibility='default-visibility' is-defined='yes'/>
    <elf-symbol name='_ZN8usbguard13RuleConditionC1EOS0_' type='func-type' binding='global-binding' visibility='default-visibility' is-defined='yes'/>
    <elf-symbol name='_ZN8usbguard13RuleConditionC1ERKNSt7__cxx1112basic_stringIcSt11char_traitsIcESaIcEEE' type='func-type' binding='global-binding' visibility='default-visibility' alias='_ZN8usbguard13RuleConditionC2ERKNSt7__cxx1112basic_stringIcSt11char_traitsIcESaIcEEE' is-defined='yes'/>
    <elf-symbol name='_ZN8usbguard13RuleConditionC1ERKS0_' type='func-type' binding='global-binding' visibility='default-visibility' is-defined='yes'/>
    <elf-symbol name='_ZN8usbguard13RuleConditionC1Ev' type='func-type' binding='global-binding' visibility='default-visibility' is-defined='yes'/>
    <elf-symbol name='_ZN8usbguard13RuleConditionC2EOS0_' type='func-type' binding='global-binding' visibility='default-visibility' alias='_ZN8usbguard13RuleConditionC1EOS0_' is-defined='yes'/>
    <elf-symbol name='_ZN8usbguard13RuleConditionC2ERKNSt7__cxx1112basic_stringIcSt11char_traitsIcESaIcEEE' type='func-type' binding='global-binding' visibility='default-visibility' is-defined='yes'/>
    <elf-symbol name='_ZN8usbguard13RuleConditionC2ERKS0_' type='func-type' binding='global-binding' visibility='default-visibility' alias='_ZN8usbguard13RuleConditionC1ERKS0_' is-defined='yes'/>
    <elf-symbol name='_ZN8usbguard13RuleConditionC2Ev' type='func-type' binding='global-binding' visibility='default-visibility' alias='_ZN8usbguard13RuleConditionC1Ev' is-defined='yes'/>
    <elf-symbol name='_ZN8usbguard13RuleConditionD1Ev' type='func-type' binding='weak-binding' visibility='default-visibility' alias='_ZN8usbguard13RuleConditionD2Ev' is-defined='yes'/>
    <elf-symbol name='_ZN8usbguard13RuleConditionD2Ev' type='func-type' binding='weak-binding' visibility='default-visibility' is-defined='yes'/>
    <elf-symbol name='_ZN8usbguard13RuleConditionaSEOS0_' type='func-type' binding='global-binding' visibility='default-visibility' is-defined='yes'/>
    <elf-symbol name='_ZN8usbguard13RuleConditionaSERKS0_' type='func-type' binding='global-binding' visibility='default-visibility' is-defined='yes'/>
    <elf-symbol name='_ZN8usbguard13RuleConditiondeEv' type='func-type' binding='global-binding' visibility='default-visibility' is-defined='yes'/>
    <elf-symbol name='_ZN8usbguard13RuleConditionptEv' type='func-type' binding='global-binding' visibility='default-visibility' is-defined='yes'/>
    <elf-symbol name='_ZN8usbguard14KeyValueParser10viewConfigEv' type='func-type' binding='global-binding' visibility='default-visibility' is-defined='yes'/>
    <elf-symbol name='_ZN8usbguard14KeyValueParser11parseStreamERSi' type='func-type' binding='global-binding' visibility='default-visibility' is-defined='yes'/>
    <elf-symbol name='_ZN8usbguard14KeyValueParser6getMapB5cxx11Ev' type='func-type' binding='global-binding' visibility='default-visibility' is-defined='yes'/>
    <elf-symbol name='_ZN8usbguard14KeyValueParser9parseLineERNSt7__cxx1112basic_stringIcSt11char_traitsIcESaIcEEE' type='func-type' binding='global-binding' visibility='default-visibility' is-defined='yes'/>
    <elf-symbol name='_ZN8usbguard14KeyValueParserC1ERKSt6vectorINSt7__cxx1112basic_stringIcSt11char_traitsIcESaIcEEESaIS7_EERKS7_bb' type='func-type' binding='global-binding' visibility='default-visibility' alias='_ZN8usbguard14KeyValueParserC2ERKSt6vectorINSt7__cxx1112basic_stringIcSt11char_traitsIcESaIcEEESaIS7_EERKS7_bb' is-defined='yes'/>
    <elf-symbol name='_ZN8usbguard14KeyValueParserC1ERKSt6vectorINSt7__cxx1112basic_stringIcSt11char_traitsIcESaIcEEESaIS7_EEbb' type='func-type' binding='global-binding' visibility='default-visibility' alias='_ZN8usbguard14KeyValueParserC2ERKSt6vectorINSt7__cxx1112basic_stringIcSt11char_traitsIcESaIcEEESaIS7_EEbb' is-defined='yes'/>
    <elf-symbol name='_ZN8usbguard14KeyValueParserC2ERKSt6vectorINSt7__cxx1112basic_stringIcSt11char_traitsIcESaIcEEESaIS7_EERKS7_bb' type='func-type' binding='global-binding' visibility='default-visibility' is-defined='yes'/>
    <elf-symbol name='_ZN8usbguard14KeyValueParserC2ERKSt6vectorINSt7__cxx1112basic_stringIcSt11char_traitsIcESaIcEEESaIS7_EEbb' type='func-type' binding='global-binding' visibility='default-visibility' is-defined='yes'/>
    <elf-symbol name='_ZN8usbguard14KeyValueParserD1Ev' type='func-type' binding='global-binding' visibility='default-visibility' is-defined='yes'/>
    <elf-symbol name='_ZN8usbguard14KeyValueParserD2Ev' type='func-type' binding='global-binding' visibility='default-visibility' alias='_ZN8usbguard14KeyValueParserD1Ev' is-defined='yes'/>
    <elf-symbol name='_ZN8usbguard16USBInterfaceType10typeStringB5cxx11Ehhhh' type='func-type' binding='global-binding' visibility='default-visibility' is-defined='yes'/>
    <elf-symbol name='_ZN8usbguard16USBInterfaceTypeC1ERKNS_22USBInterfaceDescriptorEh' type='func-type' binding='global-binding' visibility='default-visibility' is-defined='yes'/>
    <elf-symbol name='_ZN8usbguard16USBInterfaceTypeC1ERKNSt7__cxx1112basic_stringIcSt11char_traitsIcESaIcEEE' type='func-type' binding='global-binding' visibility='default-visibility' is-defined='yes'/>
    <elf-symbol name='_ZN8usbguard16USBInterfaceTypeC1Ehhhh' type='func-type' binding='global-binding' visibility='default-visibility' alias='_ZN8usbguard16USBInterfaceTypeC2Ehhhh' is-defined='yes'/>
    <elf-symbol name='_ZN8usbguard16USBInterfaceTypeC1Ev' type='func-type' binding='global-binding' visibility='default-visibility' alias='_ZN8usbguard16USBInterfaceTypeC2Ev' is-defined='yes'/>
    <elf-symbol name='_ZN8usbguard16USBInterfaceTypeC2ERKNS_22USBInterfaceDescriptorEh' type='func-type' binding='global-binding' visibility='default-visibility' alias='_ZN8usbguard16USBInterfaceTypeC1ERKNS_22USBInterfaceDescriptorEh' is-defined='yes'/>
    <elf-symbol name='_ZN8usbguard16USBInterfaceTypeC2ERKNSt7__cxx1112basic_stringIcSt11char_traitsIcESaIcEEE' type='func-type' binding='global-binding' visibility='default-visibility' alias='_ZN8usbguard16USBInterfaceTypeC1ERKNSt7__cxx1112basic_stringIcSt11char_traitsIcESaIcEEE' is-defined='yes'/>
    <elf-symbol name='_ZN8usbguard16USBInterfaceTypeC2Ehhhh' type='func-type' binding='global-binding' visibility='default-visibility' is-defined='yes'/>
    <elf-symbol name='_ZN8usbguard16USBInterfaceTypeC2Ev' type='func-type' binding='global-binding' visibility='default-visibility' is-defined='yes'/>
    <elf-symbol name='_ZN8usbguard17RuleConditionBase17getImplementationERKNSt7__cxx1112basic_stringIcSt11char_traitsIcESaIcEEE' type='func-type' binding='global-binding' visibility='default-visibility' is-defined='yes'/>
    <elf-symbol name='_ZN8usbguard17RuleConditionBase17getImplementationERKNSt7__cxx1112basic_stringIcSt11char_traitsIcESaIcEEES8_b' type='func-type' binding='global-binding' visibility='default-visibility' is-defined='yes'/>
    <elf-symbol name='_ZN8usbguard17RuleConditionBase4finiEv' type='func-type' binding='global-binding' visibility='default-visibility' is-defined='yes'/>
    <elf-symbol name='_ZN8usbguard17RuleConditionBase4initEPNS_9InterfaceE' type='func-type' binding='global-binding' visibility='default-visibility' is-defined='yes'/>
    <elf-symbol name='_ZN8usbguard17RuleConditionBase8evaluateERKNS_4RuleE' type='func-type' binding='global-binding' visibility='default-visibility' is-defined='yes'/>
    <elf-symbol name='_ZN8usbguard17RuleConditionBaseC1ERKNSt7__cxx1112basic_stringIcSt11char_traitsIcESaIcEEES8_b' type='func-type' binding='global-binding' visibility='default-visibility' alias='_ZN8usbguard17RuleConditionBaseC2ERKNSt7__cxx1112basic_stringIcSt11char_traitsIcESaIcEEES8_b' is-defined='yes'/>
    <elf-symbol name='_ZN8usbguard17RuleConditionBaseC1ERKNSt7__cxx1112basic_stringIcSt11char_traitsIcESaIcEEEb' type='func-type' binding='global-binding' visibility='default-visibility' is-defined='yes'/>
    <elf-symbol name='_ZN8usbguard17RuleConditionBaseC1ERKS0_' type='func-type' binding='global-binding' visibility='default-visibility' alias='_ZN8usbguard17RuleConditionBaseC2ERKS0_' is-defined='yes'/>
    <elf-symbol name='_ZN8usbguard17RuleConditionBaseC2ERKNSt7__cxx1112basic_stringIcSt11char_traitsIcESaIcEEES8_b' type='func-type' binding='global-binding' visibility='default-visibility' is-defined='yes'/>
    <elf-symbol name='_ZN8usbguard17RuleConditionBaseC2ERKNSt7__cxx1112basic_stringIcSt11char_traitsIcESaIcEEEb' type='func-type' binding='global-binding' visibility='default-visibility' alias='_ZN8usbguard17RuleConditionBaseC1ERKNSt7__cxx1112basic_stringIcSt11char_traitsIcESaIcEEEb' is-defined='yes'/>
    <elf-symbol name='_ZN8usbguard17RuleConditionBaseC2ERKS0_' type='func-type' binding='global-binding' visibility='default-visibility' is-defined='yes'/>
    <elf-symbol name='_ZN8usbguard17RuleConditionBaseD0Ev' type='func-type' binding='global-binding' visibility='default-visibility' is-defined='yes'/>
    <elf-symbol name='_ZN8usbguard17RuleConditionBaseD1Ev' type='func-type' binding='global-binding' visibility='default-visibility' is-defined='yes'/>
    <elf-symbol name='_ZN8usbguard17RuleConditionBaseD2Ev' type='func-type' binding='global-binding' visibility='default-visibility' alias='_ZN8usbguard17RuleConditionBaseD1Ev' is-defined='yes'/>
    <elf-symbol name='_ZN8usbguard18DeviceManagerHooks17dmHookDeviceEventENS_13DeviceManager9EventTypeESt10shared_ptrINS_6DeviceEE' type='func-type' binding='global-binding' visibility='default-visibility' is-defined='yes'/>
    <elf-symbol name='_ZN8usbguard19USBDescriptorParser13delDescriptorEh' type='func-type' binding='global-binding' visibility='default-visibility' is-defined='yes'/>
    <elf-symbol name='_ZN8usbguard19USBDescriptorParser13setDescriptorEhRKNS_13USBDescriptorE' type='func-type' binding='global-binding' visibility='default-visibility' is-defined='yes'/>
    <elf-symbol name='_ZN8usbguard19USBDescriptorParser5parseERSi' type='func-type' binding='global-binding' visibility='default-visibility' is-defined='yes'/>
    <elf-symbol name='_ZN8usbguard19USBDescriptorParserC1ERNS_24USBDescriptorParserHooksE' type='func-type' binding='global-binding' visibility='default-visibility' is-defined='yes'/>
    <elf-symbol name='_ZN8usbguard19USBDescriptorParserC2ERNS_24USBDescriptorParserHooksE' type='func-type' binding='global-binding' visibility='default-visibility' alias='_ZN8usbguard19USBDescriptorParserC1ERNS_24USBDescriptorParserHooksE' is-defined='yes'/>
    <elf-symbol name='_ZN8usbguard19USBDescriptorParserD1Ev' type='func-type' binding='weak-binding' visibility='default-visibility' alias='_ZN8usbguard19USBDescriptorParserD2Ev' is-defined='yes'/>
    <elf-symbol name='_ZN8usbguard19USBDescriptorParserD2Ev' type='func-type' binding='weak-binding' visibility='default-visibility' is-defined='yes'/>
    <elf-symbol name='_ZN8usbguard19getDaemonConfigPathB5cxx11Ev' type='func-type' binding='global-binding' visibility='default-visibility' is-defined='yes'/>
    <elf-symbol name='_ZN8usbguard19parseRuleFromStringERKNSt7__cxx1112basic_stringIcSt11char_traitsIcESaIcEEES7_mb' type='func-type' binding='global-binding' visibility='default-visibility' is-defined='yes'/>
    <elf-symbol name='_ZN8usbguard24USBDescriptorParserHooks17loadUSBDescriptorEPNS_19USBDescriptorParserEPKNS_13USBDescriptorE' type='func-type' binding='global-binding' visibility='default-visibility' is-defined='yes'/>
    <elf-symbol name='_ZN8usbguard24USBDescriptorParserHooks18parseUSBDescriptorEPNS_19USBDescriptorParserEPKNS_13USBDescriptorEPS3_' type='func-type' binding='global-binding' visibility='default-visibility' is-defined='yes'/>
    <elf-symbol name='_ZN8usbguard24USBDescriptorParserHooksC1Ev' type='func-type' binding='weak-binding' visibility='default-visibility' alias='_ZN8usbguard24USBDescriptorParserHooksC2Ev' is-defined='yes'/>
    <elf-symbol name='_ZN8usbguard24USBDescriptorParserHooksC2Ev' type='func-type' binding='weak-binding' visibility='default-visibility' is-defined='yes'/>
    <elf-symbol name='_ZN8usbguard24USBParseDeviceDescriptorEPNS_19USBDescriptorParserEPKNS_13USBDescriptorEPS2_' type='func-type' binding='global-binding' visibility='default-visibility' is-defined='yes'/>
    <elf-symbol name='_ZN8usbguard25USBParseUnknownDescriptorEPNS_19USBDescriptorParserEPKNS_13USBDescriptorEPS2_' type='func-type' binding='global-binding' visibility='default-visibility' is-defined='yes'/>
    <elf-symbol name='_ZN8usbguard26USBParseEndpointDescriptorEPNS_19USBDescriptorParserEPKNS_13USBDescriptorEPS2_' type='func-type' binding='global-binding' visibility='default-visibility' is-defined='yes'/>
    <elf-symbol name='_ZN8usbguard27USBParseInterfaceDescriptorEPNS_19USBDescriptorParserEPKNS_13USBDescriptorEPS2_' type='func-type' binding='global-binding' visibility='default-visibility' is-defined='yes'/>
    <elf-symbol name='_ZN8usbguard28getIPCAccessControlFilesPathB5cxx11Ev' type='func-type' binding='global-binding' visibility='default-visibility' is-defined='yes'/>
    <elf-symbol name='_ZN8usbguard31USBParseAudioEndpointDescriptorEPNS_19USBDescriptorParserEPKNS_13USBDescriptorEPS2_' type='func-type' binding='global-binding' visibility='default-visibility' is-defined='yes'/>
    <elf-symbol name='_ZN8usbguard31USBParseConfigurationDescriptorEPNS_19USBDescriptorParserEPKNS_13USBDescriptorEPS2_' type='func-type' binding='global-binding' visibility='default-visibility' is-defined='yes'/>
    <elf-symbol name='_ZN8usbguard31getIPCAccessControlFileBasenameERKNSt7__cxx1112basic_stringIcSt11char_traitsIcESaIcEEEb' type='func-type' binding='global-binding' visibility='default-visibility' is-defined='yes'/>
    <elf-symbol name='_ZN8usbguard4Rule10fromStringERKNSt7__cxx1112basic_stringIcSt11char_traitsIcESaIcEEE' type='func-type' binding='global-binding' visibility='default-visibility' is-defined='yes'/>
    <elf-symbol name='_ZN8usbguard4Rule10setViaPortERKNSt7__cxx1112basic_stringIcSt11char_traitsIcESaIcEEE' type='func-type' binding='global-binding' visibility='default-visibility' is-defined='yes'/>
    <elf-symbol name='_ZN8usbguard4Rule11setDeviceIDERKNS_11USBDeviceIDE' type='func-type' binding='global-binding' visibility='default-visibility' is-defined='yes'/>
    <elf-symbol name='_ZN8usbguard4Rule13attributeHashB5cxx11Ev' type='func-type' binding='global-binding' visibility='default-visibility' is-defined='yes'/>
    <elf-symbol name='_ZN8usbguard4Rule13attributeNameB5cxx11Ev' type='func-type' binding='global-binding' visibility='default-visibility' is-defined='yes'/>
    <elf-symbol name='_ZN8usbguard4Rule13setParentHashERKNSt7__cxx1112basic_stringIcSt11char_traitsIcESaIcEEE' type='func-type' binding='global-binding' visibility='default-visibility' is-defined='yes'/>
    <elf-symbol name='_ZN8usbguard4Rule14attributeLabelB5cxx11Ev' type='func-type' binding='global-binding' visibility='default-visibility' is-defined='yes'/>
    <elf-symbol name='_ZN8usbguard4Rule14targetToStringB5cxx11ENS0_6TargetE' type='func-type' binding='global-binding' visibility='default-visibility' is-defined='yes'/>
    <elf-symbol name='_ZN8usbguard4Rule15attributeSerialB5cxx11Ev' type='func-type' binding='global-binding' visibility='default-visibility' is-defined='yes'/>
    <elf-symbol name='_ZN8usbguard4Rule15targetToIntegerENS0_6TargetE' type='func-type' binding='global-binding' visibility='default-visibility' is-defined='yes'/>
    <elf-symbol name='_ZN8usbguard4Rule16attributeViaPortB5cxx11Ev' type='func-type' binding='global-binding' visibility='default-visibility' is-defined='yes'/>
    <elf-symbol name='_ZN8usbguard4Rule16targetFromStringERKNSt7__cxx1112basic_stringIcSt11char_traitsIcESaIcEEE' type='func-type' binding='global-binding' visibility='default-visibility' is-defined='yes'/>
    <elf-symbol name='_ZN8usbguard4Rule17attributeDeviceIDEv' type='func-type' binding='global-binding' visibility='default-visibility' is-defined='yes'/>
    <elf-symbol name='_ZN8usbguard4Rule17targetFromIntegerEj' type='func-type' binding='global-binding' visibility='default-visibility' is-defined='yes'/>
    <elf-symbol name='_ZN8usbguard4Rule18setWithConnectTypeERKNSt7__cxx1112basic_stringIcSt11char_traitsIcESaIcEEE' type='func-type' binding='global-binding' visibility='default-visibility' is-defined='yes'/>
    <elf-symbol name='_ZN8usbguard4Rule19attributeConditionsEv' type='func-type' binding='global-binding' visibility='default-visibility' is-defined='yes'/>
    <elf-symbol name='_ZN8usbguard4Rule19attributeParentHashB5cxx11Ev' type='func-type' binding='global-binding' visibility='default-visibility' is-defined='yes'/>
    <elf-symbol name='_ZN8usbguard4Rule19setOperatorToStringB5cxx11ERKNS0_11SetOperatorE' type='func-type' binding='global-binding' visibility='default-visibility' is-defined='yes'/>
    <elf-symbol name='_ZN8usbguard4Rule21setOperatorFromStringERKNSt7__cxx1112basic_stringIcSt11char_traitsIcESaIcEEE' type='func-type' binding='global-binding' visibility='default-visibility' is-defined='yes'/>
    <elf-symbol name='_ZN8usbguard4Rule22attributeWithInterfaceEv' type='func-type' binding='global-binding' visibility='default-visibility' is-defined='yes'/>
    <elf-symbol name='_ZN8usbguard4Rule22updateMetaDataCountersEbb' type='func-type' binding='global-binding' visibility='default-visibility' is-defined='yes'/>
    <elf-symbol name='_ZN8usbguard4Rule24attributeWithConnectTypeB5cxx11Ev' type='func-type' binding='global-binding' visibility='default-visibility' is-defined='yes'/>
    <elf-symbol name='_ZN8usbguard4Rule7setHashERKNSt7__cxx1112basic_stringIcSt11char_traitsIcESaIcEEE' type='func-type' binding='global-binding' visibility='default-visibility' is-defined='yes'/>
    <elf-symbol name='_ZN8usbguard4Rule7setNameERKNSt7__cxx1112basic_stringIcSt11char_traitsIcESaIcEEE' type='func-type' binding='global-binding' visibility='default-visibility' is-defined='yes'/>
    <elf-symbol name='_ZN8usbguard4Rule8internalEv' type='func-type' binding='global-binding' visibility='default-visibility' is-defined='yes'/>
    <elf-symbol name='_ZN8usbguard4Rule8setLabelERKNSt7__cxx1112basic_stringIcSt11char_traitsIcESaIcEEE' type='func-type' binding='global-binding' visibility='default-visibility' is-defined='yes'/>
    <elf-symbol name='_ZN8usbguard4Rule9AttributeINS_11USBDeviceIDEE14setSetOperatorENS0_11SetOperatorE' type='func-type' binding='weak-binding' visibility='default-visibility' is-defined='yes'/>
    <elf-symbol name='_ZN8usbguard4Rule9AttributeINS_11USBDeviceIDEE3setERKS2_' type='func-type' binding='weak-binding' visibility='default-visibility' is-defined='yes'/>
    <elf-symbol name='_ZN8usbguard4Rule9AttributeINS_11USBDeviceIDEE6appendERKS2_' type='func-type' binding='weak-binding' visibility='default-visibility' is-defined='yes'/>
    <elf-symbol name='_ZN8usbguard4Rule9AttributeINS_11USBDeviceIDEEC1EPKc' type='func-type' binding='weak-binding' visibility='default-visibility' alias='_ZN8usbguard4Rule9AttributeINS_11USBDeviceIDEEC2EPKc' is-defined='yes'/>
    <elf-symbol name='_ZN8usbguard4Rule9AttributeINS_11USBDeviceIDEEC2EPKc' type='func-type' binding='weak-binding' visibility='default-visibility' is-defined='yes'/>
    <elf-symbol name='_ZN8usbguard4Rule9AttributeINS_11USBDeviceIDEED1Ev' type='func-type' binding='weak-binding' visibility='default-visibility' alias='_ZN8usbguard4Rule9AttributeINS_11USBDeviceIDEED2Ev' is-defined='yes'/>
    <elf-symbol name='_ZN8usbguard4Rule9AttributeINS_11USBDeviceIDEED2Ev' type='func-type' binding='weak-binding' visibility='default-visibility' is-defined='yes'/>
    <elf-symbol name='_ZN8usbguard4Rule9AttributeINS_11USBDeviceIDEEaSERKS3_' type='func-type' binding='weak-binding' visibility='default-visibility' is-defined='yes'/>
    <elf-symbol name='_ZN8usbguard4Rule9AttributeINS_13RuleConditionEE14setSetOperatorENS0_11SetOperatorE' type='func-type' binding='weak-binding' visibility='default-visibility' is-defined='yes'/>
    <elf-symbol name='_ZN8usbguard4Rule9AttributeINS_13RuleConditionEE6appendEOS2_' type='func-type' binding='weak-binding' visibility='default-visibility' is-defined='yes'/>
    <elf-symbol name='_ZN8usbguard4Rule9AttributeINS_13RuleConditionEE6valuesEv' type='func-type' binding='weak-binding' visibility='default-visibility' is-defined='yes'/>
    <elf-symbol name='_ZN8usbguard4Rule9AttributeINS_13RuleConditionEEC1EPKc' type='func-type' binding='weak-binding' visibility='default-visibility' alias='_ZN8usbguard4Rule9AttributeINS_13RuleConditionEEC2EPKc' is-defined='yes'/>
    <elf-symbol name='_ZN8usbguard4Rule9AttributeINS_13RuleConditionEEC2EPKc' type='func-type' binding='weak-binding' visibility='default-visibility' is-defined='yes'/>
    <elf-symbol name='_ZN8usbguard4Rule9AttributeINS_13RuleConditionEED1Ev' type='func-type' binding='weak-binding' visibility='default-visibility' alias='_ZN8usbguard4Rule9AttributeINS_13RuleConditionEED2Ev' is-defined='yes'/>
    <elf-symbol name='_ZN8usbguard4Rule9AttributeINS_13RuleConditionEED2Ev' type='func-type' binding='weak-binding' visibility='default-visibility' is-defined='yes'/>
    <elf-symbol name='_ZN8usbguard4Rule9AttributeINS_13RuleConditionEEaSERKS3_' type='func-type' binding='weak-binding' visibility='default-visibility' is-defined='yes'/>
    <elf-symbol name='_ZN8usbguard4Rule9AttributeINS_16USBInterfaceTypeEE14setSetOperatorENS0_11SetOperatorE' type='func-type' binding='weak-binding' visibility='default-visibility' is-defined='yes'/>
    <elf-symbol name='_ZN8usbguard4Rule9AttributeINS_16USBInterfaceTypeEE3setERKSt6vectorIS2_SaIS2_EENS0_11SetOperatorE' type='func-type' binding='weak-binding' visibility='default-visibility' is-defined='yes'/>
    <elf-symbol name='_ZN8usbguard4Rule9AttributeINS_16USBInterfaceTypeEE6appendERKS2_' type='func-type' binding='weak-binding' visibility='default-visibility' is-defined='yes'/>
    <elf-symbol name='_ZN8usbguard4Rule9AttributeINS_16USBInterfaceTypeEEC1EPKc' type='func-type' binding='weak-binding' visibility='default-visibility' is-defined='yes'/>
    <elf-symbol name='_ZN8usbguard4Rule9AttributeINS_16USBInterfaceTypeEEC2EPKc' type='func-type' binding='weak-binding' visibility='default-visibility' alias='_ZN8usbguard4Rule9AttributeINS_16USBInterfaceTypeEEC1EPKc' is-defined='yes'/>
    <elf-symbol name='_ZN8usbguard4Rule9AttributeINS_16USBInterfaceTypeEED1Ev' type='func-type' binding='weak-binding' visibility='default-visibility' alias='_ZN8usbguard4Rule9AttributeINS_16USBInterfaceTypeEED2Ev' is-defined='yes'/>
    <elf-symbol name='_ZN8usbguard4Rule9AttributeINS_16USBInterfaceTypeEED2Ev' type='func-type' binding='weak-binding' visibility='default-visibility' is-defined='yes'/>
    <elf-symbol name='_ZN8usbguard4Rule9AttributeINS_16USBInterfaceTypeEEaSERKS3_' type='func-type' binding='weak-binding' visibility='default-visibility' is-defined='yes'/>
    <elf-symbol name='_ZN8usbguard4Rule9AttributeINSt7__cxx1112basic_stringIcSt11char_traitsIcESaIcEEEE14setSetOperatorENS0_11SetOperatorE' type='func-type' binding='weak-binding' visibility='default-visibility' is-defined='yes'/>
    <elf-symbol name='_ZN8usbguard4Rule9AttributeINSt7__cxx1112basic_stringIcSt11char_traitsIcESaIcEEEE3setERKS7_' type='func-type' binding='weak-binding' visibility='default-visibility' is-defined='yes'/>
    <elf-symbol name='_ZN8usbguard4Rule9AttributeINSt7__cxx1112basic_stringIcSt11char_traitsIcESaIcEEEE6appendERKS7_' type='func-type' binding='weak-binding' visibility='default-visibility' is-defined='yes'/>
    <elf-symbol name='_ZN8usbguard4Rule9AttributeINSt7__cxx1112basic_stringIcSt11char_traitsIcESaIcEEEEC1EPKc' type='func-type' binding='weak-binding' visibility='default-visibility' is-defined='yes'/>
    <elf-symbol name='_ZN8usbguard4Rule9AttributeINSt7__cxx1112basic_stringIcSt11char_traitsIcESaIcEEEEC2EPKc' type='func-type' binding='weak-binding' visibility='default-visibility' alias='_ZN8usbguard4Rule9AttributeINSt7__cxx1112basic_stringIcSt11char_traitsIcESaIcEEEEC1EPKc' is-defined='yes'/>
    <elf-symbol name='_ZN8usbguard4Rule9AttributeINSt7__cxx1112basic_stringIcSt11char_traitsIcESaIcEEEED1Ev' type='func-type' binding='weak-binding' visibility='default-visibility' alias='_ZN8usbguard4Rule9AttributeINSt7__cxx1112basic_stringIcSt11char_traitsIcESaIcEEEED2Ev' is-defined='yes'/>
    <elf-symbol name='_ZN8usbguard4Rule9AttributeINSt7__cxx1112basic_stringIcSt11char_traitsIcESaIcEEEED2Ev' type='func-type' binding='weak-binding' visibility='default-visibility' is-defined='yes'/>
    <elf-symbol name='_ZN8usbguard4Rule9AttributeINSt7__cxx1112basic_stringIcSt11char_traitsIcESaIcEEEEaSERKS8_' type='func-type' binding='weak-binding' visibility='default-visibility' is-defined='yes'/>
    <elf-symbol name='_ZN8usbguard4Rule9appliesToERKS0_' type='func-type' binding='global-binding' visibility='default-visibility' is-defined='yes'/>
    <elf-symbol name='_ZN8usbguard4Rule9setRuleIDEj' type='func-type' binding='global-binding' visibility='default-visibility' is-defined='yes'/>
    <elf-symbol name='_ZN8usbguard4Rule9setSerialERKNSt7__cxx1112basic_stringIcSt11char_traitsIcESaIcEEE' type='func-type' binding='global-binding' visibility='default-visibility' is-defined='yes'/>
    <elf-symbol name='_ZN8usbguard4Rule9setTargetENS0_6TargetE' type='func-type' binding='global-binding' visibility='default-visibility' is-defined='yes'/>
    <elf-symbol name='_ZN8usbguard4RuleC1ERKS0_' type='func-type' binding='global-binding' visibility='default-visibility' is-defined='yes'/>
    <elf-symbol name='_ZN8usbguard4RuleC1Ev' type='func-type' binding='global-binding' visibility='default-visibility' is-defined='yes'/>
    <elf-symbol name='_ZN8usbguard4RuleC2ERKS0_' type='func-type' binding='global-binding' visibility='default-visibility' alias='_ZN8usbguard4RuleC1ERKS0_' is-defined='yes'/>
    <elf-symbol name='_ZN8usbguard4RuleC2Ev' type='func-type' binding='global-binding' visibility='default-visibility' alias='_ZN8usbguard4RuleC1Ev' is-defined='yes'/>
    <elf-symbol name='_ZN8usbguard4RuleD1Ev' type='func-type' binding='global-binding' visibility='default-visibility' alias='_ZN8usbguard4RuleD2Ev' is-defined='yes'/>
    <elf-symbol name='_ZN8usbguard4RuleD2Ev' type='func-type' binding='global-binding' visibility='default-visibility' is-defined='yes'/>
    <elf-symbol name='_ZN8usbguard4RuleaSERKS0_' type='func-type' binding='global-binding' visibility='default-visibility' is-defined='yes'/>
    <elf-symbol name='_ZN8usbguard5Audit10setBackendESt10unique_ptrINS_12AuditBackendESt14default_deleteIS2_EE' type='func-type' binding='global-binding' visibility='default-visibility' is-defined='yes'/>
    <elf-symbol name='_ZN8usbguard5Audit10setHidePIIEb' type='func-type' binding='global-binding' visibility='default-visibility' is-defined='yes'/>
    <elf-symbol name='_ZN8usbguard5Audit11deviceEventERKNS_13AuditIdentityESt10shared_ptrINS_6DeviceEENS_13DeviceManager9EventTypeE' type='func-type' binding='global-binding' visibility='default-visibility' is-defined='yes'/>
    <elf-symbol name='_ZN8usbguard5Audit11deviceEventERKNS_13AuditIdentityESt10shared_ptrINS_6DeviceEES6_' type='func-type' binding='global-binding' visibility='default-visibility' is-defined='yes'/>
    <elf-symbol name='_ZN8usbguard5Audit11deviceEventESt10shared_ptrINS_6DeviceEENS_13DeviceManager9EventTypeE' type='func-type' binding='global-binding' visibility='default-visibility' is-defined='yes'/>
    <elf-symbol name='_ZN8usbguard5Audit11deviceEventESt10shared_ptrINS_6DeviceEES3_' type='func-type' binding='global-binding' visibility='default-visibility' is-defined='yes'/>
    <elf-symbol name='_ZN8usbguard5Audit11policyEventERKNS_13AuditIdentityESt10shared_ptrINS_4RuleEENS_6Policy9EventTypeE' type='func-type' binding='global-binding' visibility='default-visibility' is-defined='yes'/>
    <elf-symbol name='_ZN8usbguard5Audit11policyEventERKNS_13AuditIdentityESt10shared_ptrINS_4RuleEES6_' type='func-type' binding='global-binding' visibility='default-visibility' is-defined='yes'/>
    <elf-symbol name='_ZN8usbguard5Audit11policyEventERKNS_13AuditIdentityESt10shared_ptrINS_6DeviceEENS_4Rule6TargetES8_' type='func-type' binding='global-binding' visibility='default-visibility' is-defined='yes'/>
    <elf-symbol name='_ZN8usbguard5Audit11policyEventERKNS_13AuditIdentityESt10shared_ptrINS_6DeviceEENS_6Policy9EventTypeE' type='func-type' binding='global-binding' visibility='default-visibility' is-defined='yes'/>
    <elf-symbol name='_ZN8usbguard5Audit11policyEventESt10shared_ptrINS_4RuleEENS_6Policy9EventTypeE' type='func-type' binding='global-binding' visibility='default-visibility' is-defined='yes'/>
    <elf-symbol name='_ZN8usbguard5Audit11policyEventESt10shared_ptrINS_4RuleEES3_' type='func-type' binding='global-binding' visibility='default-visibility' is-defined='yes'/>
    <elf-symbol name='_ZN8usbguard5Audit11policyEventESt10shared_ptrINS_6DeviceEENS_4Rule6TargetES5_' type='func-type' binding='global-binding' visibility='default-visibility' is-defined='yes'/>
    <elf-symbol name='_ZN8usbguard5Audit11policyEventESt10shared_ptrINS_6DeviceEENS_6Policy9EventTypeE' type='func-type' binding='global-binding' visibility='default-visibility' is-defined='yes'/>
    <elf-symbol name='_ZN8usbguard5AuditC1ERKNS_13AuditIdentityE' type='func-type' binding='global-binding' visibility='default-visibility' alias='_ZN8usbguard5AuditC2ERKNS_13AuditIdentityE' is-defined='yes'/>
    <elf-symbol name='_ZN8usbguard5AuditC2ERKNS_13AuditIdentityE' type='func-type' binding='global-binding' visibility='default-visibility' is-defined='yes'/>
    <elf-symbol name='_ZN8usbguard6Device10updateHashEPKvm' type='func-type' binding='global-binding' visibility='default-visibility' is-defined='yes'/>
    <elf-symbol name='_ZN8usbguard6Device10updateHashERSim' type='func-type' binding='global-binding' visibility='default-visibility' is-defined='yes'/>
    <elf-symbol name='_ZN8usbguard6Device11setDeviceIDERKNS_11USBDeviceIDE' type='func-type' binding='global-binding' visibility='default-visibility' is-defined='yes'/>
    <elf-symbol name='_ZN8usbguard6Device11setParentIDEj' type='func-type' binding='global-binding' visibility='default-visibility' is-defined='yes'/>
    <elf-symbol name='_ZN8usbguard6Device12finalizeHashB5cxx11Ev' type='func-type' binding='global-binding' visibility='default-visibility' is-defined='yes'/>
    <elf-symbol name='_ZN8usbguard6Device13getDeviceRuleEbbb' type='func-type' binding='global-binding' visibility='default-visibility' is-defined='yes'/>
    <elf-symbol name='_ZN8usbguard6Device13setParentHashERKNSt7__cxx1112basic_stringIcSt11char_traitsIcESaIcEEE' type='func-type' binding='global-binding' visibility='default-visibility' is-defined='yes'/>
    <elf-symbol name='_ZN8usbguard6Device14initializeHashEv' type='func-type' binding='global-binding' visibility='default-visibility' is-defined='yes'/>
    <elf-symbol name='_ZN8usbguard6Device14refDeviceMutexEv' type='func-type' binding='global-binding' visibility='default-visibility' is-defined='yes'/>
    <elf-symbol name='_ZN8usbguard6Device14setConnectTypeERKNSt7__cxx1112basic_stringIcSt11char_traitsIcESaIcEEE' type='func-type' binding='global-binding' visibility='default-visibility' is-defined='yes'/>
    <elf-symbol name='_ZN8usbguard6Device20loadDeviceDescriptorEPNS_19USBDescriptorParserEPKNS_13USBDescriptorE' type='func-type' binding='global-binding' visibility='default-visibility' is-defined='yes'/>
    <elf-symbol name='_ZN8usbguard6Device22loadEndpointDescriptorEPNS_19USBDescriptorParserEPKNS_13USBDescriptorE' type='func-type' binding='global-binding' visibility='default-visibility' is-defined='yes'/>
    <elf-symbol name='_ZN8usbguard6Device23loadInterfaceDescriptorEPNS_19USBDescriptorParserEPKNS_13USBDescriptorE' type='func-type' binding='global-binding' visibility='default-visibility' is-defined='yes'/>
    <elf-symbol name='_ZN8usbguard6Device24refMutableInterfaceTypesEv' type='func-type' binding='global-binding' visibility='default-visibility' is-defined='yes'/>
    <elf-symbol name='_ZN8usbguard6Device27loadConfigurationDescriptorEPNS_19USBDescriptorParserEPKNS_13USBDescriptorE' type='func-type' binding='global-binding' visibility='default-visibility' is-defined='yes'/>
    <elf-symbol name='_ZN8usbguard6Device5setIDEj' type='func-type' binding='global-binding' visibility='default-visibility' is-defined='yes'/>
    <elf-symbol name='_ZN8usbguard6Device7setNameERKNSt7__cxx1112basic_stringIcSt11char_traitsIcESaIcEEE' type='func-type' binding='global-binding' visibility='default-visibility' is-defined='yes'/>
    <elf-symbol name='_ZN8usbguard6Device7setPortERKNSt7__cxx1112basic_stringIcSt11char_traitsIcESaIcEEE' type='func-type' binding='global-binding' visibility='default-visibility' is-defined='yes'/>
    <elf-symbol name='_ZN8usbguard6Device9setSerialERKNSt7__cxx1112basic_stringIcSt11char_traitsIcESaIcEEE' type='func-type' binding='global-binding' visibility='default-visibility' is-defined='yes'/>
    <elf-symbol name='_ZN8usbguard6Device9setTargetENS_4Rule6TargetE' type='func-type' binding='global-binding' visibility='default-visibility' is-defined='yes'/>
    <elf-symbol name='_ZN8usbguard6DeviceC1ERKS0_' type='func-type' binding='global-binding' visibility='default-visibility' alias='_ZN8usbguard6DeviceC2ERKS0_' is-defined='yes'/>
    <elf-symbol name='_ZN8usbguard6DeviceC1ERNS_13DeviceManagerE' type='func-type' binding='global-binding' visibility='default-visibility' alias='_ZN8usbguard6DeviceC2ERNS_13DeviceManagerE' is-defined='yes'/>
    <elf-symbol name='_ZN8usbguard6DeviceC2ERKS0_' type='func-type' binding='global-binding' visibility='default-visibility' is-defined='yes'/>
    <elf-symbol name='_ZN8usbguard6DeviceC2ERNS_13DeviceManagerE' type='func-type' binding='global-binding' visibility='default-visibility' is-defined='yes'/>
    <elf-symbol name='_ZN8usbguard6DeviceD0Ev' type='func-type' binding='global-binding' visibility='default-visibility' is-defined='yes'/>
    <elf-symbol name='_ZN8usbguard6DeviceD1Ev' type='func-type' binding='global-binding' visibility='default-visibility' alias='_ZN8usbguard6DeviceD2Ev' is-defined='yes'/>
    <elf-symbol name='_ZN8usbguard6DeviceD2Ev' type='func-type' binding='global-binding' visibility='default-visibility' is-defined='yes'/>
    <elf-symbol name='_ZN8usbguard6DeviceaSERKS0_' type='func-type' binding='global-binding' visibility='default-visibility' is-defined='yes'/>
    <elf-symbol name='_ZN8usbguard6Logger10setEnabledEbNS_9LogStream5LevelE' type='func-type' binding='global-binding' visibility='default-visibility' is-defined='yes'/>
    <elf-symbol name='_ZN8usbguard6Logger12setAuditFileEbRKNSt7__cxx1112basic_stringIcSt11char_traitsIcESaIcEEE' type='func-type' binding='global-binding' visibility='default-visibility' is-defined='yes'/>
    <elf-symbol name='_ZN8usbguard6Logger13addOutputSinkERSt10unique_ptrINS_7LogSinkESt14default_deleteIS2_EE' type='func-type' binding='global-binding' visibility='default-visibility' is-defined='yes'/>
    <elf-symbol name='_ZN8usbguard6Logger13delOutputSinkERKNSt7__cxx1112basic_stringIcSt11char_traitsIcESaIcEEE' type='func-type' binding='global-binding' visibility='default-visibility' is-defined='yes'/>
    <elf-symbol name='_ZN8usbguard6Logger13setOutputFileEbRKNSt7__cxx1112basic_stringIcSt11char_traitsIcESaIcEEEb' type='func-type' binding='global-binding' visibility='default-visibility' is-defined='yes'/>
    <elf-symbol name='_ZN8usbguard6Logger15setOutputSyslogEbRKNSt7__cxx1112basic_stringIcSt11char_traitsIcESaIcEEE' type='func-type' binding='global-binding' visibility='default-visibility' is-defined='yes'/>
    <elf-symbol name='_ZN8usbguard6Logger16setOutputConsoleEb' type='func-type' binding='global-binding' visibility='default-visibility' is-defined='yes'/>
    <elf-symbol name='_ZN8usbguard6Logger20addOutputSink_nolockERSt10unique_ptrINS_7LogSinkESt14default_deleteIS2_EE' type='func-type' binding='global-binding' visibility='default-visibility' is-defined='yes'/>
    <elf-symbol name='_ZN8usbguard6Logger20delOutputSink_nolockERKNSt7__cxx1112basic_stringIcSt11char_traitsIcESaIcEEE' type='func-type' binding='global-binding' visibility='default-visibility' is-defined='yes'/>
    <elf-symbol name='_ZN8usbguard6Logger5writeERKNS_9LogStream6SourceENS1_5LevelERKNSt7__cxx1112basic_stringIcSt11char_traitsIcESaIcEEE' type='func-type' binding='global-binding' visibility='default-visibility' is-defined='yes'/>
    <elf-symbol name='_ZN8usbguard6Logger9timestampB5cxx11Ev' type='func-type' binding='global-binding' visibility='default-visibility' is-defined='yes'/>
    <elf-symbol name='_ZN8usbguard6LoggerC1Ev' type='func-type' binding='global-binding' visibility='default-visibility' alias='_ZN8usbguard6LoggerC2Ev' is-defined='yes'/>
    <elf-symbol name='_ZN8usbguard6LoggerC2Ev' type='func-type' binding='global-binding' visibility='default-visibility' is-defined='yes'/>
    <elf-symbol name='_ZN8usbguard6LoggerD1Ev' type='func-type' binding='global-binding' visibility='default-visibility' alias='_ZN8usbguard6LoggerD2Ev' is-defined='yes'/>
    <elf-symbol name='_ZN8usbguard6LoggerD2Ev' type='func-type' binding='global-binding' visibility='default-visibility' is-defined='yes'/>
    <elf-symbol name='_ZN8usbguard6LoggerclERKNSt7__cxx1112basic_stringIcSt11char_traitsIcESaIcEEEiS8_NS_9LogStream5LevelE' type='func-type' binding='global-binding' visibility='default-visibility' is-defined='yes'/>
    <elf-symbol name='_ZN8usbguard6Policy10appendRuleERKNS_4RuleEj' type='func-type' binding='global-binding' visibility='default-visibility' is-defined='yes'/>
    <elf-symbol name='_ZN8usbguard6Policy10getRuleSetEv' type='func-type' binding='global-binding' visibility='default-visibility' is-defined='yes'/>
    <elf-symbol name='_ZN8usbguard6Policy10removeRuleEj' type='func-type' binding='global-binding' visibility='default-visibility' is-defined='yes'/>
    <elf-symbol name='_ZN8usbguard6Policy10setRuleSetESt6vectorISt10shared_ptrINS_7RuleSetEESaIS4_EE' type='func-type' binding='global-binding' visibility='default-visibility' is-defined='yes'/>
    <elf-symbol name='_ZN8usbguard6Policy10upsertRuleERKNS_4RuleES3_b' type='func-type' binding='global-binding' visibility='default-visibility' is-defined='yes'/>
    <elf-symbol name='_ZN8usbguard6Policy16setDefaultTargetENS_4Rule6TargetE' type='func-type' binding='global-binding' visibility='default-visibility' is-defined='yes'/>
    <elf-symbol name='_ZN8usbguard6Policy17eventTypeToStringB5cxx11ENS0_9EventTypeE' type='func-type' binding='global-binding' visibility='default-visibility' is-defined='yes'/>
    <elf-symbol name='_ZN8usbguard6Policy4saveEv' type='func-type' binding='global-binding' visibility='default-visibility' is-defined='yes'/>
    <elf-symbol name='_ZN8usbguard6Policy7getRuleEj' type='func-type' binding='global-binding' visibility='default-visibility' is-defined='yes'/>
    <elf-symbol name='_ZN8usbguard6Policy8assignIDESt10shared_ptrINS_4RuleEE' type='func-type' binding='global-binding' visibility='default-visibility' is-defined='yes'/>
    <elf-symbol name='_ZN8usbguard6Policy8assignIDEv' type='func-type' binding='global-binding' visibility='default-visibility' is-defined='yes'/>
    <elf-symbol name='_ZN8usbguard6Policy8getRulesEv' type='func-type' binding='global-binding' visibility='default-visibility' is-defined='yes'/>
    <elf-symbol name='_ZN8usbguard6PolicyC1Ev' type='func-type' binding='global-binding' visibility='default-visibility' alias='_ZN8usbguard6PolicyC2Ev' is-defined='yes'/>
    <elf-symbol name='_ZN8usbguard6PolicyC2Ev' type='func-type' binding='global-binding' visibility='default-visibility' is-defined='yes'/>
    <elf-symbol name='_ZN8usbguard7LogSinkC1ERKNSt7__cxx1112basic_stringIcSt11char_traitsIcESaIcEEE' type='func-type' binding='global-binding' visibility='default-visibility' is-defined='yes'/>
    <elf-symbol name='_ZN8usbguard7LogSinkC2ERKNSt7__cxx1112basic_stringIcSt11char_traitsIcESaIcEEE' type='func-type' binding='global-binding' visibility='default-visibility' alias='_ZN8usbguard7LogSinkC1ERKNSt7__cxx1112basic_stringIcSt11char_traitsIcESaIcEEE' is-defined='yes'/>
    <elf-symbol name='_ZN8usbguard7LogSinkD0Ev' type='func-type' binding='global-binding' visibility='default-visibility' is-defined='yes'/>
    <elf-symbol name='_ZN8usbguard7LogSinkD1Ev' type='func-type' binding='global-binding' visibility='default-visibility' alias='_ZN8usbguard7LogSinkD2Ev' is-defined='yes'/>
    <elf-symbol name='_ZN8usbguard7LogSinkD2Ev' type='func-type' binding='global-binding' visibility='default-visibility' is-defined='yes'/>
    <elf-symbol name='_ZN8usbguard7RuleSet10appendRuleERKNS_4RuleEjb' type='func-type' binding='global-binding' visibility='default-visibility' is-defined='yes'/>
    <elf-symbol name='_ZN8usbguard7RuleSet10isWritableEv' type='func-type' binding='global-binding' visibility='default-visibility' is-defined='yes'/>
    <elf-symbol name='_ZN8usbguard7RuleSet10removeRuleEj' type='func-type' binding='global-binding' visibility='default-visibility' is-defined='yes'/>
    <elf-symbol name='_ZN8usbguard7RuleSet10upsertRuleERKNS_4RuleES3_b' type='func-type' binding='global-binding' visibility='default-visibility' is-defined='yes'/>
    <elf-symbol name='_ZN8usbguard7RuleSet11setWritableEv' type='func-type' binding='global-binding' visibility='default-visibility' is-defined='yes'/>
    <elf-symbol name='_ZN8usbguard7RuleSet13clearWritableEv' type='func-type' binding='global-binding' visibility='default-visibility' is-defined='yes'/>
    <elf-symbol name='_ZN8usbguard7RuleSet16setDefaultTargetENS_4Rule6TargetE' type='func-type' binding='global-binding' visibility='default-visibility' is-defined='yes'/>
    <elf-symbol name='_ZN8usbguard7RuleSet7getRuleEj' type='func-type' binding='global-binding' visibility='default-visibility' is-defined='yes'/>
    <elf-symbol name='_ZN8usbguard7RuleSet8assignIDESt10shared_ptrINS_4RuleEE' type='func-type' binding='global-binding' visibility='default-visibility' is-defined='yes'/>
    <elf-symbol name='_ZN8usbguard7RuleSet8assignIDEv' type='func-type' binding='global-binding' visibility='default-visibility' is-defined='yes'/>
    <elf-symbol name='_ZN8usbguard7RuleSet8getRulesEv' type='func-type' binding='global-binding' visibility='default-visibility' is-defined='yes'/>
    <elf-symbol name='_ZN8usbguard7RuleSetC1EPNS_9InterfaceE' type='func-type' binding='global-binding' visibility='default-visibility' alias='_ZN8usbguard7RuleSetC2EPNS_9InterfaceE' is-defined='yes'/>
    <elf-symbol name='_ZN8usbguard7RuleSetC1ERKS0_' type='func-type' binding='global-binding' visibility='default-visibility' alias='_ZN8usbguard7RuleSetC2ERKS0_' is-defined='yes'/>
    <elf-symbol name='_ZN8usbguard7RuleSetC2EPNS_9InterfaceE' type='func-type' binding='global-binding' visibility='default-visibility' is-defined='yes'/>
    <elf-symbol name='_ZN8usbguard7RuleSetC2ERKS0_' type='func-type' binding='global-binding' visibility='default-visibility' is-defined='yes'/>
    <elf-symbol name='_ZN8usbguard7RuleSetD0Ev' type='func-type' binding='weak-binding' visibility='default-visibility' is-defined='yes'/>
    <elf-symbol name='_ZN8usbguard7RuleSetD1Ev' type='func-type' binding='weak-binding' visibility='default-visibility' alias='_ZN8usbguard7RuleSetD2Ev' is-defined='yes'/>
    <elf-symbol name='_ZN8usbguard7RuleSetD2Ev' type='func-type' binding='weak-binding' visibility='default-visibility' is-defined='yes'/>
    <elf-symbol name='_ZN8usbguard7RuleSetaSERKS0_' type='func-type' binding='global-binding' visibility='default-visibility' is-defined='yes'/>
    <elf-symbol name='_ZN8usbguard8LDAPUtil13serializeLDIFESt6vectorISt10shared_ptrINS_7RuleSetEESaIS4_EERSoRSt3mapINSt7__cxx1112basic_stringIcSt11char_traitsIcESaIcEEESE_St4lessISE_ESaISt4pairIKSE_SE_EEE' type='func-type' binding='global-binding' visibility='default-visibility' is-defined='yes'/>
    <elf-symbol name='_ZN8usbguard8LDAPUtil6toLDIFESt10shared_ptrIKNS_4RuleEERSt3mapINSt7__cxx1112basic_stringIcSt11char_traitsIcESaIcEEESB_St4lessISB_ESaISt4pairIKSB_SB_EEEb' type='func-type' binding='global-binding' visibility='default-visibility' is-defined='yes'/>
    <elf-symbol name='_ZN8usbguard9ExceptionC1ERKNSt7__cxx1112basic_stringIcSt11char_traitsIcESaIcEEES8_S8_' type='func-type' binding='weak-binding' visibility='default-visibility' is-defined='yes'/>
    <elf-symbol name='_ZN8usbguard9ExceptionC1ERKS0_' type='func-type' binding='weak-binding' visibility='default-visibility' alias='_ZN8usbguard9ExceptionC2ERKS0_' is-defined='yes'/>
    <elf-symbol name='_ZN8usbguard9ExceptionC2ERKNSt7__cxx1112basic_stringIcSt11char_traitsIcESaIcEEES8_S8_' type='func-type' binding='weak-binding' visibility='default-visibility' alias='_ZN8usbguard9ExceptionC1ERKNSt7__cxx1112basic_stringIcSt11char_traitsIcESaIcEEES8_S8_' is-defined='yes'/>
    <elf-symbol name='_ZN8usbguard9ExceptionC2ERKS0_' type='func-type' binding='weak-binding' visibility='default-visibility' is-defined='yes'/>
    <elf-symbol name='_ZN8usbguard9ExceptionD0Ev' type='func-type' binding='weak-binding' visibility='default-visibility' is-defined='yes'/>
    <elf-symbol name='_ZN8usbguard9ExceptionD1Ev' type='func-type' binding='weak-binding' visibility='default-visibility' alias='_ZN8usbguard9ExceptionD2Ev' is-defined='yes'/>
    <elf-symbol name='_ZN8usbguard9ExceptionD2Ev' type='func-type' binding='weak-binding' visibility='default-visibility' is-defined='yes'/>
    <elf-symbol name='_ZN8usbguard9IPCClient10appendRuleERKNSt7__cxx1112basic_stringIcSt11char_traitsIcESaIcEEEjb' type='func-type' binding='global-binding' visibility='default-visibility' is-defined='yes'/>
    <elf-symbol name='_ZN8usbguard9IPCClient10disconnectEv' type='func-type' binding='global-binding' visibility='default-visibility' is-defined='yes'/>
    <elf-symbol name='_ZN8usbguard9IPCClient10removeRuleEj' type='func-type' binding='global-binding' visibility='default-visibility' is-defined='yes'/>
    <elf-symbol name='_ZN8usbguard9IPCClient11listDevicesERKNSt7__cxx1112basic_stringIcSt11char_traitsIcESaIcEEE' type='func-type' binding='global-binding' visibility='default-visibility' is-defined='yes'/>
    <elf-symbol name='_ZN8usbguard9IPCClient12IPCConnectedEv' type='func-type' binding='weak-binding' visibility='default-visibility' is-defined='yes'/>
    <elf-symbol name='_ZN8usbguard9IPCClient12getParameterERKNSt7__cxx1112basic_stringIcSt11char_traitsIcESaIcEEE' type='func-type' binding='global-binding' visibility='default-visibility' is-defined='yes'/>
    <elf-symbol name='_ZN8usbguard9IPCClient12setParameterERKNSt7__cxx1112basic_stringIcSt11char_traitsIcESaIcEEES8_' type='func-type' binding='global-binding' visibility='default-visibility' is-defined='yes'/>
    <elf-symbol name='_ZN8usbguard9IPCClient15IPCDisconnectedEbRKNS_12IPCExceptionE' type='func-type' binding='weak-binding' visibility='default-visibility' is-defined='yes'/>
    <elf-symbol name='_ZN8usbguard9IPCClient16ExceptionMessageERKNSt7__cxx1112basic_stringIcSt11char_traitsIcESaIcEEES8_S8_' type='func-type' binding='weak-binding' visibility='default-visibility' is-defined='yes'/>
    <elf-symbol name='_ZN8usbguard9IPCClient17applyDevicePolicyEjNS_4Rule6TargetEb' type='func-type' binding='global-binding' visibility='default-visibility' is-defined='yes'/>
    <elf-symbol name='_ZN8usbguard9IPCClient19DevicePolicyAppliedEjNS_4Rule6TargetERKNSt7__cxx1112basic_stringIcSt11char_traitsIcESaIcEEEj' type='func-type' binding='weak-binding' visibility='default-visibility' is-defined='yes'/>
    <elf-symbol name='_ZN8usbguard9IPCClient19DevicePolicyChangedEjNS_4Rule6TargetES2_RKNSt7__cxx1112basic_stringIcSt11char_traitsIcESaIcEEEj' type='func-type' binding='weak-binding' visibility='default-visibility' is-defined='yes'/>
    <elf-symbol name='_ZN8usbguard9IPCClient19checkIPCPermissionsERKNS_9IPCServer13AccessControl7SectionERKNS2_9PrivilegeE' type='func-type' binding='global-binding' visibility='default-visibility' is-defined='yes'/>
    <elf-symbol name='_ZN8usbguard9IPCClient21DevicePresenceChangedEjNS_13DeviceManager9EventTypeENS_4Rule6TargetERKNSt7__cxx1112basic_stringIcSt11char_traitsIcESaIcEEE' type='func-type' binding='weak-binding' visibility='default-visibility' is-defined='yes'/>
    <elf-symbol name='_ZN8usbguard9IPCClient24PropertyParameterChangedERKNSt7__cxx1112basic_stringIcSt11char_traitsIcESaIcEEES8_S8_' type='func-type' binding='weak-binding' visibility='default-visibility' is-defined='yes'/>
    <elf-symbol name='_ZN8usbguard9IPCClient4waitEv' type='func-type' binding='global-binding' visibility='default-visibility' is-defined='yes'/>
    <elf-symbol name='_ZN8usbguard9IPCClient7connectEv' type='func-type' binding='global-binding' visibility='default-visibility' is-defined='yes'/>
    <elf-symbol name='_ZN8usbguard9IPCClient9listRulesERKNSt7__cxx1112basic_stringIcSt11char_traitsIcESaIcEEE' type='func-type' binding='global-binding' visibility='default-visibility' is-defined='yes'/>
    <elf-symbol name='_ZN8usbguard9IPCClientC1Eb' type='func-type' binding='global-binding' visibility='default-visibility' is-defined='yes'/>
    <elf-symbol name='_ZN8usbguard9IPCClientC2Eb' type='func-type' binding='global-binding' visibility='default-visibility' alias='_ZN8usbguard9IPCClientC1Eb' is-defined='yes'/>
    <elf-symbol name='_ZN8usbguard9IPCClientD0Ev' type='func-type' binding='global-binding' visibility='default-visibility' is-defined='yes'/>
    <elf-symbol name='_ZN8usbguard9IPCClientD1Ev' type='func-type' binding='global-binding' visibility='default-visibility' alias='_ZN8usbguard9IPCClientD2Ev' is-defined='yes'/>
    <elf-symbol name='_ZN8usbguard9IPCClientD2Ev' type='func-type' binding='global-binding' visibility='default-visibility' is-defined='yes'/>
    <elf-symbol name='_ZN8usbguard9IPCServer13AccessControl12setPrivilegeENS1_7SectionENS1_9PrivilegeE' type='func-type' binding='global-binding' visibility='default-visibility' is-defined='yes'/>
    <elf-symbol name='_ZN8usbguard9IPCServer13AccessControl15sectionToStringB5cxx11ENS1_7SectionE' type='func-type' binding='global-binding' visibility='default-visibility' is-defined='yes'/>
    <elf-symbol name='_ZN8usbguard9IPCServer13AccessControl17privilegeToStringB5cxx11ENS1_9PrivilegeE' type='func-type' binding='global-binding' visibility='default-visibility' is-defined='yes'/>
    <elf-symbol name='_ZN8usbguard9IPCServer13AccessControl17sectionFromStringERKNSt7__cxx1112basic_stringIcSt11char_traitsIcESaIcEEE' type='func-type' binding='global-binding' visibility='default-visibility' is-defined='yes'/>
    <elf-symbol name='_ZN8usbguard9IPCServer13AccessControl19privilegeFromStringERKNSt7__cxx1112basic_stringIcSt11char_traitsIcESaIcEEE' type='func-type' binding='global-binding' visibility='default-visibility' is-defined='yes'/>
    <elf-symbol name='_ZN8usbguard9IPCServer13AccessControl4loadERSi' type='func-type' binding='global-binding' visibility='default-visibility' is-defined='yes'/>
    <elf-symbol name='_ZN8usbguard9IPCServer13AccessControl5clearEv' type='func-type' binding='global-binding' visibility='default-visibility' is-defined='yes'/>
    <elf-symbol name='_ZN8usbguard9IPCServer13AccessControl5mergeERKNSt7__cxx1112basic_stringIcSt11char_traitsIcESaIcEEE' type='func-type' binding='global-binding' visibility='default-visibility' is-defined='yes'/>
    <elf-symbol name='_ZN8usbguard9IPCServer13AccessControl5mergeERKS1_' type='func-type' binding='global-binding' visibility='default-visibility' is-defined='yes'/>
    <elf-symbol name='_ZN8usbguard9IPCServer13AccessControlC1ENS1_7SectionENS1_9PrivilegeE' type='func-type' binding='global-binding' visibility='default-visibility' is-defined='yes'/>
    <elf-symbol name='_ZN8usbguard9IPCServer13AccessControlC1ERKNSt7__cxx1112basic_stringIcSt11char_traitsIcESaIcEEE' type='func-type' binding='global-binding' visibility='default-visibility' is-defined='yes'/>
    <elf-symbol name='_ZN8usbguard9IPCServer13AccessControlC1ERKS1_' type='func-type' binding='global-binding' visibility='default-visibility' alias='_ZN8usbguard9IPCServer13AccessControlC2ERKS1_' is-defined='yes'/>
    <elf-symbol name='_ZN8usbguard9IPCServer13AccessControlC1Ev' type='func-type' binding='global-binding' visibility='default-visibility' is-defined='yes'/>
    <elf-symbol name='_ZN8usbguard9IPCServer13AccessControlC2ENS1_7SectionENS1_9PrivilegeE' type='func-type' binding='global-binding' visibility='default-visibility' alias='_ZN8usbguard9IPCServer13AccessControlC1ENS1_7SectionENS1_9PrivilegeE' is-defined='yes'/>
    <elf-symbol name='_ZN8usbguard9IPCServer13AccessControlC2ERKNSt7__cxx1112basic_stringIcSt11char_traitsIcESaIcEEE' type='func-type' binding='global-binding' visibility='default-visibility' alias='_ZN8usbguard9IPCServer13AccessControlC1ERKNSt7__cxx1112basic_stringIcSt11char_traitsIcESaIcEEE' is-defined='yes'/>
    <elf-symbol name='_ZN8usbguard9IPCServer13AccessControlC2ERKS1_' type='func-type' binding='global-binding' visibility='default-visibility' is-defined='yes'/>
    <elf-symbol name='_ZN8usbguard9IPCServer13AccessControlC2Ev' type='func-type' binding='global-binding' visibility='default-visibility' alias='_ZN8usbguard9IPCServer13AccessControlC1Ev' is-defined='yes'/>
    <elf-symbol name='_ZN8usbguard9IPCServer13AccessControlD1Ev' type='func-type' binding='weak-binding' visibility='default-visibility' alias='_ZN8usbguard9IPCServer13AccessControlD2Ev' is-defined='yes'/>
    <elf-symbol name='_ZN8usbguard9IPCServer13AccessControlD2Ev' type='func-type' binding='weak-binding' visibility='default-visibility' is-defined='yes'/>
    <elf-symbol name='_ZN8usbguard9IPCServer13AccessControlaSERKS1_' type='func-type' binding='global-binding' visibility='default-visibility' is-defined='yes'/>
    <elf-symbol name='_ZN8usbguard9IPCServer13addAllowedGIDEjRKNS0_13AccessControlE' type='func-type' binding='global-binding' visibility='default-visibility' is-defined='yes'/>
    <elf-symbol name='_ZN8usbguard9IPCServer13addAllowedUIDEjRKNS0_13AccessControlE' type='func-type' binding='global-binding' visibility='default-visibility' is-defined='yes'/>
    <elf-symbol name='_ZN8usbguard9IPCServer16ExceptionMessageERKNSt7__cxx1112basic_stringIcSt11char_traitsIcESaIcEEES8_S8_' type='func-type' binding='global-binding' visibility='default-visibility' is-defined='yes'/>
    <elf-symbol name='_ZN8usbguard9IPCServer18addAllowedUsernameERKNSt7__cxx1112basic_stringIcSt11char_traitsIcESaIcEEERKNS0_13AccessControlE' type='func-type' binding='global-binding' visibility='default-visibility' is-defined='yes'/>
    <elf-symbol name='_ZN8usbguard9IPCServer19DevicePolicyAppliedEjNS_4Rule6TargetERKNSt7__cxx1112basic_stringIcSt11char_traitsIcESaIcEEEj' type='func-type' binding='global-binding' visibility='default-visibility' is-defined='yes'/>
    <elf-symbol name='_ZN8usbguard9IPCServer19DevicePolicyChangedEjNS_4Rule6TargetES2_RKNSt7__cxx1112basic_stringIcSt11char_traitsIcESaIcEEEj' type='func-type' binding='global-binding' visibility='default-visibility' is-defined='yes'/>
    <elf-symbol name='_ZN8usbguard9IPCServer19addAllowedGroupnameERKNSt7__cxx1112basic_stringIcSt11char_traitsIcESaIcEEERKNS0_13AccessControlE' type='func-type' binding='global-binding' visibility='default-visibility' is-defined='yes'/>
    <elf-symbol name='_ZN8usbguard9IPCServer21DevicePresenceChangedEjNS_13DeviceManager9EventTypeENS_4Rule6TargetERKNSt7__cxx1112basic_stringIcSt11char_traitsIcESaIcEEE' type='func-type' binding='global-binding' visibility='default-visibility' is-defined='yes'/>
    <elf-symbol name='_ZN8usbguard9IPCServer22checkAccessControlNameERKNSt7__cxx1112basic_stringIcSt11char_traitsIcESaIcEEE' type='func-type' binding='global-binding' visibility='default-visibility' is-defined='yes'/>
    <elf-symbol name='_ZN8usbguard9IPCServer24PropertyParameterChangedERKNSt7__cxx1112basic_stringIcSt11char_traitsIcESaIcEEES8_S8_' type='func-type' binding='global-binding' visibility='default-visibility' is-defined='yes'/>
    <elf-symbol name='_ZN8usbguard9IPCServer4stopEv' type='func-type' binding='global-binding' visibility='default-visibility' is-defined='yes'/>
    <elf-symbol name='_ZN8usbguard9IPCServer5startEv' type='func-type' binding='global-binding' visibility='default-visibility' is-defined='yes'/>
    <elf-symbol name='_ZN8usbguard9IPCServerC1Ev' type='func-type' binding='global-binding' visibility='default-visibility' alias='_ZN8usbguard9IPCServerC2Ev' is-defined='yes'/>
    <elf-symbol name='_ZN8usbguard9IPCServerC2Ev' type='func-type' binding='global-binding' visibility='default-visibility' is-defined='yes'/>
    <elf-symbol name='_ZN8usbguard9IPCServerD0Ev' type='func-type' binding='global-binding' visibility='default-visibility' is-defined='yes'/>
    <elf-symbol name='_ZN8usbguard9IPCServerD1Ev' type='func-type' binding='global-binding' visibility='default-visibility' is-defined='yes'/>
    <elf-symbol name='_ZN8usbguard9IPCServerD2Ev' type='func-type' binding='global-binding' visibility='default-visibility' alias='_ZN8usbguard9IPCServerD1Ev' is-defined='yes'/>
    <elf-symbol name='_ZN8usbguard9InterfaceC1Ev' type='func-type' binding='weak-binding' visibility='default-visibility' alias='_ZN8usbguard9InterfaceC2Ev' is-defined='yes'/>
    <elf-symbol name='_ZN8usbguard9InterfaceC2Ev' type='func-type' binding='weak-binding' visibility='default-visibility' is-defined='yes'/>
    <elf-symbol name='_ZN8usbguard9LogStream13levelToStringB5cxx11ENS0_5LevelE' type='func-type' binding='global-binding' visibility='default-visibility' is-defined='yes'/>
    <elf-symbol name='_ZN8usbguard9LogStream14sourceToStringB5cxx11ERKNS0_6SourceE' type='func-type' binding='global-binding' visibility='default-visibility' is-defined='yes'/>
    <elf-symbol name='_ZN8usbguard9LogStream6SourceC1ERKS1_' type='func-type' binding='weak-binding' visibility='default-visibility' alias='_ZN8usbguard9LogStream6SourceC2ERKS1_' is-defined='yes'/>
    <elf-symbol name='_ZN8usbguard9LogStream6SourceC2ERKS1_' type='func-type' binding='weak-binding' visibility='default-visibility' is-defined='yes'/>
    <elf-symbol name='_ZN8usbguard9LogStream6SourceD1Ev' type='func-type' binding='weak-binding' visibility='default-visibility' is-defined='yes'/>
    <elf-symbol name='_ZN8usbguard9LogStream6SourceD2Ev' type='func-type' binding='weak-binding' visibility='default-visibility' alias='_ZN8usbguard9LogStream6SourceD1Ev' is-defined='yes'/>
    <elf-symbol name='_ZN8usbguard9LogStreamC1ERKS0_' type='func-type' binding='global-binding' visibility='default-visibility' is-defined='yes'/>
    <elf-symbol name='_ZN8usbguard9LogStreamC1ERNS_6LoggerERKNS0_6SourceENS0_5LevelE' type='func-type' binding='global-binding' visibility='default-visibility' is-defined='yes'/>
    <elf-symbol name='_ZN8usbguard9LogStreamC2ERKS0_' type='func-type' binding='global-binding' visibility='default-visibility' is-defined='yes'/>
    <elf-symbol name='_ZN8usbguard9LogStreamC2ERNS_6LoggerERKNS0_6SourceENS0_5LevelE' type='func-type' binding='global-binding' visibility='default-visibility' is-defined='yes'/>
    <elf-symbol name='_ZN8usbguard9LogStreamD0Ev' type='func-type' binding='global-binding' visibility='default-visibility' is-defined='yes'/>
    <elf-symbol name='_ZN8usbguard9LogStreamD1Ev' type='func-type' binding='global-binding' visibility='default-visibility' is-defined='yes'/>
    <elf-symbol name='_ZN8usbguard9LogStreamD2Ev' type='func-type' binding='global-binding' visibility='default-visibility' is-defined='yes'/>
    <elf-symbol name='_ZN9__gnu_cxx11char_traitsIcE2eqERKcS3_' type='func-type' binding='weak-binding' visibility='default-visibility' is-defined='yes'/>
    <elf-symbol name='_ZN9__gnu_cxx11char_traitsIcE6lengthEPKc' type='func-type' binding='weak-binding' visibility='default-visibility' is-defined='yes'/>
    <elf-symbol name='_ZN9__gnu_cxx13stdio_filebufIcSt11char_traitsIcEEC1EiSt13_Ios_Openmodem' type='func-type' binding='weak-binding' visibility='default-visibility' is-defined='yes'/>
    <elf-symbol name='_ZN9__gnu_cxx13stdio_filebufIcSt11char_traitsIcEEC2EiSt13_Ios_Openmodem' type='func-type' binding='weak-binding' visibility='default-visibility' alias='_ZN9__gnu_cxx13stdio_filebufIcSt11char_traitsIcEEC1EiSt13_Ios_Openmodem' is-defined='yes'/>
    <elf-symbol name='_ZN9__gnu_cxx13stdio_filebufIcSt11char_traitsIcEED0Ev' type='func-type' binding='weak-binding' visibility='default-visibility' is-defined='yes'/>
    <elf-symbol name='_ZN9__gnu_cxx13stdio_filebufIcSt11char_traitsIcEED1Ev' type='func-type' binding='weak-binding' visibility='default-visibility' alias='_ZN9__gnu_cxx13stdio_filebufIcSt11char_traitsIcEED2Ev' is-defined='yes'/>
    <elf-symbol name='_ZN9__gnu_cxx13stdio_filebufIcSt11char_traitsIcEED2Ev' type='func-type' binding='weak-binding' visibility='default-visibility' is-defined='yes'/>
    <elf-symbol name='_ZN9__gnu_cxx17__normal_iteratorIPKN8usbguard11USBDeviceIDESt6vectorIS2_SaIS2_EEEC1ERKS4_' type='func-type' binding='weak-binding' visibility='default-visibility' alias='_ZN9__gnu_cxx17__normal_iteratorIPKN8usbguard11USBDeviceIDESt6vectorIS2_SaIS2_EEEC2ERKS4_' is-defined='yes'/>
    <elf-symbol name='_ZN9__gnu_cxx17__normal_iteratorIPKN8usbguard11USBDeviceIDESt6vectorIS2_SaIS2_EEEC2ERKS4_' type='func-type' binding='weak-binding' visibility='default-visibility' is-defined='yes'/>
    <elf-symbol name='_ZN9__gnu_cxx17__normal_iteratorIPKN8usbguard11USBDeviceIDESt6vectorIS2_SaIS2_EEEppEv' type='func-type' binding='weak-binding' visibility='default-visibility' is-defined='yes'/>
    <elf-symbol name='_ZN9__gnu_cxx17__normal_iteratorIPKN8usbguard13RuleConditionESt6vectorIS2_SaIS2_EEEC1ERKS4_' type='func-type' binding='weak-binding' visibility='default-visibility' alias='_ZN9__gnu_cxx17__normal_iteratorIPKN8usbguard13RuleConditionESt6vectorIS2_SaIS2_EEEC2ERKS4_' is-defined='yes'/>
    <elf-symbol name='_ZN9__gnu_cxx17__normal_iteratorIPKN8usbguard13RuleConditionESt6vectorIS2_SaIS2_EEEC2ERKS4_' type='func-type' binding='weak-binding' visibility='default-visibility' is-defined='yes'/>
    <elf-symbol name='_ZN9__gnu_cxx17__normal_iteratorIPKN8usbguard13RuleConditionESt6vectorIS2_SaIS2_EEEppEv' type='func-type' binding='weak-binding' visibility='default-visibility' is-defined='yes'/>
    <elf-symbol name='_ZN9__gnu_cxx17__normal_iteratorIPKN8usbguard16USBInterfaceTypeESt6vectorIS2_SaIS2_EEEC1ERKS4_' type='func-type' binding='weak-binding' visibility='default-visibility' alias='_ZN9__gnu_cxx17__normal_iteratorIPKN8usbguard16USBInterfaceTypeESt6vectorIS2_SaIS2_EEEC2ERKS4_' is-defined='yes'/>
    <elf-symbol name='_ZN9__gnu_cxx17__normal_iteratorIPKN8usbguard16USBInterfaceTypeESt6vectorIS2_SaIS2_EEEC2ERKS4_' type='func-type' binding='weak-binding' visibility='default-visibility' is-defined='yes'/>
    <elf-symbol name='_ZN9__gnu_cxx17__normal_iteratorIPKN8usbguard16USBInterfaceTypeESt6vectorIS2_SaIS2_EEEppEv' type='func-type' binding='weak-binding' visibility='default-visibility' is-defined='yes'/>
    <elf-symbol name='_ZN9__gnu_cxx17__normal_iteratorIPKN8usbguard4RuleESt6vectorIS2_SaIS2_EEEC1ERKS4_' type='func-type' binding='weak-binding' visibility='default-visibility' is-defined='yes'/>
    <elf-symbol name='_ZN9__gnu_cxx17__normal_iteratorIPKN8usbguard4RuleESt6vectorIS2_SaIS2_EEEC2ERKS4_' type='func-type' binding='weak-binding' visibility='default-visibility' alias='_ZN9__gnu_cxx17__normal_iteratorIPKN8usbguard4RuleESt6vectorIS2_SaIS2_EEEC1ERKS4_' is-defined='yes'/>
    <elf-symbol name='_ZN9__gnu_cxx17__normal_iteratorIPKNSt7__cxx1112basic_stringIcSt11char_traitsIcESaIcEEESt6vectorIS6_SaIS6_EEEC1ERKS8_' type='func-type' binding='weak-binding' visibility='default-visibility' alias='_ZN9__gnu_cxx17__normal_iteratorIPKNSt7__cxx1112basic_stringIcSt11char_traitsIcESaIcEEESt6vectorIS6_SaIS6_EEEC2ERKS8_' is-defined='yes'/>
    <elf-symbol name='_ZN9__gnu_cxx17__normal_iteratorIPKNSt7__cxx1112basic_stringIcSt11char_traitsIcESaIcEEESt6vectorIS6_SaIS6_EEEC1IPS6_vEERKNS0_IT_SB_EE' type='func-type' binding='weak-binding' visibility='default-visibility' alias='_ZN9__gnu_cxx17__normal_iteratorIPKNSt7__cxx1112basic_stringIcSt11char_traitsIcESaIcEEESt6vectorIS6_SaIS6_EEEC2IPS6_vEERKNS0_IT_SB_EE' is-defined='yes'/>
    <elf-symbol name='_ZN9__gnu_cxx17__normal_iteratorIPKNSt7__cxx1112basic_stringIcSt11char_traitsIcESaIcEEESt6vectorIS6_SaIS6_EEEC2ERKS8_' type='func-type' binding='weak-binding' visibility='default-visibility' is-defined='yes'/>
    <elf-symbol name='_ZN9__gnu_cxx17__normal_iteratorIPKNSt7__cxx1112basic_stringIcSt11char_traitsIcESaIcEEESt6vectorIS6_SaIS6_EEEC2IPS6_vEERKNS0_IT_SB_EE' type='func-type' binding='weak-binding' visibility='default-visibility' is-defined='yes'/>
    <elf-symbol name='_ZN9__gnu_cxx17__normal_iteratorIPKNSt7__cxx1112basic_stringIcSt11char_traitsIcESaIcEEESt6vectorIS6_SaIS6_EEEppEv' type='func-type' binding='weak-binding' visibility='default-visibility' is-defined='yes'/>
    <elf-symbol name='_ZN9__gnu_cxx17__normal_iteratorIPKSt10shared_ptrIN8usbguard4RuleEESt6vectorIS4_SaIS4_EEEC1ERKS6_' type='func-type' binding='weak-binding' visibility='default-visibility' alias='_ZN9__gnu_cxx17__normal_iteratorIPKSt10shared_ptrIN8usbguard4RuleEESt6vectorIS4_SaIS4_EEEC2ERKS6_' is-defined='yes'/>
    <elf-symbol name='_ZN9__gnu_cxx17__normal_iteratorIPKSt10shared_ptrIN8usbguard4RuleEESt6vectorIS4_SaIS4_EEEC1Ev' type='func-type' binding='weak-binding' visibility='default-visibility' alias='_ZN9__gnu_cxx17__normal_iteratorIPKSt10shared_ptrIN8usbguard4RuleEESt6vectorIS4_SaIS4_EEEC2Ev' is-defined='yes'/>
    <elf-symbol name='_ZN9__gnu_cxx17__normal_iteratorIPKSt10shared_ptrIN8usbguard4RuleEESt6vectorIS4_SaIS4_EEEC1IPS4_vEERKNS0_IT_S9_EE' type='func-type' binding='weak-binding' visibility='default-visibility' alias='_ZN9__gnu_cxx17__normal_iteratorIPKSt10shared_ptrIN8usbguard4RuleEESt6vectorIS4_SaIS4_EEEC2IPS4_vEERKNS0_IT_S9_EE' is-defined='yes'/>
    <elf-symbol name='_ZN9__gnu_cxx17__normal_iteratorIPKSt10shared_ptrIN8usbguard4RuleEESt6vectorIS4_SaIS4_EEEC2ERKS6_' type='func-type' binding='weak-binding' visibility='default-visibility' is-defined='yes'/>
    <elf-symbol name='_ZN9__gnu_cxx17__normal_iteratorIPKSt10shared_ptrIN8usbguard4RuleEESt6vectorIS4_SaIS4_EEEC2Ev' type='func-type' binding='weak-binding' visibility='default-visibility' is-defined='yes'/>
    <elf-symbol name='_ZN9__gnu_cxx17__normal_iteratorIPKSt10shared_ptrIN8usbguard4RuleEESt6vectorIS4_SaIS4_EEEC2IPS4_vEERKNS0_IT_S9_EE' type='func-type' binding='weak-binding' visibility='default-visibility' is-defined='yes'/>
    <elf-symbol name='_ZN9__gnu_cxx17__normal_iteratorIPKSt10shared_ptrIN8usbguard4RuleEESt6vectorIS4_SaIS4_EEEppEv' type='func-type' binding='weak-binding' visibility='default-visibility' is-defined='yes'/>
    <elf-symbol name='_ZN9__gnu_cxx17__normal_iteratorIPKSt10shared_ptrIN8usbguard7RuleSetEESt6vectorIS4_SaIS4_EEEC1ERKS6_' type='func-type' binding='weak-binding' visibility='default-visibility' alias='_ZN9__gnu_cxx17__normal_iteratorIPKSt10shared_ptrIN8usbguard7RuleSetEESt6vectorIS4_SaIS4_EEEC2ERKS6_' is-defined='yes'/>
    <elf-symbol name='_ZN9__gnu_cxx17__normal_iteratorIPKSt10shared_ptrIN8usbguard7RuleSetEESt6vectorIS4_SaIS4_EEEC2ERKS6_' type='func-type' binding='weak-binding' visibility='default-visibility' is-defined='yes'/>
    <elf-symbol name='_ZN9__gnu_cxx17__normal_iteratorIPKSt10shared_ptrIN8usbguard7RuleSetEESt6vectorIS4_SaIS4_EEEppEv' type='func-type' binding='weak-binding' visibility='default-visibility' is-defined='yes'/>
    <elf-symbol name='_ZN9__gnu_cxx17__normal_iteratorIPKSt4pairINSt7__cxx1112basic_stringIcSt11char_traitsIcESaIcEEEN8usbguard13DeviceManager21AuthorizedDefaultTypeEESt6vectorISB_SaISB_EEEC1ERKSD_' type='func-type' binding='weak-binding' visibility='default-visibility' alias='_ZN9__gnu_cxx17__normal_iteratorIPKSt4pairINSt7__cxx1112basic_stringIcSt11char_traitsIcESaIcEEEN8usbguard13DeviceManager21AuthorizedDefaultTypeEESt6vectorISB_SaISB_EEEC2ERKSD_' is-defined='yes'/>
    <elf-symbol name='_ZN9__gnu_cxx17__normal_iteratorIPKSt4pairINSt7__cxx1112basic_stringIcSt11char_traitsIcESaIcEEEN8usbguard13DeviceManager21AuthorizedDefaultTypeEESt6vectorISB_SaISB_EEEC2ERKSD_' type='func-type' binding='weak-binding' visibility='default-visibility' is-defined='yes'/>
    <elf-symbol name='_ZN9__gnu_cxx17__normal_iteratorIPKSt4pairINSt7__cxx1112basic_stringIcSt11char_traitsIcESaIcEEEN8usbguard13DeviceManager21AuthorizedDefaultTypeEESt6vectorISB_SaISB_EEEppEv' type='func-type' binding='weak-binding' visibility='default-visibility' is-defined='yes'/>
    <elf-symbol name='_ZN9__gnu_cxx17__normal_iteratorIPKSt4pairINSt7__cxx1112basic_stringIcSt11char_traitsIcESaIcEEEN8usbguard4Rule11SetOperatorEESt6vectorISB_SaISB_EEEC1ERKSD_' type='func-type' binding='weak-binding' visibility='default-visibility' alias='_ZN9__gnu_cxx17__normal_iteratorIPKSt4pairINSt7__cxx1112basic_stringIcSt11char_traitsIcESaIcEEEN8usbguard4Rule11SetOperatorEESt6vectorISB_SaISB_EEEC2ERKSD_' is-defined='yes'/>
    <elf-symbol name='_ZN9__gnu_cxx17__normal_iteratorIPKSt4pairINSt7__cxx1112basic_stringIcSt11char_traitsIcESaIcEEEN8usbguard4Rule11SetOperatorEESt6vectorISB_SaISB_EEEC2ERKSD_' type='func-type' binding='weak-binding' visibility='default-visibility' is-defined='yes'/>
    <elf-symbol name='_ZN9__gnu_cxx17__normal_iteratorIPKSt4pairINSt7__cxx1112basic_stringIcSt11char_traitsIcESaIcEEEN8usbguard4Rule11SetOperatorEESt6vectorISB_SaISB_EEEppEv' type='func-type' binding='weak-binding' visibility='default-visibility' is-defined='yes'/>
    <elf-symbol name='_ZN9__gnu_cxx17__normal_iteratorIPKSt4pairINSt7__cxx1112basic_stringIcSt11char_traitsIcESaIcEEEN8usbguard4Rule6TargetEESt6vectorISB_SaISB_EEEC1ERKSD_' type='func-type' binding='weak-binding' visibility='default-visibility' alias='_ZN9__gnu_cxx17__normal_iteratorIPKSt4pairINSt7__cxx1112basic_stringIcSt11char_traitsIcESaIcEEEN8usbguard4Rule6TargetEESt6vectorISB_SaISB_EEEC2ERKSD_' is-defined='yes'/>
    <elf-symbol name='_ZN9__gnu_cxx17__normal_iteratorIPKSt4pairINSt7__cxx1112basic_stringIcSt11char_traitsIcESaIcEEEN8usbguard4Rule6TargetEESt6vectorISB_SaISB_EEEC2ERKSD_' type='func-type' binding='weak-binding' visibility='default-visibility' is-defined='yes'/>
    <elf-symbol name='_ZN9__gnu_cxx17__normal_iteratorIPKSt4pairINSt7__cxx1112basic_stringIcSt11char_traitsIcESaIcEEEN8usbguard4Rule6TargetEESt6vectorISB_SaISB_EEEppEv' type='func-type' binding='weak-binding' visibility='default-visibility' is-defined='yes'/>
    <elf-symbol name='_ZN9__gnu_cxx17__normal_iteratorIPKSt4pairINSt7__cxx1112basic_stringIcSt11char_traitsIcESaIcEEEN8usbguard9IPCServer13AccessControl7SectionEESt6vectorISC_SaISC_EEEC1ERKSE_' type='func-type' binding='weak-binding' visibility='default-visibility' alias='_ZN9__gnu_cxx17__normal_iteratorIPKSt4pairINSt7__cxx1112basic_stringIcSt11char_traitsIcESaIcEEEN8usbguard9IPCServer13AccessControl7SectionEESt6vectorISC_SaISC_EEEC2ERKSE_' is-defined='yes'/>
    <elf-symbol name='_ZN9__gnu_cxx17__normal_iteratorIPKSt4pairINSt7__cxx1112basic_stringIcSt11char_traitsIcESaIcEEEN8usbguard9IPCServer13AccessControl7SectionEESt6vectorISC_SaISC_EEEC2ERKSE_' type='func-type' binding='weak-binding' visibility='default-visibility' is-defined='yes'/>
    <elf-symbol name='_ZN9__gnu_cxx17__normal_iteratorIPKSt4pairINSt7__cxx1112basic_stringIcSt11char_traitsIcESaIcEEEN8usbguard9IPCServer13AccessControl7SectionEESt6vectorISC_SaISC_EEEppEv' type='func-type' binding='weak-binding' visibility='default-visibility' is-defined='yes'/>
    <elf-symbol name='_ZN9__gnu_cxx17__normal_iteratorIPKSt4pairINSt7__cxx1112basic_stringIcSt11char_traitsIcESaIcEEEN8usbguard9IPCServer13AccessControl9PrivilegeEESt6vectorISC_SaISC_EEEC1ERKSE_' type='func-type' binding='weak-binding' visibility='default-visibility' alias='_ZN9__gnu_cxx17__normal_iteratorIPKSt4pairINSt7__cxx1112basic_stringIcSt11char_traitsIcESaIcEEEN8usbguard9IPCServer13AccessControl9PrivilegeEESt6vectorISC_SaISC_EEEC2ERKSE_' is-defined='yes'/>
    <elf-symbol name='_ZN9__gnu_cxx17__normal_iteratorIPKSt4pairINSt7__cxx1112basic_stringIcSt11char_traitsIcESaIcEEEN8usbguard9IPCServer13AccessControl9PrivilegeEESt6vectorISC_SaISC_EEEC2ERKSE_' type='func-type' binding='weak-binding' visibility='default-visibility' is-defined='yes'/>
    <elf-symbol name='_ZN9__gnu_cxx17__normal_iteratorIPKSt4pairINSt7__cxx1112basic_stringIcSt11char_traitsIcESaIcEEEN8usbguard9IPCServer13AccessControl9PrivilegeEESt6vectorISC_SaISC_EEEppEv' type='func-type' binding='weak-binding' visibility='default-visibility' is-defined='yes'/>
    <elf-symbol name='_ZN9__gnu_cxx17__normal_iteratorIPKSt4pairIjNSt7__cxx1112basic_stringIcSt11char_traitsIcESaIcEEEESt6vectorIS8_SaIS8_EEEC1ERKSA_' type='func-type' binding='weak-binding' visibility='default-visibility' alias='_ZN9__gnu_cxx17__normal_iteratorIPKSt4pairIjNSt7__cxx1112basic_stringIcSt11char_traitsIcESaIcEEEESt6vectorIS8_SaIS8_EEEC2ERKSA_' is-defined='yes'/>
    <elf-symbol name='_ZN9__gnu_cxx17__normal_iteratorIPKSt4pairIjNSt7__cxx1112basic_stringIcSt11char_traitsIcESaIcEEEESt6vectorIS8_SaIS8_EEEC2ERKSA_' type='func-type' binding='weak-binding' visibility='default-visibility' is-defined='yes'/>
    <elf-symbol name='_ZN9__gnu_cxx17__normal_iteratorIPKSt4pairIjNSt7__cxx1112basic_stringIcSt11char_traitsIcESaIcEEEESt6vectorIS8_SaIS8_EEEppEv' type='func-type' binding='weak-binding' visibility='default-visibility' is-defined='yes'/>
    <elf-symbol name='_ZN9__gnu_cxx17__normal_iteratorIPKcNSt7__cxx1112basic_stringIcSt11char_traitsIcESaIcEEEEC1ERKS2_' type='func-type' binding='weak-binding' visibility='default-visibility' alias='_ZN9__gnu_cxx17__normal_iteratorIPKcNSt7__cxx1112basic_stringIcSt11char_traitsIcESaIcEEEEC2ERKS2_' is-defined='yes'/>
    <elf-symbol name='_ZN9__gnu_cxx17__normal_iteratorIPKcNSt7__cxx1112basic_stringIcSt11char_traitsIcESaIcEEEEC1IPcvEERKNS0_IT_S8_EE' type='func-type' binding='weak-binding' visibility='default-visibility' is-defined='yes'/>
    <elf-symbol name='_ZN9__gnu_cxx17__normal_iteratorIPKcNSt7__cxx1112basic_stringIcSt11char_traitsIcESaIcEEEEC2ERKS2_' type='func-type' binding='weak-binding' visibility='default-visibility' is-defined='yes'/>
    <elf-symbol name='_ZN9__gnu_cxx17__normal_iteratorIPKcNSt7__cxx1112basic_stringIcSt11char_traitsIcESaIcEEEEC2IPcvEERKNS0_IT_S8_EE' type='func-type' binding='weak-binding' visibility='default-visibility' alias='_ZN9__gnu_cxx17__normal_iteratorIPKcNSt7__cxx1112basic_stringIcSt11char_traitsIcESaIcEEEEC1IPcvEERKNS0_IT_S8_EE' is-defined='yes'/>
    <elf-symbol name='_ZN9__gnu_cxx17__normal_iteratorIPKcNSt7__cxx1112basic_stringIcSt11char_traitsIcESaIcEEEEppEv' type='func-type' binding='weak-binding' visibility='default-visibility' is-defined='yes'/>
    <elf-symbol name='_ZN9__gnu_cxx17__normal_iteratorIPN8usbguard11USBDeviceIDESt6vectorIS2_SaIS2_EEEC1ERKS3_' type='func-type' binding='weak-binding' visibility='default-visibility' alias='_ZN9__gnu_cxx17__normal_iteratorIPN8usbguard11USBDeviceIDESt6vectorIS2_SaIS2_EEEC2ERKS3_' is-defined='yes'/>
    <elf-symbol name='_ZN9__gnu_cxx17__normal_iteratorIPN8usbguard11USBDeviceIDESt6vectorIS2_SaIS2_EEEC2ERKS3_' type='func-type' binding='weak-binding' visibility='default-visibility' is-defined='yes'/>
    <elf-symbol name='_ZN9__gnu_cxx17__normal_iteratorIPN8usbguard11USBDeviceIDESt6vectorIS2_SaIS2_EEEppEv' type='func-type' binding='weak-binding' visibility='default-visibility' is-defined='yes'/>
    <elf-symbol name='_ZN9__gnu_cxx17__normal_iteratorIPN8usbguard13RuleConditionESt6vectorIS2_SaIS2_EEEC1ERKS3_' type='func-type' binding='weak-binding' visibility='default-visibility' alias='_ZN9__gnu_cxx17__normal_iteratorIPN8usbguard13RuleConditionESt6vectorIS2_SaIS2_EEEC2ERKS3_' is-defined='yes'/>
    <elf-symbol name='_ZN9__gnu_cxx17__normal_iteratorIPN8usbguard13RuleConditionESt6vectorIS2_SaIS2_EEEC2ERKS3_' type='func-type' binding='weak-binding' visibility='default-visibility' is-defined='yes'/>
    <elf-symbol name='_ZN9__gnu_cxx17__normal_iteratorIPN8usbguard13RuleConditionESt6vectorIS2_SaIS2_EEEppEv' type='func-type' binding='weak-binding' visibility='default-visibility' is-defined='yes'/>
    <elf-symbol name='_ZN9__gnu_cxx17__normal_iteratorIPN8usbguard13USBDescriptorESt6vectorIS2_SaIS2_EEEC1ERKS3_' type='func-type' binding='weak-binding' visibility='default-visibility' is-defined='yes'/>
    <elf-symbol name='_ZN9__gnu_cxx17__normal_iteratorIPN8usbguard13USBDescriptorESt6vectorIS2_SaIS2_EEEC2ERKS3_' type='func-type' binding='weak-binding' visibility='default-visibility' alias='_ZN9__gnu_cxx17__normal_iteratorIPN8usbguard13USBDescriptorESt6vectorIS2_SaIS2_EEEC1ERKS3_' is-defined='yes'/>
    <elf-symbol name='_ZN9__gnu_cxx17__normal_iteratorIPN8usbguard13USBDescriptorESt6vectorIS2_SaIS2_EEEppEv' type='func-type' binding='weak-binding' visibility='default-visibility' is-defined='yes'/>
    <elf-symbol name='_ZN9__gnu_cxx17__normal_iteratorIPN8usbguard16USBInterfaceTypeESt6vectorIS2_SaIS2_EEEC1ERKS3_' type='func-type' binding='weak-binding' visibility='default-visibility' alias='_ZN9__gnu_cxx17__normal_iteratorIPN8usbguard16USBInterfaceTypeESt6vectorIS2_SaIS2_EEEC2ERKS3_' is-defined='yes'/>
    <elf-symbol name='_ZN9__gnu_cxx17__normal_iteratorIPN8usbguard16USBInterfaceTypeESt6vectorIS2_SaIS2_EEEC2ERKS3_' type='func-type' binding='weak-binding' visibility='default-visibility' is-defined='yes'/>
    <elf-symbol name='_ZN9__gnu_cxx17__normal_iteratorIPN8usbguard4RuleESt6vectorIS2_SaIS2_EEEC1ERKS3_' type='func-type' binding='weak-binding' visibility='default-visibility' alias='_ZN9__gnu_cxx17__normal_iteratorIPN8usbguard4RuleESt6vectorIS2_SaIS2_EEEC2ERKS3_' is-defined='yes'/>
    <elf-symbol name='_ZN9__gnu_cxx17__normal_iteratorIPN8usbguard4RuleESt6vectorIS2_SaIS2_EEEC2ERKS3_' type='func-type' binding='weak-binding' visibility='default-visibility' is-defined='yes'/>
    <elf-symbol name='_ZN9__gnu_cxx17__normal_iteratorIPN8usbguard4RuleESt6vectorIS2_SaIS2_EEEppEv' type='func-type' binding='weak-binding' visibility='default-visibility' is-defined='yes'/>
    <elf-symbol name='_ZN9__gnu_cxx17__normal_iteratorIPNSt7__cxx1112basic_stringIcSt11char_traitsIcESaIcEEESt6vectorIS6_SaIS6_EEEC1ERKS7_' type='func-type' binding='weak-binding' visibility='default-visibility' alias='_ZN9__gnu_cxx17__normal_iteratorIPNSt7__cxx1112basic_stringIcSt11char_traitsIcESaIcEEESt6vectorIS6_SaIS6_EEEC2ERKS7_' is-defined='yes'/>
    <elf-symbol name='_ZN9__gnu_cxx17__normal_iteratorIPNSt7__cxx1112basic_stringIcSt11char_traitsIcESaIcEEESt6vectorIS6_SaIS6_EEEC2ERKS7_' type='func-type' binding='weak-binding' visibility='default-visibility' is-defined='yes'/>
    <elf-symbol name='_ZN9__gnu_cxx17__normal_iteratorIPNSt7__cxx1112basic_stringIcSt11char_traitsIcESaIcEEESt6vectorIS6_SaIS6_EEEmmEv' type='func-type' binding='weak-binding' visibility='default-visibility' is-defined='yes'/>
    <elf-symbol name='_ZN9__gnu_cxx17__normal_iteratorIPNSt7__cxx1112basic_stringIcSt11char_traitsIcESaIcEEESt6vectorIS6_SaIS6_EEEppEv' type='func-type' binding='weak-binding' visibility='default-visibility' is-defined='yes'/>
    <elf-symbol name='_ZN9__gnu_cxx17__normal_iteratorIPSt10shared_ptrIKN8usbguard4RuleEESt6vectorIS5_SaIS5_EEEC1ERKS6_' type='func-type' binding='weak-binding' visibility='default-visibility' alias='_ZN9__gnu_cxx17__normal_iteratorIPSt10shared_ptrIKN8usbguard4RuleEESt6vectorIS5_SaIS5_EEEC2ERKS6_' is-defined='yes'/>
    <elf-symbol name='_ZN9__gnu_cxx17__normal_iteratorIPSt10shared_ptrIKN8usbguard4RuleEESt6vectorIS5_SaIS5_EEEC2ERKS6_' type='func-type' binding='weak-binding' visibility='default-visibility' is-defined='yes'/>
    <elf-symbol name='_ZN9__gnu_cxx17__normal_iteratorIPSt10shared_ptrIKN8usbguard4RuleEESt6vectorIS5_SaIS5_EEEppEv' type='func-type' binding='weak-binding' visibility='default-visibility' is-defined='yes'/>
    <elf-symbol name='_ZN9__gnu_cxx17__normal_iteratorIPSt10shared_ptrIN8usbguard4RuleEESt6vectorIS4_SaIS4_EEEC1ERKS5_' type='func-type' binding='weak-binding' visibility='default-visibility' is-defined='yes'/>
    <elf-symbol name='_ZN9__gnu_cxx17__normal_iteratorIPSt10shared_ptrIN8usbguard4RuleEESt6vectorIS4_SaIS4_EEEC2ERKS5_' type='func-type' binding='weak-binding' visibility='default-visibility' alias='_ZN9__gnu_cxx17__normal_iteratorIPSt10shared_ptrIN8usbguard4RuleEESt6vectorIS4_SaIS4_EEEC1ERKS5_' is-defined='yes'/>
    <elf-symbol name='_ZN9__gnu_cxx17__normal_iteratorIPSt10shared_ptrIN8usbguard4RuleEESt6vectorIS4_SaIS4_EEEppEv' type='func-type' binding='weak-binding' visibility='default-visibility' is-defined='yes'/>
    <elf-symbol name='_ZN9__gnu_cxx17__normal_iteratorIPSt10shared_ptrIN8usbguard6DeviceEESt6vectorIS4_SaIS4_EEEC1ERKS5_' type='func-type' binding='weak-binding' visibility='default-visibility' alias='_ZN9__gnu_cxx17__normal_iteratorIPSt10shared_ptrIN8usbguard6DeviceEESt6vectorIS4_SaIS4_EEEC2ERKS5_' is-defined='yes'/>
    <elf-symbol name='_ZN9__gnu_cxx17__normal_iteratorIPSt10shared_ptrIN8usbguard6DeviceEESt6vectorIS4_SaIS4_EEEC2ERKS5_' type='func-type' binding='weak-binding' visibility='default-visibility' is-defined='yes'/>
    <elf-symbol name='_ZN9__gnu_cxx17__normal_iteratorIPSt10shared_ptrIN8usbguard6DeviceEESt6vectorIS4_SaIS4_EEEppEv' type='func-type' binding='weak-binding' visibility='default-visibility' is-defined='yes'/>
    <elf-symbol name='_ZN9__gnu_cxx17__normal_iteratorIPSt10shared_ptrIN8usbguard7RuleSetEESt6vectorIS4_SaIS4_EEEC1ERKS5_' type='func-type' binding='weak-binding' visibility='default-visibility' alias='_ZN9__gnu_cxx17__normal_iteratorIPSt10shared_ptrIN8usbguard7RuleSetEESt6vectorIS4_SaIS4_EEEC2ERKS5_' is-defined='yes'/>
    <elf-symbol name='_ZN9__gnu_cxx17__normal_iteratorIPSt10shared_ptrIN8usbguard7RuleSetEESt6vectorIS4_SaIS4_EEEC2ERKS5_' type='func-type' binding='weak-binding' visibility='default-visibility' is-defined='yes'/>
    <elf-symbol name='_ZN9__gnu_cxx17__normal_iteratorIPSt10shared_ptrIN8usbguard7RuleSetEESt6vectorIS4_SaIS4_EEEppEv' type='func-type' binding='weak-binding' visibility='default-visibility' is-defined='yes'/>
    <elf-symbol name='_ZN9__gnu_cxx17__normal_iteratorIPSt4pairINSt7__cxx1112basic_stringIcSt11char_traitsIcESaIcEEES7_ESt6vectorIS8_SaIS8_EEEC1ERKS9_' type='func-type' binding='weak-binding' visibility='default-visibility' alias='_ZN9__gnu_cxx17__normal_iteratorIPSt4pairINSt7__cxx1112basic_stringIcSt11char_traitsIcESaIcEEES7_ESt6vectorIS8_SaIS8_EEEC2ERKS9_' is-defined='yes'/>
    <elf-symbol name='_ZN9__gnu_cxx17__normal_iteratorIPSt4pairINSt7__cxx1112basic_stringIcSt11char_traitsIcESaIcEEES7_ESt6vectorIS8_SaIS8_EEEC2ERKS9_' type='func-type' binding='weak-binding' visibility='default-visibility' is-defined='yes'/>
    <elf-symbol name='_ZN9__gnu_cxx17__normal_iteratorIPSt4pairINSt7__cxx1112basic_stringIcSt11char_traitsIcESaIcEEES7_ESt6vectorIS8_SaIS8_EEEmmEv' type='func-type' binding='weak-binding' visibility='default-visibility' is-defined='yes'/>
    <elf-symbol name='_ZN9__gnu_cxx17__normal_iteratorIPSt4pairINSt7__cxx1112basic_stringIcSt11char_traitsIcESaIcEEES7_ESt6vectorIS8_SaIS8_EEEppEv' type='func-type' binding='weak-binding' visibility='default-visibility' is-defined='yes'/>
    <elf-symbol name='_ZN9__gnu_cxx17__normal_iteratorIPSt4pairIhmESt6vectorIS2_SaIS2_EEEC1ERKS3_' type='func-type' binding='weak-binding' visibility='default-visibility' alias='_ZN9__gnu_cxx17__normal_iteratorIPSt4pairIhmESt6vectorIS2_SaIS2_EEEC2ERKS3_' is-defined='yes'/>
    <elf-symbol name='_ZN9__gnu_cxx17__normal_iteratorIPSt4pairIhmESt6vectorIS2_SaIS2_EEEC2ERKS3_' type='func-type' binding='weak-binding' visibility='default-visibility' is-defined='yes'/>
    <elf-symbol name='_ZN9__gnu_cxx17__normal_iteratorIPSt4pairIhmESt6vectorIS2_SaIS2_EEEmmEv' type='func-type' binding='weak-binding' visibility='default-visibility' is-defined='yes'/>
    <elf-symbol name='_ZN9__gnu_cxx17__normal_iteratorIPSt4pairIhmESt6vectorIS2_SaIS2_EEEppEv' type='func-type' binding='weak-binding' visibility='default-visibility' is-defined='yes'/>
    <elf-symbol name='_ZN9__gnu_cxx17__normal_iteratorIPcNSt7__cxx1112basic_stringIcSt11char_traitsIcESaIcEEEEC1ERKS1_' type='func-type' binding='weak-binding' visibility='default-visibility' alias='_ZN9__gnu_cxx17__normal_iteratorIPcNSt7__cxx1112basic_stringIcSt11char_traitsIcESaIcEEEEC2ERKS1_' is-defined='yes'/>
    <elf-symbol name='_ZN9__gnu_cxx17__normal_iteratorIPcNSt7__cxx1112basic_stringIcSt11char_traitsIcESaIcEEEEC2ERKS1_' type='func-type' binding='weak-binding' visibility='default-visibility' is-defined='yes'/>
    <elf-symbol name='_ZN9__gnu_cxx6__stoaIddcJEEET0_PFT_PKT1_PPS3_DpT2_EPKcS5_PmS9_' type='func-type' binding='weak-binding' visibility='default-visibility' is-defined='yes'/>
    <elf-symbol name='_ZN9__gnu_cxxeqIPKN8usbguard4RuleESt6vectorIS2_SaIS2_EEEEbRKNS_17__normal_iteratorIT_T0_EESD_' type='func-type' binding='weak-binding' visibility='default-visibility' is-defined='yes'/>
    <elf-symbol name='_ZN9__gnu_cxxeqIPKNSt7__cxx1112basic_stringIcSt11char_traitsIcESaIcEEESt6vectorIS6_SaIS6_EEEEbRKNS_17__normal_iteratorIT_T0_EESH_' type='func-type' binding='weak-binding' visibility='default-visibility' is-defined='yes'/>
    <elf-symbol name='_ZN9__gnu_cxxeqIPKSt10shared_ptrIN8usbguard4RuleEEPS4_St6vectorIS4_SaIS4_EEEEbRKNS_17__normal_iteratorIT_T1_EERKNSB_IT0_SD_EE' type='func-type' binding='weak-binding' visibility='default-visibility' is-defined='yes'/>
    <elf-symbol name='_ZN9__gnu_cxxeqIPKSt10shared_ptrIN8usbguard7RuleSetEESt6vectorIS4_SaIS4_EEEEbRKNS_17__normal_iteratorIT_T0_EESF_' type='func-type' binding='weak-binding' visibility='default-visibility' is-defined='yes'/>
    <elf-symbol name='_ZN9__gnu_cxxeqIPNSt7__cxx1112basic_stringIcSt11char_traitsIcESaIcEEESt6vectorIS6_SaIS6_EEEEbRKNS_17__normal_iteratorIT_T0_EESG_' type='func-type' binding='weak-binding' visibility='default-visibility' is-defined='yes'/>
    <elf-symbol name='_ZN9__gnu_cxxeqIPSt4pairINSt7__cxx1112basic_stringIcSt11char_traitsIcESaIcEEES7_ESt6vectorIS8_SaIS8_EEEEbRKNS_17__normal_iteratorIT_T0_EESI_' type='func-type' binding='weak-binding' visibility='default-visibility' is-defined='yes'/>
    <elf-symbol name='_ZN9__gnu_cxxeqIPSt4pairIhmESt6vectorIS2_SaIS2_EEEEbRKNS_17__normal_iteratorIT_T0_EESC_' type='func-type' binding='weak-binding' visibility='default-visibility' is-defined='yes'/>
    <elf-symbol name='_ZN9__gnu_cxxgeIPNSt7__cxx1112basic_stringIcSt11char_traitsIcESaIcEEESt6vectorIS6_SaIS6_EEEEbRKNS_17__normal_iteratorIT_T0_EESG_' type='func-type' binding='weak-binding' visibility='default-visibility' is-defined='yes'/>
    <elf-symbol name='_ZN9__gnu_cxxltIPKcNSt7__cxx1112basic_stringIcSt11char_traitsIcESaIcEEEEEbRKNS_17__normal_iteratorIT_T0_EESE_' type='func-type' binding='weak-binding' visibility='default-visibility' is-defined='yes'/>
    <elf-symbol name='_ZN9__gnu_cxxltIPNSt7__cxx1112basic_stringIcSt11char_traitsIcESaIcEEESt6vectorIS6_SaIS6_EEEEbRKNS_17__normal_iteratorIT_T0_EESG_' type='func-type' binding='weak-binding' visibility='default-visibility' is-defined='yes'/>
    <elf-symbol name='_ZN9__gnu_cxxltIPSt4pairINSt7__cxx1112basic_stringIcSt11char_traitsIcESaIcEEES7_ESt6vectorIS8_SaIS8_EEEEbRKNS_17__normal_iteratorIT_T0_EESI_' type='func-type' binding='weak-binding' visibility='default-visibility' is-defined='yes'/>
    <elf-symbol name='_ZN9__gnu_cxxltIPSt4pairIhmESt6vectorIS2_SaIS2_EEEEbRKNS_17__normal_iteratorIT_T0_EESC_' type='func-type' binding='weak-binding' visibility='default-visibility' is-defined='yes'/>
    <elf-symbol name='_ZN9__gnu_cxxmiIPKNSt7__cxx1112basic_stringIcSt11char_traitsIcESaIcEEESt6vectorIS6_SaIS6_EEEENS_17__normal_iteratorIT_T0_E15difference_typeERKSF_SI_' type='func-type' binding='weak-binding' visibility='default-visibility' is-defined='yes'/>
    <elf-symbol name='_ZN9__gnu_cxxmiIPKSt10shared_ptrIN8usbguard4RuleEEPS4_St6vectorIS4_SaIS4_EEEEDTmicldtfp_4baseEcldtfp0_4baseEERKNS_17__normal_iteratorIT_T1_EERKNSC_IT0_SE_EE' type='func-type' binding='weak-binding' visibility='default-visibility' is-defined='yes'/>
    <elf-symbol name='_ZN9__gnu_cxxmiIPKSt10shared_ptrIN8usbguard4RuleEESt6vectorIS4_SaIS4_EEEENS_17__normal_iteratorIT_T0_E15difference_typeERKSD_SG_' type='func-type' binding='weak-binding' visibility='default-visibility' is-defined='yes'/>
    <elf-symbol name='_ZN9__gnu_cxxmiIPKcNSt7__cxx1112basic_stringIcSt11char_traitsIcESaIcEEEEENS_17__normal_iteratorIT_T0_E15difference_typeERKSC_SF_' type='func-type' binding='weak-binding' visibility='default-visibility' is-defined='yes'/>
    <elf-symbol name='_ZN9__gnu_cxxmiIPN8usbguard11USBDeviceIDESt6vectorIS2_SaIS2_EEEENS_17__normal_iteratorIT_T0_E15difference_typeERKSA_SD_' type='func-type' binding='weak-binding' visibility='default-visibility' is-defined='yes'/>
    <elf-symbol name='_ZN9__gnu_cxxmiIPN8usbguard13RuleConditionESt6vectorIS2_SaIS2_EEEENS_17__normal_iteratorIT_T0_E15difference_typeERKSA_SD_' type='func-type' binding='weak-binding' visibility='default-visibility' is-defined='yes'/>
    <elf-symbol name='_ZN9__gnu_cxxmiIPN8usbguard13USBDescriptorESt6vectorIS2_SaIS2_EEEENS_17__normal_iteratorIT_T0_E15difference_typeERKSA_SD_' type='func-type' binding='weak-binding' visibility='default-visibility' is-defined='yes'/>
    <elf-symbol name='_ZN9__gnu_cxxmiIPN8usbguard16USBInterfaceTypeESt6vectorIS2_SaIS2_EEEENS_17__normal_iteratorIT_T0_E15difference_typeERKSA_SD_' type='func-type' binding='weak-binding' visibility='default-visibility' is-defined='yes'/>
    <elf-symbol name='_ZN9__gnu_cxxmiIPN8usbguard4RuleESt6vectorIS2_SaIS2_EEEENS_17__normal_iteratorIT_T0_E15difference_typeERKSA_SD_' type='func-type' binding='weak-binding' visibility='default-visibility' is-defined='yes'/>
    <elf-symbol name='_ZN9__gnu_cxxmiIPNSt7__cxx1112basic_stringIcSt11char_traitsIcESaIcEEESt6vectorIS6_SaIS6_EEEENS_17__normal_iteratorIT_T0_E15difference_typeERKSE_SH_' type='func-type' binding='weak-binding' visibility='default-visibility' is-defined='yes'/>
    <elf-symbol name='_ZN9__gnu_cxxmiIPSt10shared_ptrIKN8usbguard4RuleEESt6vectorIS5_SaIS5_EEEENS_17__normal_iteratorIT_T0_E15difference_typeERKSD_SG_' type='func-type' binding='weak-binding' visibility='default-visibility' is-defined='yes'/>
    <elf-symbol name='_ZN9__gnu_cxxmiIPSt10shared_ptrIN8usbguard4RuleEESt6vectorIS4_SaIS4_EEEENS_17__normal_iteratorIT_T0_E15difference_typeERKSC_SF_' type='func-type' binding='weak-binding' visibility='default-visibility' is-defined='yes'/>
    <elf-symbol name='_ZN9__gnu_cxxmiIPSt10shared_ptrIN8usbguard6DeviceEESt6vectorIS4_SaIS4_EEEENS_17__normal_iteratorIT_T0_E15difference_typeERKSC_SF_' type='func-type' binding='weak-binding' visibility='default-visibility' is-defined='yes'/>
    <elf-symbol name='_ZN9__gnu_cxxmiIPSt4pairINSt7__cxx1112basic_stringIcSt11char_traitsIcESaIcEEES7_ESt6vectorIS8_SaIS8_EEEENS_17__normal_iteratorIT_T0_E15difference_typeERKSG_SJ_' type='func-type' binding='weak-binding' visibility='default-visibility' is-defined='yes'/>
    <elf-symbol name='_ZN9__gnu_cxxmiIPSt4pairIhmESt6vectorIS2_SaIS2_EEEENS_17__normal_iteratorIT_T0_E15difference_typeERKSA_SD_' type='func-type' binding='weak-binding' visibility='default-visibility' is-defined='yes'/>
    <elf-symbol name='_ZN9__gnu_cxxneIPKN8usbguard11USBDeviceIDESt6vectorIS2_SaIS2_EEEEbRKNS_17__normal_iteratorIT_T0_EESD_' type='func-type' binding='weak-binding' visibility='default-visibility' is-defined='yes'/>
    <elf-symbol name='_ZN9__gnu_cxxneIPKN8usbguard13RuleConditionESt6vectorIS2_SaIS2_EEEEbRKNS_17__normal_iteratorIT_T0_EESD_' type='func-type' binding='weak-binding' visibility='default-visibility' is-defined='yes'/>
    <elf-symbol name='_ZN9__gnu_cxxneIPKN8usbguard16USBInterfaceTypeESt6vectorIS2_SaIS2_EEEEbRKNS_17__normal_iteratorIT_T0_EESD_' type='func-type' binding='weak-binding' visibility='default-visibility' is-defined='yes'/>
    <elf-symbol name='_ZN9__gnu_cxxneIPKNSt7__cxx1112basic_stringIcSt11char_traitsIcESaIcEEESt6vectorIS6_SaIS6_EEEEbRKNS_17__normal_iteratorIT_T0_EESH_' type='func-type' binding='weak-binding' visibility='default-visibility' is-defined='yes'/>
    <elf-symbol name='_ZN9__gnu_cxxneIPKSt10shared_ptrIN8usbguard4RuleEESt6vectorIS4_SaIS4_EEEEbRKNS_17__normal_iteratorIT_T0_EESF_' type='func-type' binding='weak-binding' visibility='default-visibility' is-defined='yes'/>
    <elf-symbol name='_ZN9__gnu_cxxneIPKSt10shared_ptrIN8usbguard7RuleSetEESt6vectorIS4_SaIS4_EEEEbRKNS_17__normal_iteratorIT_T0_EESF_' type='func-type' binding='weak-binding' visibility='default-visibility' is-defined='yes'/>
    <elf-symbol name='_ZN9__gnu_cxxneIPKSt4pairINSt7__cxx1112basic_stringIcSt11char_traitsIcESaIcEEEN8usbguard13DeviceManager21AuthorizedDefaultTypeEESt6vectorISB_SaISB_EEEEbRKNS_17__normal_iteratorIT_T0_EESM_' type='func-type' binding='weak-binding' visibility='default-visibility' is-defined='yes'/>
    <elf-symbol name='_ZN9__gnu_cxxneIPKSt4pairINSt7__cxx1112basic_stringIcSt11char_traitsIcESaIcEEEN8usbguard4Rule11SetOperatorEESt6vectorISB_SaISB_EEEEbRKNS_17__normal_iteratorIT_T0_EESM_' type='func-type' binding='weak-binding' visibility='default-visibility' is-defined='yes'/>
    <elf-symbol name='_ZN9__gnu_cxxneIPKSt4pairINSt7__cxx1112basic_stringIcSt11char_traitsIcESaIcEEEN8usbguard4Rule6TargetEESt6vectorISB_SaISB_EEEEbRKNS_17__normal_iteratorIT_T0_EESM_' type='func-type' binding='weak-binding' visibility='default-visibility' is-defined='yes'/>
    <elf-symbol name='_ZN9__gnu_cxxneIPKSt4pairINSt7__cxx1112basic_stringIcSt11char_traitsIcESaIcEEEN8usbguard9IPCServer13AccessControl7SectionEESt6vectorISC_SaISC_EEEEbRKNS_17__normal_iteratorIT_T0_EESN_' type='func-type' binding='weak-binding' visibility='default-visibility' is-defined='yes'/>
    <elf-symbol name='_ZN9__gnu_cxxneIPKSt4pairINSt7__cxx1112basic_stringIcSt11char_traitsIcESaIcEEEN8usbguard9IPCServer13AccessControl9PrivilegeEESt6vectorISC_SaISC_EEEEbRKNS_17__normal_iteratorIT_T0_EESN_' type='func-type' binding='weak-binding' visibility='default-visibility' is-defined='yes'/>
    <elf-symbol name='_ZN9__gnu_cxxneIPKSt4pairIjNSt7__cxx1112basic_stringIcSt11char_traitsIcESaIcEEEESt6vectorIS8_SaIS8_EEEEbRKNS_17__normal_iteratorIT_T0_EESJ_' type='func-type' binding='weak-binding' visibility='default-visibility' is-defined='yes'/>
    <elf-symbol name='_ZN9__gnu_cxxneIPKcNSt7__cxx1112basic_stringIcSt11char_traitsIcESaIcEEEEEbRKNS_17__normal_iteratorIT_T0_EESE_' type='func-type' binding='weak-binding' visibility='default-visibility' is-defined='yes'/>
    <elf-symbol name='_ZN9__gnu_cxxneIPN8usbguard11USBDeviceIDESt6vectorIS2_SaIS2_EEEEbRKNS_17__normal_iteratorIT_T0_EESC_' type='func-type' binding='weak-binding' visibility='default-visibility' is-defined='yes'/>
    <elf-symbol name='_ZN9__gnu_cxxneIPN8usbguard13RuleConditionESt6vectorIS2_SaIS2_EEEEbRKNS_17__normal_iteratorIT_T0_EESC_' type='func-type' binding='weak-binding' visibility='default-visibility' is-defined='yes'/>
    <elf-symbol name='_ZN9__gnu_cxxneIPN8usbguard13USBDescriptorESt6vectorIS2_SaIS2_EEEEbRKNS_17__normal_iteratorIT_T0_EESC_' type='func-type' binding='weak-binding' visibility='default-visibility' is-defined='yes'/>
    <elf-symbol name='_ZN9__gnu_cxxneIPN8usbguard4RuleESt6vectorIS2_SaIS2_EEEEbRKNS_17__normal_iteratorIT_T0_EESC_' type='func-type' binding='weak-binding' visibility='default-visibility' is-defined='yes'/>
    <elf-symbol name='_ZN9__gnu_cxxneIPNSt7__cxx1112basic_stringIcSt11char_traitsIcESaIcEEESt6vectorIS6_SaIS6_EEEEbRKNS_17__normal_iteratorIT_T0_EESG_' type='func-type' binding='weak-binding' visibility='default-visibility' is-defined='yes'/>
    <elf-symbol name='_ZN9__gnu_cxxneIPSt10shared_ptrIKN8usbguard4RuleEESt6vectorIS5_SaIS5_EEEEbRKNS_17__normal_iteratorIT_T0_EESF_' type='func-type' binding='weak-binding' visibility='default-visibility' is-defined='yes'/>
    <elf-symbol name='_ZN9__gnu_cxxneIPSt10shared_ptrIN8usbguard4RuleEESt6vectorIS4_SaIS4_EEEEbRKNS_17__normal_iteratorIT_T0_EESE_' type='func-type' binding='weak-binding' visibility='default-visibility' is-defined='yes'/>
    <elf-symbol name='_ZN9__gnu_cxxneIPSt10shared_ptrIN8usbguard6DeviceEESt6vectorIS4_SaIS4_EEEEbRKNS_17__normal_iteratorIT_T0_EESE_' type='func-type' binding='weak-binding' visibility='default-visibility' is-defined='yes'/>
    <elf-symbol name='_ZN9__gnu_cxxneIPSt10shared_ptrIN8usbguard7RuleSetEESt6vectorIS4_SaIS4_EEEEbRKNS_17__normal_iteratorIT_T0_EESE_' type='func-type' binding='weak-binding' visibility='default-visibility' is-defined='yes'/>
    <elf-symbol name='_ZN9__gnu_cxxneIPSt4pairINSt7__cxx1112basic_stringIcSt11char_traitsIcESaIcEEES7_ESt6vectorIS8_SaIS8_EEEEbRKNS_17__normal_iteratorIT_T0_EESI_' type='func-type' binding='weak-binding' visibility='default-visibility' is-defined='yes'/>
    <elf-symbol name='_ZN9__gnu_cxxneIPSt4pairIhmESt6vectorIS2_SaIS2_EEEEbRKNS_17__normal_iteratorIT_T0_EESC_' type='func-type' binding='weak-binding' visibility='default-visibility' is-defined='yes'/>
    <elf-symbol name='_ZNK8usbguard10AuditEvent4keysB5cxx11Ev' type='func-type' binding='global-binding' visibility='default-visibility' is-defined='yes'/>
    <elf-symbol name='_ZNK8usbguard10AuditEvent8identityEv' type='func-type' binding='global-binding' visibility='default-visibility' is-defined='yes'/>
    <elf-symbol name='_ZNK8usbguard10ConfigFile15getSettingValueERKNSt7__cxx1112basic_stringIcSt11char_traitsIcESaIcEEE' type='func-type' binding='global-binding' visibility='default-visibility' is-defined='yes'/>
    <elf-symbol name='_ZNK8usbguard10ConfigFile15hasSettingValueERKNSt7__cxx1112basic_stringIcSt11char_traitsIcESaIcEEE' type='func-type' binding='global-binding' visibility='default-visibility' is-defined='yes'/>
    <elf-symbol name='_ZNK8usbguard11USBDeviceID10isSubsetOfERKS0_' type='func-type' binding='global-binding' visibility='default-visibility' is-defined='yes'/>
    <elf-symbol name='_ZNK8usbguard11USBDeviceID11getVendorIDB5cxx11Ev' type='func-type' binding='global-binding' visibility='default-visibility' is-defined='yes'/>
    <elf-symbol name='_ZNK8usbguard11USBDeviceID12getProductIDB5cxx11Ev' type='func-type' binding='global-binding' visibility='default-visibility' is-defined='yes'/>
    <elf-symbol name='_ZNK8usbguard11USBDeviceID12toRuleStringB5cxx11Ev' type='func-type' binding='global-binding' visibility='default-visibility' is-defined='yes'/>
    <elf-symbol name='_ZNK8usbguard11USBDeviceID8toStringB5cxx11Ev' type='func-type' binding='global-binding' visibility='default-visibility' is-defined='yes'/>
    <elf-symbol name='_ZNK8usbguard13AuditIdentity3pidEv' type='func-type' binding='global-binding' visibility='default-visibility' is-defined='yes'/>
    <elf-symbol name='_ZNK8usbguard13AuditIdentity3uidEv' type='func-type' binding='global-binding' visibility='default-visibility' is-defined='yes'/>
    <elf-symbol name='_ZNK8usbguard13AuditIdentity8toStringB5cxx11Ev' type='func-type' binding='global-binding' visibility='default-visibility' is-defined='yes'/>
    <elf-symbol name='_ZNK8usbguard13DeviceManager20getAuthorizedDefaultEv' type='func-type' binding='global-binding' visibility='default-visibility' is-defined='yes'/>
    <elf-symbol name='_ZNK8usbguard13DeviceManager31getRestoreControllerDeviceStateEv' type='func-type' binding='global-binding' visibility='default-visibility' is-defined='yes'/>
    <elf-symbol name='_ZNK8usbguard13RuleCondition12toRuleStringB5cxx11Ev' type='func-type' binding='global-binding' visibility='default-visibility' is-defined='yes'/>
    <elf-symbol name='_ZNK8usbguard16USBInterfaceType10typeStringB5cxx11Ev' type='func-type' binding='global-binding' visibility='default-visibility' is-defined='yes'/>
    <elf-symbol name='_ZNK8usbguard16USBInterfaceType12toRuleStringB5cxx11Ev' type='func-type' binding='global-binding' visibility='default-visibility' is-defined='yes'/>
    <elf-symbol name='_ZNK8usbguard16USBInterfaceType9appliesToERKS0_' type='func-type' binding='global-binding' visibility='default-visibility' is-defined='yes'/>
    <elf-symbol name='_ZNK8usbguard16USBInterfaceTypeeqERKS0_' type='func-type' binding='global-binding' visibility='default-visibility' is-defined='yes'/>
    <elf-symbol name='_ZNK8usbguard17RuleConditionBase10identifierB5cxx11Ev' type='func-type' binding='global-binding' visibility='default-visibility' is-defined='yes'/>
    <elf-symbol name='_ZNK8usbguard17RuleConditionBase12hasParameterEv' type='func-type' binding='global-binding' visibility='default-visibility' is-defined='yes'/>
    <elf-symbol name='_ZNK8usbguard17RuleConditionBase12toRuleStringB5cxx11Ev' type='func-type' binding='global-binding' visibility='default-visibility' is-defined='yes'/>
    <elf-symbol name='_ZNK8usbguard17RuleConditionBase8toStringB5cxx11Ev' type='func-type' binding='global-binding' visibility='default-visibility' is-defined='yes'/>
    <elf-symbol name='_ZNK8usbguard17RuleConditionBase9isNegatedEv' type='func-type' binding='global-binding' visibility='default-visibility' is-defined='yes'/>
    <elf-symbol name='_ZNK8usbguard17RuleConditionBase9parameterB5cxx11Ev' type='func-type' binding='global-binding' visibility='default-visibility' is-defined='yes'/>
    <elf-symbol name='_ZNK8usbguard19USBDescriptorParser13getDescriptorEh' type='func-type' binding='global-binding' visibility='default-visibility' is-defined='yes'/>
    <elf-symbol name='_ZNK8usbguard19USBDescriptorParser14haveDescriptorEh' type='func-type' binding='global-binding' visibility='default-visibility' is-defined='yes'/>
    <elf-symbol name='_ZNK8usbguard19USBDescriptorParser19getDescriptorCountsEv' type='func-type' binding='global-binding' visibility='default-visibility' is-defined='yes'/>
    <elf-symbol name='_ZNK8usbguard4Rule10getViaPortB5cxx11Ev' type='func-type' binding='global-binding' visibility='default-visibility' is-defined='yes'/>
    <elf-symbol name='_ZNK8usbguard4Rule10isImplicitEv' type='func-type' binding='global-binding' visibility='default-visibility' is-defined='yes'/>
    <elf-symbol name='_ZNK8usbguard4Rule11getDeviceIDEv' type='func-type' binding='global-binding' visibility='default-visibility' is-defined='yes'/>
    <elf-symbol name='_ZNK8usbguard4Rule13attributeHashB5cxx11Ev' type='func-type' binding='global-binding' visibility='default-visibility' is-defined='yes'/>
    <elf-symbol name='_ZNK8usbguard4Rule13attributeNameB5cxx11Ev' type='func-type' binding='global-binding' visibility='default-visibility' is-defined='yes'/>
    <elf-symbol name='_ZNK8usbguard4Rule13getParentHashB5cxx11Ev' type='func-type' binding='global-binding' visibility='default-visibility' is-defined='yes'/>
    <elf-symbol name='_ZNK8usbguard4Rule14attributeLabelB5cxx11Ev' type='func-type' binding='global-binding' visibility='default-visibility' is-defined='yes'/>
    <elf-symbol name='_ZNK8usbguard4Rule15attributeSerialB5cxx11Ev' type='func-type' binding='global-binding' visibility='default-visibility' is-defined='yes'/>
    <elf-symbol name='_ZNK8usbguard4Rule16attributeViaPortB5cxx11Ev' type='func-type' binding='global-binding' visibility='default-visibility' is-defined='yes'/>
    <elf-symbol name='_ZNK8usbguard4Rule17attributeDeviceIDEv' type='func-type' binding='global-binding' visibility='default-visibility' is-defined='yes'/>
    <elf-symbol name='_ZNK8usbguard4Rule18getWithConnectTypeB5cxx11Ev' type='func-type' binding='global-binding' visibility='default-visibility' is-defined='yes'/>
    <elf-symbol name='_ZNK8usbguard4Rule19attributeConditionsEv' type='func-type' binding='global-binding' visibility='default-visibility' is-defined='yes'/>
    <elf-symbol name='_ZNK8usbguard4Rule19attributeParentHashB5cxx11Ev' type='func-type' binding='global-binding' visibility='default-visibility' is-defined='yes'/>
    <elf-symbol name='_ZNK8usbguard4Rule22attributeWithInterfaceEv' type='func-type' binding='global-binding' visibility='default-visibility' is-defined='yes'/>
    <elf-symbol name='_ZNK8usbguard4Rule24attributeWithConnectTypeB5cxx11Ev' type='func-type' binding='global-binding' visibility='default-visibility' is-defined='yes'/>
    <elf-symbol name='_ZNK8usbguard4Rule7getHashB5cxx11Ev' type='func-type' binding='global-binding' visibility='default-visibility' is-defined='yes'/>
    <elf-symbol name='_ZNK8usbguard4Rule7getNameB5cxx11Ev' type='func-type' binding='global-binding' visibility='default-visibility' is-defined='yes'/>
    <elf-symbol name='_ZNK8usbguard4Rule8getLabelB5cxx11Ev' type='func-type' binding='global-binding' visibility='default-visibility' is-defined='yes'/>
    <elf-symbol name='_ZNK8usbguard4Rule8internalEv' type='func-type' binding='global-binding' visibility='default-visibility' is-defined='yes'/>
    <elf-symbol name='_ZNK8usbguard4Rule8toStringB5cxx11Ebb' type='func-type' binding='global-binding' visibility='default-visibility' is-defined='yes'/>
    <elf-symbol name='_ZNK8usbguard4Rule9AttributeINS_11USBDeviceIDEE11setOperatorEv' type='func-type' binding='weak-binding' visibility='default-visibility' is-defined='yes'/>
    <elf-symbol name='_ZNK8usbguard4Rule9AttributeINS_11USBDeviceIDEE12toRuleStringB5cxx11Ev' type='func-type' binding='weak-binding' visibility='default-visibility' is-defined='yes'/>
    <elf-symbol name='_ZNK8usbguard4Rule9AttributeINS_11USBDeviceIDEE13setSolveAllOfERKSt6vectorIS2_SaIS2_EES8_' type='func-type' binding='weak-binding' visibility='default-visibility' is-defined='yes'/>
    <elf-symbol name='_ZNK8usbguard4Rule9AttributeINS_11USBDeviceIDEE13setSolveOneOfERKSt6vectorIS2_SaIS2_EES8_' type='func-type' binding='weak-binding' visibility='default-visibility' is-defined='yes'/>
    <elf-symbol name='_ZNK8usbguard4Rule9AttributeINS_11USBDeviceIDEE14setSolveEqualsERKSt6vectorIS2_SaIS2_EES8_' type='func-type' binding='weak-binding' visibility='default-visibility' is-defined='yes'/>
    <elf-symbol name='_ZNK8usbguard4Rule9AttributeINS_11USBDeviceIDEE14setSolveNoneOfERKSt6vectorIS2_SaIS2_EES8_' type='func-type' binding='weak-binding' visibility='default-visibility' is-defined='yes'/>
    <elf-symbol name='_ZNK8usbguard4Rule9AttributeINS_11USBDeviceIDEE16setSolveMatchAllERKSt6vectorIS2_SaIS2_EES8_' type='func-type' binding='weak-binding' visibility='default-visibility' is-defined='yes'/>
    <elf-symbol name='_ZNK8usbguard4Rule9AttributeINS_11USBDeviceIDEE21setSolveEqualsOrderedERKSt6vectorIS2_SaIS2_EES8_' type='func-type' binding='weak-binding' visibility='default-visibility' is-defined='yes'/>
    <elf-symbol name='_ZNK8usbguard4Rule9AttributeINS_11USBDeviceIDEE3getEv' type='func-type' binding='weak-binding' visibility='default-visibility' is-defined='yes'/>
    <elf-symbol name='_ZNK8usbguard4Rule9AttributeINS_11USBDeviceIDEE5countEv' type='func-type' binding='weak-binding' visibility='default-visibility' is-defined='yes'/>
    <elf-symbol name='_ZNK8usbguard4Rule9AttributeINS_11USBDeviceIDEE5emptyEv' type='func-type' binding='weak-binding' visibility='default-visibility' is-defined='yes'/>
    <elf-symbol name='_ZNK8usbguard4Rule9AttributeINS_11USBDeviceIDEE7getNameB5cxx11Ev' type='func-type' binding='weak-binding' visibility='default-visibility' is-defined='yes'/>
    <elf-symbol name='_ZNK8usbguard4Rule9AttributeINS_11USBDeviceIDEE9appliesToERKS3_' type='func-type' binding='weak-binding' visibility='default-visibility' is-defined='yes'/>
    <elf-symbol name='_ZNK8usbguard4Rule9AttributeINS_13RuleConditionEE11setOperatorEv' type='func-type' binding='weak-binding' visibility='default-visibility' is-defined='yes'/>
    <elf-symbol name='_ZNK8usbguard4Rule9AttributeINS_13RuleConditionEE12toRuleStringB5cxx11Ev' type='func-type' binding='weak-binding' visibility='default-visibility' is-defined='yes'/>
    <elf-symbol name='_ZNK8usbguard4Rule9AttributeINS_13RuleConditionEE5countEv' type='func-type' binding='weak-binding' visibility='default-visibility' is-defined='yes'/>
    <elf-symbol name='_ZNK8usbguard4Rule9AttributeINS_13RuleConditionEE5emptyEv' type='func-type' binding='weak-binding' visibility='default-visibility' is-defined='yes'/>
    <elf-symbol name='_ZNK8usbguard4Rule9AttributeINS_13RuleConditionEE7getNameB5cxx11Ev' type='func-type' binding='weak-binding' visibility='default-visibility' is-defined='yes'/>
    <elf-symbol name='_ZNK8usbguard4Rule9AttributeINS_16USBInterfaceTypeEE11setOperatorEv' type='func-type' binding='weak-binding' visibility='default-visibility' is-defined='yes'/>
    <elf-symbol name='_ZNK8usbguard4Rule9AttributeINS_16USBInterfaceTypeEE12toRuleStringB5cxx11Ev' type='func-type' binding='weak-binding' visibility='default-visibility' is-defined='yes'/>
    <elf-symbol name='_ZNK8usbguard4Rule9AttributeINS_16USBInterfaceTypeEE13setSolveAllOfERKSt6vectorIS2_SaIS2_EES8_' type='func-type' binding='weak-binding' visibility='default-visibility' is-defined='yes'/>
    <elf-symbol name='_ZNK8usbguard4Rule9AttributeINS_16USBInterfaceTypeEE13setSolveOneOfERKSt6vectorIS2_SaIS2_EES8_' type='func-type' binding='weak-binding' visibility='default-visibility' is-defined='yes'/>
    <elf-symbol name='_ZNK8usbguard4Rule9AttributeINS_16USBInterfaceTypeEE14setSolveEqualsERKSt6vectorIS2_SaIS2_EES8_' type='func-type' binding='weak-binding' visibility='default-visibility' is-defined='yes'/>
    <elf-symbol name='_ZNK8usbguard4Rule9AttributeINS_16USBInterfaceTypeEE14setSolveNoneOfERKSt6vectorIS2_SaIS2_EES8_' type='func-type' binding='weak-binding' visibility='default-visibility' is-defined='yes'/>
    <elf-symbol name='_ZNK8usbguard4Rule9AttributeINS_16USBInterfaceTypeEE16setSolveMatchAllERKSt6vectorIS2_SaIS2_EES8_' type='func-type' binding='weak-binding' visibility='default-visibility' is-defined='yes'/>
    <elf-symbol name='_ZNK8usbguard4Rule9AttributeINS_16USBInterfaceTypeEE21setSolveEqualsOrderedERKSt6vectorIS2_SaIS2_EES8_' type='func-type' binding='weak-binding' visibility='default-visibility' is-defined='yes'/>
    <elf-symbol name='_ZNK8usbguard4Rule9AttributeINS_16USBInterfaceTypeEE5countEv' type='func-type' binding='weak-binding' visibility='default-visibility' is-defined='yes'/>
    <elf-symbol name='_ZNK8usbguard4Rule9AttributeINS_16USBInterfaceTypeEE5emptyEv' type='func-type' binding='weak-binding' visibility='default-visibility' is-defined='yes'/>
    <elf-symbol name='_ZNK8usbguard4Rule9AttributeINS_16USBInterfaceTypeEE7getNameB5cxx11Ev' type='func-type' binding='weak-binding' visibility='default-visibility' is-defined='yes'/>
    <elf-symbol name='_ZNK8usbguard4Rule9AttributeINS_16USBInterfaceTypeEE9appliesToERKS3_' type='func-type' binding='weak-binding' visibility='default-visibility' is-defined='yes'/>
    <elf-symbol name='_ZNK8usbguard4Rule9AttributeINSt7__cxx1112basic_stringIcSt11char_traitsIcESaIcEEEE11setOperatorEv' type='func-type' binding='weak-binding' visibility='default-visibility' is-defined='yes'/>
    <elf-symbol name='_ZNK8usbguard4Rule9AttributeINSt7__cxx1112basic_stringIcSt11char_traitsIcESaIcEEEE12toRuleStringEv' type='func-type' binding='weak-binding' visibility='default-visibility' is-defined='yes'/>
    <elf-symbol name='_ZNK8usbguard4Rule9AttributeINSt7__cxx1112basic_stringIcSt11char_traitsIcESaIcEEEE13setSolveAllOfERKSt6vectorIS7_SaIS7_EESD_' type='func-type' binding='weak-binding' visibility='default-visibility' is-defined='yes'/>
    <elf-symbol name='_ZNK8usbguard4Rule9AttributeINSt7__cxx1112basic_stringIcSt11char_traitsIcESaIcEEEE13setSolveOneOfERKSt6vectorIS7_SaIS7_EESD_' type='func-type' binding='weak-binding' visibility='default-visibility' is-defined='yes'/>
    <elf-symbol name='_ZNK8usbguard4Rule9AttributeINSt7__cxx1112basic_stringIcSt11char_traitsIcESaIcEEEE14setSolveEqualsERKSt6vectorIS7_SaIS7_EESD_' type='func-type' binding='weak-binding' visibility='default-visibility' is-defined='yes'/>
    <elf-symbol name='_ZNK8usbguard4Rule9AttributeINSt7__cxx1112basic_stringIcSt11char_traitsIcESaIcEEEE14setSolveNoneOfERKSt6vectorIS7_SaIS7_EESD_' type='func-type' binding='weak-binding' visibility='default-visibility' is-defined='yes'/>
    <elf-symbol name='_ZNK8usbguard4Rule9AttributeINSt7__cxx1112basic_stringIcSt11char_traitsIcESaIcEEEE16setSolveMatchAllERKSt6vectorIS7_SaIS7_EESD_' type='func-type' binding='weak-binding' visibility='default-visibility' is-defined='yes'/>
    <elf-symbol name='_ZNK8usbguard4Rule9AttributeINSt7__cxx1112basic_stringIcSt11char_traitsIcESaIcEEEE21setSolveEqualsOrderedERKSt6vectorIS7_SaIS7_EESD_' type='func-type' binding='weak-binding' visibility='default-visibility' is-defined='yes'/>
    <elf-symbol name='_ZNK8usbguard4Rule9AttributeINSt7__cxx1112basic_stringIcSt11char_traitsIcESaIcEEEE3getEv' type='func-type' binding='weak-binding' visibility='default-visibility' is-defined='yes'/>
    <elf-symbol name='_ZNK8usbguard4Rule9AttributeINSt7__cxx1112basic_stringIcSt11char_traitsIcESaIcEEEE5countEv' type='func-type' binding='weak-binding' visibility='default-visibility' is-defined='yes'/>
    <elf-symbol name='_ZNK8usbguard4Rule9AttributeINSt7__cxx1112basic_stringIcSt11char_traitsIcESaIcEEEE5emptyEv' type='func-type' binding='weak-binding' visibility='default-visibility' is-defined='yes'/>
    <elf-symbol name='_ZNK8usbguard4Rule9AttributeINSt7__cxx1112basic_stringIcSt11char_traitsIcESaIcEEEE7getNameEv' type='func-type' binding='weak-binding' visibility='default-visibility' is-defined='yes'/>
    <elf-symbol name='_ZNK8usbguard4Rule9AttributeINSt7__cxx1112basic_stringIcSt11char_traitsIcESaIcEEEE9appliesToERKS8_' type='func-type' binding='weak-binding' visibility='default-visibility' is-defined='yes'/>
    <elf-symbol name='_ZNK8usbguard4Rule9appliesToERKS0_' type='func-type' binding='global-binding' visibility='default-visibility' is-defined='yes'/>
    <elf-symbol name='_ZNK8usbguard4Rule9appliesToESt10shared_ptrIKS0_E' type='func-type' binding='global-binding' visibility='default-visibility' is-defined='yes'/>
    <elf-symbol name='_ZNK8usbguard4Rule9getRuleIDEv' type='func-type' binding='global-binding' visibility='default-visibility' is-defined='yes'/>
    <elf-symbol name='_ZNK8usbguard4Rule9getSerialB5cxx11Ev' type='func-type' binding='global-binding' visibility='default-visibility' is-defined='yes'/>
    <elf-symbol name='_ZNK8usbguard4Rule9getTargetEv' type='func-type' binding='global-binding' visibility='default-visibility' is-defined='yes'/>
    <elf-symbol name='_ZNK8usbguard4RulecvbEv' type='func-type' binding='global-binding' visibility='default-visibility' is-defined='yes'/>
    <elf-symbol name='_ZNK8usbguard6Device10hashStringERKNSt7__cxx1112basic_stringIcSt11char_traitsIcESaIcEEE' type='func-type' binding='global-binding' visibility='default-visibility' is-defined='yes'/>
    <elf-symbol name='_ZNK8usbguard6Device11getDeviceIDEv' type='func-type' binding='global-binding' visibility='default-visibility' is-defined='yes'/>
    <elf-symbol name='_ZNK8usbguard6Device11getParentIDEv' type='func-type' binding='global-binding' visibility='default-visibility' is-defined='yes'/>
    <elf-symbol name='_ZNK8usbguard6Device14getConnectTypeB5cxx11Ev' type='func-type' binding='global-binding' visibility='default-visibility' is-defined='yes'/>
    <elf-symbol name='_ZNK8usbguard6Device17getInterfaceTypesEv' type='func-type' binding='global-binding' visibility='default-visibility' is-defined='yes'/>
    <elf-symbol name='_ZNK8usbguard6Device5getIDEv' type='func-type' binding='global-binding' visibility='default-visibility' is-defined='yes'/>
    <elf-symbol name='_ZNK8usbguard6Device7getHashB5cxx11Ev' type='func-type' binding='global-binding' visibility='default-visibility' is-defined='yes'/>
    <elf-symbol name='_ZNK8usbguard6Device7getNameB5cxx11Ev' type='func-type' binding='global-binding' visibility='default-visibility' is-defined='yes'/>
    <elf-symbol name='_ZNK8usbguard6Device7getPortB5cxx11Ev' type='func-type' binding='global-binding' visibility='default-visibility' is-defined='yes'/>
    <elf-symbol name='_ZNK8usbguard6Device7managerEv' type='func-type' binding='global-binding' visibility='default-visibility' is-defined='yes'/>
    <elf-symbol name='_ZNK8usbguard6Device9getSerialB5cxx11Ev' type='func-type' binding='global-binding' visibility='default-visibility' is-defined='yes'/>
    <elf-symbol name='_ZNK8usbguard6Device9getTargetEv' type='func-type' binding='global-binding' visibility='default-visibility' is-defined='yes'/>
    <elf-symbol name='_ZNK8usbguard6Logger4lockEv' type='func-type' binding='global-binding' visibility='default-visibility' is-defined='yes'/>
    <elf-symbol name='_ZNK8usbguard6Logger9isEnabledENS_9LogStream5LevelE' type='func-type' binding='global-binding' visibility='default-visibility' is-defined='yes'/>
    <elf-symbol name='_ZNK8usbguard6Policy16getDefaultTargetEv' type='func-type' binding='global-binding' visibility='default-visibility' is-defined='yes'/>
    <elf-symbol name='_ZNK8usbguard6Policy20getFirstMatchingRuleESt10shared_ptrIKNS_4RuleEEj' type='func-type' binding='global-binding' visibility='default-visibility' is-defined='yes'/>
    <elf-symbol name='_ZNK8usbguard7LogSink4nameB5cxx11Ev' type='func-type' binding='global-binding' visibility='default-visibility' is-defined='yes'/>
    <elf-symbol name='_ZNK8usbguard7RuleSet16getDefaultTargetEv' type='func-type' binding='global-binding' visibility='default-visibility' is-defined='yes'/>
    <elf-symbol name='_ZNK8usbguard7RuleSet20getFirstMatchingRuleESt10shared_ptrIKNS_4RuleEEj' type='func-type' binding='global-binding' visibility='default-visibility' is-defined='yes'/>
    <elf-symbol name='_ZNK8usbguard7RuleSet9serializeERSo' type='func-type' binding='global-binding' visibility='default-visibility' is-defined='yes'/>
    <elf-symbol name='_ZNK8usbguard9Exception4whatEv' type='func-type' binding='weak-binding' visibility='default-visibility' is-defined='yes'/>
    <elf-symbol name='_ZNK8usbguard9Exception6objectB5cxx11Ev' type='func-type' binding='weak-binding' visibility='default-visibility' is-defined='yes'/>
    <elf-symbol name='_ZNK8usbguard9Exception6reasonB5cxx11Ev' type='func-type' binding='weak-binding' visibility='default-visibility' is-defined='yes'/>
    <elf-symbol name='_ZNK8usbguard9Exception7contextB5cxx11Ev' type='func-type' binding='weak-binding' visibility='default-visibility' is-defined='yes'/>
    <elf-symbol name='_ZNK8usbguard9Exception7messageB5cxx11Ev' type='func-type' binding='weak-binding' visibility='default-visibility' is-defined='yes'/>
    <elf-symbol name='_ZNK8usbguard9IPCClient11isConnectedEv' type='func-type' binding='global-binding' visibility='default-visibility' is-defined='yes'/>
    <elf-symbol name='_ZNK8usbguard9IPCServer13AccessControl11SectionHashclENS1_7SectionE' type='func-type' binding='weak-binding' visibility='default-visibility' is-defined='yes'/>
    <elf-symbol name='_ZNK8usbguard9IPCServer13AccessControl12hasPrivilegeENS1_7SectionENS1_9PrivilegeE' type='func-type' binding='global-binding' visibility='default-visibility' is-defined='yes'/>
    <elf-symbol name='_ZNK8usbguard9IPCServer13AccessControl4saveERSo' type='func-type' binding='global-binding' visibility='default-visibility' is-defined='yes'/>
    <elf-symbol name='_ZNK8usbguard9IPCServer13AccessControl7ac_maskENS1_7SectionE' type='func-type' binding='global-binding' visibility='default-visibility' is-defined='yes'/>
    <elf-symbol name='_ZNK9__gnu_cxx17__normal_iteratorIPKN8usbguard11USBDeviceIDESt6vectorIS2_SaIS2_EEE4baseEv' type='func-type' binding='weak-binding' visibility='default-visibility' is-defined='yes'/>
    <elf-symbol name='_ZNK9__gnu_cxx17__normal_iteratorIPKN8usbguard11USBDeviceIDESt6vectorIS2_SaIS2_EEEdeEv' type='func-type' binding='weak-binding' visibility='default-visibility' is-defined='yes'/>
    <elf-symbol name='_ZNK9__gnu_cxx17__normal_iteratorIPKN8usbguard13RuleConditionESt6vectorIS2_SaIS2_EEE4baseEv' type='func-type' binding='weak-binding' visibility='default-visibility' is-defined='yes'/>
    <elf-symbol name='_ZNK9__gnu_cxx17__normal_iteratorIPKN8usbguard13RuleConditionESt6vectorIS2_SaIS2_EEEdeEv' type='func-type' binding='weak-binding' visibility='default-visibility' is-defined='yes'/>
    <elf-symbol name='_ZNK9__gnu_cxx17__normal_iteratorIPKN8usbguard16USBInterfaceTypeESt6vectorIS2_SaIS2_EEE4baseEv' type='func-type' binding='weak-binding' visibility='default-visibility' is-defined='yes'/>
    <elf-symbol name='_ZNK9__gnu_cxx17__normal_iteratorIPKN8usbguard16USBInterfaceTypeESt6vectorIS2_SaIS2_EEEdeEv' type='func-type' binding='weak-binding' visibility='default-visibility' is-defined='yes'/>
    <elf-symbol name='_ZNK9__gnu_cxx17__normal_iteratorIPKN8usbguard4RuleESt6vectorIS2_SaIS2_EEE4baseEv' type='func-type' binding='weak-binding' visibility='default-visibility' is-defined='yes'/>
    <elf-symbol name='_ZNK9__gnu_cxx17__normal_iteratorIPKNSt7__cxx1112basic_stringIcSt11char_traitsIcESaIcEEESt6vectorIS6_SaIS6_EEE4baseEv' type='func-type' binding='weak-binding' visibility='default-visibility' is-defined='yes'/>
    <elf-symbol name='_ZNK9__gnu_cxx17__normal_iteratorIPKNSt7__cxx1112basic_stringIcSt11char_traitsIcESaIcEEESt6vectorIS6_SaIS6_EEEdeEv' type='func-type' binding='weak-binding' visibility='default-visibility' is-defined='yes'/>
    <elf-symbol name='_ZNK9__gnu_cxx17__normal_iteratorIPKNSt7__cxx1112basic_stringIcSt11char_traitsIcESaIcEEESt6vectorIS6_SaIS6_EEEplEl' type='func-type' binding='weak-binding' visibility='default-visibility' is-defined='yes'/>
    <elf-symbol name='_ZNK9__gnu_cxx17__normal_iteratorIPKSt10shared_ptrIN8usbguard4RuleEESt6vectorIS4_SaIS4_EEE4baseEv' type='func-type' binding='weak-binding' visibility='default-visibility' is-defined='yes'/>
    <elf-symbol name='_ZNK9__gnu_cxx17__normal_iteratorIPKSt10shared_ptrIN8usbguard4RuleEESt6vectorIS4_SaIS4_EEEdeEv' type='func-type' binding='weak-binding' visibility='default-visibility' is-defined='yes'/>
    <elf-symbol name='_ZNK9__gnu_cxx17__normal_iteratorIPKSt10shared_ptrIN8usbguard7RuleSetEESt6vectorIS4_SaIS4_EEE4baseEv' type='func-type' binding='weak-binding' visibility='default-visibility' is-defined='yes'/>
    <elf-symbol name='_ZNK9__gnu_cxx17__normal_iteratorIPKSt10shared_ptrIN8usbguard7RuleSetEESt6vectorIS4_SaIS4_EEEdeEv' type='func-type' binding='weak-binding' visibility='default-visibility' is-defined='yes'/>
    <elf-symbol name='_ZNK9__gnu_cxx17__normal_iteratorIPKSt4pairINSt7__cxx1112basic_stringIcSt11char_traitsIcESaIcEEEN8usbguard13DeviceManager21AuthorizedDefaultTypeEESt6vectorISB_SaISB_EEE4baseEv' type='func-type' binding='weak-binding' visibility='default-visibility' is-defined='yes'/>
    <elf-symbol name='_ZNK9__gnu_cxx17__normal_iteratorIPKSt4pairINSt7__cxx1112basic_stringIcSt11char_traitsIcESaIcEEEN8usbguard13DeviceManager21AuthorizedDefaultTypeEESt6vectorISB_SaISB_EEEdeEv' type='func-type' binding='weak-binding' visibility='default-visibility' is-defined='yes'/>
    <elf-symbol name='_ZNK9__gnu_cxx17__normal_iteratorIPKSt4pairINSt7__cxx1112basic_stringIcSt11char_traitsIcESaIcEEEN8usbguard4Rule11SetOperatorEESt6vectorISB_SaISB_EEE4baseEv' type='func-type' binding='weak-binding' visibility='default-visibility' is-defined='yes'/>
    <elf-symbol name='_ZNK9__gnu_cxx17__normal_iteratorIPKSt4pairINSt7__cxx1112basic_stringIcSt11char_traitsIcESaIcEEEN8usbguard4Rule11SetOperatorEESt6vectorISB_SaISB_EEEdeEv' type='func-type' binding='weak-binding' visibility='default-visibility' is-defined='yes'/>
    <elf-symbol name='_ZNK9__gnu_cxx17__normal_iteratorIPKSt4pairINSt7__cxx1112basic_stringIcSt11char_traitsIcESaIcEEEN8usbguard4Rule6TargetEESt6vectorISB_SaISB_EEE4baseEv' type='func-type' binding='weak-binding' visibility='default-visibility' is-defined='yes'/>
    <elf-symbol name='_ZNK9__gnu_cxx17__normal_iteratorIPKSt4pairINSt7__cxx1112basic_stringIcSt11char_traitsIcESaIcEEEN8usbguard4Rule6TargetEESt6vectorISB_SaISB_EEEdeEv' type='func-type' binding='weak-binding' visibility='default-visibility' is-defined='yes'/>
    <elf-symbol name='_ZNK9__gnu_cxx17__normal_iteratorIPKSt4pairINSt7__cxx1112basic_stringIcSt11char_traitsIcESaIcEEEN8usbguard9IPCServer13AccessControl7SectionEESt6vectorISC_SaISC_EEE4baseEv' type='func-type' binding='weak-binding' visibility='default-visibility' is-defined='yes'/>
    <elf-symbol name='_ZNK9__gnu_cxx17__normal_iteratorIPKSt4pairINSt7__cxx1112basic_stringIcSt11char_traitsIcESaIcEEEN8usbguard9IPCServer13AccessControl7SectionEESt6vectorISC_SaISC_EEEdeEv' type='func-type' binding='weak-binding' visibility='default-visibility' is-defined='yes'/>
    <elf-symbol name='_ZNK9__gnu_cxx17__normal_iteratorIPKSt4pairINSt7__cxx1112basic_stringIcSt11char_traitsIcESaIcEEEN8usbguard9IPCServer13AccessControl9PrivilegeEESt6vectorISC_SaISC_EEE4baseEv' type='func-type' binding='weak-binding' visibility='default-visibility' is-defined='yes'/>
    <elf-symbol name='_ZNK9__gnu_cxx17__normal_iteratorIPKSt4pairINSt7__cxx1112basic_stringIcSt11char_traitsIcESaIcEEEN8usbguard9IPCServer13AccessControl9PrivilegeEESt6vectorISC_SaISC_EEEdeEv' type='func-type' binding='weak-binding' visibility='default-visibility' is-defined='yes'/>
    <elf-symbol name='_ZNK9__gnu_cxx17__normal_iteratorIPKSt4pairIjNSt7__cxx1112basic_stringIcSt11char_traitsIcESaIcEEEESt6vectorIS8_SaIS8_EEE4baseEv' type='func-type' binding='weak-binding' visibility='default-visibility' is-defined='yes'/>
    <elf-symbol name='_ZNK9__gnu_cxx17__normal_iteratorIPKSt4pairIjNSt7__cxx1112basic_stringIcSt11char_traitsIcESaIcEEEESt6vectorIS8_SaIS8_EEEdeEv' type='func-type' binding='weak-binding' visibility='default-visibility' is-defined='yes'/>
    <elf-symbol name='_ZNK9__gnu_cxx17__normal_iteratorIPKcNSt7__cxx1112basic_stringIcSt11char_traitsIcESaIcEEEE4baseEv' type='func-type' binding='weak-binding' visibility='default-visibility' is-defined='yes'/>
    <elf-symbol name='_ZNK9__gnu_cxx17__normal_iteratorIPKcNSt7__cxx1112basic_stringIcSt11char_traitsIcESaIcEEEEdeEv' type='func-type' binding='weak-binding' visibility='default-visibility' is-defined='yes'/>
    <elf-symbol name='_ZNK9__gnu_cxx17__normal_iteratorIPKcNSt7__cxx1112basic_stringIcSt11char_traitsIcESaIcEEEEplEl' type='func-type' binding='weak-binding' visibility='default-visibility' is-defined='yes'/>
    <elf-symbol name='_ZNK9__gnu_cxx17__normal_iteratorIPN8usbguard11USBDeviceIDESt6vectorIS2_SaIS2_EEE4baseEv' type='func-type' binding='weak-binding' visibility='default-visibility' is-defined='yes'/>
    <elf-symbol name='_ZNK9__gnu_cxx17__normal_iteratorIPN8usbguard11USBDeviceIDESt6vectorIS2_SaIS2_EEEdeEv' type='func-type' binding='weak-binding' visibility='default-visibility' is-defined='yes'/>
    <elf-symbol name='_ZNK9__gnu_cxx17__normal_iteratorIPN8usbguard11USBDeviceIDESt6vectorIS2_SaIS2_EEEplEl' type='func-type' binding='weak-binding' visibility='default-visibility' is-defined='yes'/>
    <elf-symbol name='_ZNK9__gnu_cxx17__normal_iteratorIPN8usbguard13RuleConditionESt6vectorIS2_SaIS2_EEE4baseEv' type='func-type' binding='weak-binding' visibility='default-visibility' is-defined='yes'/>
    <elf-symbol name='_ZNK9__gnu_cxx17__normal_iteratorIPN8usbguard13RuleConditionESt6vectorIS2_SaIS2_EEEdeEv' type='func-type' binding='weak-binding' visibility='default-visibility' is-defined='yes'/>
    <elf-symbol name='_ZNK9__gnu_cxx17__normal_iteratorIPN8usbguard13RuleConditionESt6vectorIS2_SaIS2_EEEmiEl' type='func-type' binding='weak-binding' visibility='default-visibility' is-defined='yes'/>
    <elf-symbol name='_ZNK9__gnu_cxx17__normal_iteratorIPN8usbguard13RuleConditionESt6vectorIS2_SaIS2_EEEplEl' type='func-type' binding='weak-binding' visibility='default-visibility' is-defined='yes'/>
    <elf-symbol name='_ZNK9__gnu_cxx17__normal_iteratorIPN8usbguard13USBDescriptorESt6vectorIS2_SaIS2_EEE4baseEv' type='func-type' binding='weak-binding' visibility='default-visibility' is-defined='yes'/>
    <elf-symbol name='_ZNK9__gnu_cxx17__normal_iteratorIPN8usbguard13USBDescriptorESt6vectorIS2_SaIS2_EEEdeEv' type='func-type' binding='weak-binding' visibility='default-visibility' is-defined='yes'/>
    <elf-symbol name='_ZNK9__gnu_cxx17__normal_iteratorIPN8usbguard16USBInterfaceTypeESt6vectorIS2_SaIS2_EEE4baseEv' type='func-type' binding='weak-binding' visibility='default-visibility' is-defined='yes'/>
    <elf-symbol name='_ZNK9__gnu_cxx17__normal_iteratorIPN8usbguard16USBInterfaceTypeESt6vectorIS2_SaIS2_EEEplEl' type='func-type' binding='weak-binding' visibility='default-visibility' is-defined='yes'/>
    <elf-symbol name='_ZNK9__gnu_cxx17__normal_iteratorIPN8usbguard4RuleESt6vectorIS2_SaIS2_EEE4baseEv' type='func-type' binding='weak-binding' visibility='default-visibility' is-defined='yes'/>
    <elf-symbol name='_ZNK9__gnu_cxx17__normal_iteratorIPN8usbguard4RuleESt6vectorIS2_SaIS2_EEEdeEv' type='func-type' binding='weak-binding' visibility='default-visibility' is-defined='yes'/>
    <elf-symbol name='_ZNK9__gnu_cxx17__normal_iteratorIPNSt7__cxx1112basic_stringIcSt11char_traitsIcESaIcEEESt6vectorIS6_SaIS6_EEE4baseEv' type='func-type' binding='weak-binding' visibility='default-visibility' is-defined='yes'/>
    <elf-symbol name='_ZNK9__gnu_cxx17__normal_iteratorIPNSt7__cxx1112basic_stringIcSt11char_traitsIcESaIcEEESt6vectorIS6_SaIS6_EEEdeEv' type='func-type' binding='weak-binding' visibility='default-visibility' is-defined='yes'/>
    <elf-symbol name='_ZNK9__gnu_cxx17__normal_iteratorIPNSt7__cxx1112basic_stringIcSt11char_traitsIcESaIcEEESt6vectorIS6_SaIS6_EEEmiEl' type='func-type' binding='weak-binding' visibility='default-visibility' is-defined='yes'/>
    <elf-symbol name='_ZNK9__gnu_cxx17__normal_iteratorIPNSt7__cxx1112basic_stringIcSt11char_traitsIcESaIcEEESt6vectorIS6_SaIS6_EEEplEl' type='func-type' binding='weak-binding' visibility='default-visibility' is-defined='yes'/>
    <elf-symbol name='_ZNK9__gnu_cxx17__normal_iteratorIPSt10shared_ptrIKN8usbguard4RuleEESt6vectorIS5_SaIS5_EEE4baseEv' type='func-type' binding='weak-binding' visibility='default-visibility' is-defined='yes'/>
    <elf-symbol name='_ZNK9__gnu_cxx17__normal_iteratorIPSt10shared_ptrIKN8usbguard4RuleEESt6vectorIS5_SaIS5_EEEdeEv' type='func-type' binding='weak-binding' visibility='default-visibility' is-defined='yes'/>
    <elf-symbol name='_ZNK9__gnu_cxx17__normal_iteratorIPSt10shared_ptrIKN8usbguard4RuleEESt6vectorIS5_SaIS5_EEEmiEl' type='func-type' binding='weak-binding' visibility='default-visibility' is-defined='yes'/>
    <elf-symbol name='_ZNK9__gnu_cxx17__normal_iteratorIPSt10shared_ptrIN8usbguard4RuleEESt6vectorIS4_SaIS4_EEE4baseEv' type='func-type' binding='weak-binding' visibility='default-visibility' is-defined='yes'/>
    <elf-symbol name='_ZNK9__gnu_cxx17__normal_iteratorIPSt10shared_ptrIN8usbguard4RuleEESt6vectorIS4_SaIS4_EEEdeEv' type='func-type' binding='weak-binding' visibility='default-visibility' is-defined='yes'/>
    <elf-symbol name='_ZNK9__gnu_cxx17__normal_iteratorIPSt10shared_ptrIN8usbguard4RuleEESt6vectorIS4_SaIS4_EEEplEl' type='func-type' binding='weak-binding' visibility='default-visibility' is-defined='yes'/>
    <elf-symbol name='_ZNK9__gnu_cxx17__normal_iteratorIPSt10shared_ptrIN8usbguard6DeviceEESt6vectorIS4_SaIS4_EEE4baseEv' type='func-type' binding='weak-binding' visibility='default-visibility' is-defined='yes'/>
    <elf-symbol name='_ZNK9__gnu_cxx17__normal_iteratorIPSt10shared_ptrIN8usbguard6DeviceEESt6vectorIS4_SaIS4_EEEdeEv' type='func-type' binding='weak-binding' visibility='default-visibility' is-defined='yes'/>
    <elf-symbol name='_ZNK9__gnu_cxx17__normal_iteratorIPSt10shared_ptrIN8usbguard7RuleSetEESt6vectorIS4_SaIS4_EEE4baseEv' type='func-type' binding='weak-binding' visibility='default-visibility' is-defined='yes'/>
    <elf-symbol name='_ZNK9__gnu_cxx17__normal_iteratorIPSt10shared_ptrIN8usbguard7RuleSetEESt6vectorIS4_SaIS4_EEEdeEv' type='func-type' binding='weak-binding' visibility='default-visibility' is-defined='yes'/>
    <elf-symbol name='_ZNK9__gnu_cxx17__normal_iteratorIPSt10shared_ptrIN8usbguard7RuleSetEESt6vectorIS4_SaIS4_EEEmiEl' type='func-type' binding='weak-binding' visibility='default-visibility' is-defined='yes'/>
    <elf-symbol name='_ZNK9__gnu_cxx17__normal_iteratorIPSt10shared_ptrIN8usbguard7RuleSetEESt6vectorIS4_SaIS4_EEEplEl' type='func-type' binding='weak-binding' visibility='default-visibility' is-defined='yes'/>
    <elf-symbol name='_ZNK9__gnu_cxx17__normal_iteratorIPSt4pairINSt7__cxx1112basic_stringIcSt11char_traitsIcESaIcEEES7_ESt6vectorIS8_SaIS8_EEE4baseEv' type='func-type' binding='weak-binding' visibility='default-visibility' is-defined='yes'/>
    <elf-symbol name='_ZNK9__gnu_cxx17__normal_iteratorIPSt4pairINSt7__cxx1112basic_stringIcSt11char_traitsIcESaIcEEES7_ESt6vectorIS8_SaIS8_EEEdeEv' type='func-type' binding='weak-binding' visibility='default-visibility' is-defined='yes'/>
    <elf-symbol name='_ZNK9__gnu_cxx17__normal_iteratorIPSt4pairINSt7__cxx1112basic_stringIcSt11char_traitsIcESaIcEEES7_ESt6vectorIS8_SaIS8_EEEmiEl' type='func-type' binding='weak-binding' visibility='default-visibility' is-defined='yes'/>
    <elf-symbol name='_ZNK9__gnu_cxx17__normal_iteratorIPSt4pairINSt7__cxx1112basic_stringIcSt11char_traitsIcESaIcEEES7_ESt6vectorIS8_SaIS8_EEEplEl' type='func-type' binding='weak-binding' visibility='default-visibility' is-defined='yes'/>
    <elf-symbol name='_ZNK9__gnu_cxx17__normal_iteratorIPSt4pairIhmESt6vectorIS2_SaIS2_EEE4baseEv' type='func-type' binding='weak-binding' visibility='default-visibility' is-defined='yes'/>
    <elf-symbol name='_ZNK9__gnu_cxx17__normal_iteratorIPSt4pairIhmESt6vectorIS2_SaIS2_EEEdeEv' type='func-type' binding='weak-binding' visibility='default-visibility' is-defined='yes'/>
    <elf-symbol name='_ZNK9__gnu_cxx17__normal_iteratorIPSt4pairIhmESt6vectorIS2_SaIS2_EEEmiEl' type='func-type' binding='weak-binding' visibility='default-visibility' is-defined='yes'/>
    <elf-symbol name='_ZNK9__gnu_cxx17__normal_iteratorIPSt4pairIhmESt6vectorIS2_SaIS2_EEEplEl' type='func-type' binding='weak-binding' visibility='default-visibility' is-defined='yes'/>
    <elf-symbol name='_ZNK9__gnu_cxx17__normal_iteratorIPcNSt7__cxx1112basic_stringIcSt11char_traitsIcESaIcEEEE4baseEv' type='func-type' binding='weak-binding' visibility='default-visibility' is-defined='yes'/>
    <elf-symbol name='_ZNK9__gnu_cxx17__normal_iteratorIPcNSt7__cxx1112basic_stringIcSt11char_traitsIcESaIcEEEEmiEl' type='func-type' binding='weak-binding' visibility='default-visibility' is-defined='yes'/>
    <elf-symbol name='_ZNKSt10_HashtableIN8usbguard9IPCServer13AccessControl7SectionESt4pairIKS3_hESaIS6_ENSt8__detail10_Select1stESt8equal_toIS3_ENS2_11SectionHashENS8_18_Mod_range_hashingENS8_20_Default_ranged_hashENS8_20_Prime_rehash_policyENS8_17_Hashtable_traitsILb1ELb0ELb1EEEE12_M_find_nodeEmRS5_m' type='func-type' binding='weak-binding' visibility='default-visibility' is-defined='yes'/>
    <elf-symbol name='_ZNKSt10_HashtableIN8usbguard9IPCServer13AccessControl7SectionESt4pairIKS3_hESaIS6_ENSt8__detail10_Select1stESt8equal_toIS3_ENS2_11SectionHashENS8_18_Mod_range_hashingENS8_20_Default_ranged_hashENS8_20_Prime_rehash_policyENS8_17_Hashtable_traitsILb1ELb0ELb1EEEE15_M_bucket_indexERKNS8_16_Hash_node_valueIS6_Lb1EEE' type='func-type' binding='weak-binding' visibility='default-visibility' is-defined='yes'/>
    <elf-symbol name='_ZNKSt10_HashtableIN8usbguard9IPCServer13AccessControl7SectionESt4pairIKS3_hESaIS6_ENSt8__detail10_Select1stESt8equal_toIS3_ENS2_11SectionHashENS8_18_Mod_range_hashingENS8_20_Default_ranged_hashENS8_20_Prime_rehash_policyENS8_17_Hashtable_traitsILb1ELb0ELb1EEEE15_M_bucket_indexEm' type='func-type' binding='weak-binding' visibility='default-visibility' is-defined='yes'/>
    <elf-symbol name='_ZNKSt10_HashtableIN8usbguard9IPCServer13AccessControl7SectionESt4pairIKS3_hESaIS6_ENSt8__detail10_Select1stESt8equal_toIS3_ENS2_11SectionHashENS8_18_Mod_range_hashingENS8_20_Default_ranged_hashENS8_20_Prime_rehash_policyENS8_17_Hashtable_traitsILb1ELb0ELb1EEEE19_M_find_before_nodeEmRS5_m' type='func-type' binding='weak-binding' visibility='default-visibility' is-defined='yes'/>
    <elf-symbol name='_ZNKSt10_HashtableIN8usbguard9IPCServer13AccessControl7SectionESt4pairIKS3_hESaIS6_ENSt8__detail10_Select1stESt8equal_toIS3_ENS2_11SectionHashENS8_18_Mod_range_hashingENS8_20_Default_ranged_hashENS8_20_Prime_rehash_policyENS8_17_Hashtable_traitsILb1ELb0ELb1EEEE21_M_uses_single_bucketEPPNS8_15_Hash_node_baseE' type='func-type' binding='weak-binding' visibility='default-visibility' is-defined='yes'/>
    <elf-symbol name='_ZNKSt10_HashtableIN8usbguard9IPCServer13AccessControl7SectionESt4pairIKS3_hESaIS6_ENSt8__detail10_Select1stESt8equal_toIS3_ENS2_11SectionHashENS8_18_Mod_range_hashingENS8_20_Default_ranged_hashENS8_20_Prime_rehash_policyENS8_17_Hashtable_traitsILb1ELb0ELb1EEEE3endEv' type='func-type' binding='weak-binding' visibility='default-visibility' is-defined='yes'/>
    <elf-symbol name='_ZNKSt10_HashtableIN8usbguard9IPCServer13AccessControl7SectionESt4pairIKS3_hESaIS6_ENSt8__detail10_Select1stESt8equal_toIS3_ENS2_11SectionHashENS8_18_Mod_range_hashingENS8_20_Default_ranged_hashENS8_20_Prime_rehash_policyENS8_17_Hashtable_traitsILb1ELb0ELb1EEEE4findERS5_' type='func-type' binding='weak-binding' visibility='default-visibility' is-defined='yes'/>
    <elf-symbol name='_ZNKSt10_HashtableIN8usbguard9IPCServer13AccessControl7SectionESt4pairIKS3_hESaIS6_ENSt8__detail10_Select1stESt8equal_toIS3_ENS2_11SectionHashENS8_18_Mod_range_hashingENS8_20_Default_ranged_hashENS8_20_Prime_rehash_policyENS8_17_Hashtable_traitsILb1ELb0ELb1EEEE4sizeEv' type='func-type' binding='weak-binding' visibility='default-visibility' is-defined='yes'/>
    <elf-symbol name='_ZNKSt10_HashtableIN8usbguard9IPCServer13AccessControl7SectionESt4pairIKS3_hESaIS6_ENSt8__detail10_Select1stESt8equal_toIS3_ENS2_11SectionHashENS8_18_Mod_range_hashingENS8_20_Default_ranged_hashENS8_20_Prime_rehash_policyENS8_17_Hashtable_traitsILb1ELb0ELb1EEEE5beginEv' type='func-type' binding='weak-binding' visibility='default-visibility' is-defined='yes'/>
    <elf-symbol name='_ZNKSt10_HashtableIN8usbguard9IPCServer13AccessControl7SectionESt4pairIKS3_hESaIS6_ENSt8__detail10_Select1stESt8equal_toIS3_ENS2_11SectionHashENS8_18_Mod_range_hashingENS8_20_Default_ranged_hashENS8_20_Prime_rehash_policyENS8_17_Hashtable_traitsILb1ELb0ELb1EEEE8_M_beginEv' type='func-type' binding='weak-binding' visibility='default-visibility' is-defined='yes'/>
    <elf-symbol name='_ZNKSt10_HashtableINSt7__cxx1112basic_stringIcSt11char_traitsIcESaIcEEESt4pairIKS5_N8usbguard9IPCServer13AccessControlEESaISB_ENSt8__detail10_Select1stESt8equal_toIS5_ESt4hashIS5_ENSD_18_Mod_range_hashingENSD_20_Default_ranged_hashENSD_20_Prime_rehash_policyENSD_17_Hashtable_traitsILb1ELb0ELb1EEEE12_M_find_nodeEmRS7_m' type='func-type' binding='weak-binding' visibility='default-visibility' is-defined='yes'/>
    <elf-symbol name='_ZNKSt10_HashtableINSt7__cxx1112basic_stringIcSt11char_traitsIcESaIcEEESt4pairIKS5_N8usbguard9IPCServer13AccessControlEESaISB_ENSt8__detail10_Select1stESt8equal_toIS5_ESt4hashIS5_ENSD_18_Mod_range_hashingENSD_20_Default_ranged_hashENSD_20_Prime_rehash_policyENSD_17_Hashtable_traitsILb1ELb0ELb1EEEE15_M_bucket_indexERKNSD_16_Hash_node_valueISB_Lb1EEE' type='func-type' binding='weak-binding' visibility='default-visibility' is-defined='yes'/>
    <elf-symbol name='_ZNKSt10_HashtableINSt7__cxx1112basic_stringIcSt11char_traitsIcESaIcEEESt4pairIKS5_N8usbguard9IPCServer13AccessControlEESaISB_ENSt8__detail10_Select1stESt8equal_toIS5_ESt4hashIS5_ENSD_18_Mod_range_hashingENSD_20_Default_ranged_hashENSD_20_Prime_rehash_policyENSD_17_Hashtable_traitsILb1ELb0ELb1EEEE15_M_bucket_indexEm' type='func-type' binding='weak-binding' visibility='default-visibility' is-defined='yes'/>
    <elf-symbol name='_ZNKSt10_HashtableINSt7__cxx1112basic_stringIcSt11char_traitsIcESaIcEEESt4pairIKS5_N8usbguard9IPCServer13AccessControlEESaISB_ENSt8__detail10_Select1stESt8equal_toIS5_ESt4hashIS5_ENSD_18_Mod_range_hashingENSD_20_Default_ranged_hashENSD_20_Prime_rehash_policyENSD_17_Hashtable_traitsILb1ELb0ELb1EEEE19_M_find_before_nodeEmRS7_m' type='func-type' binding='weak-binding' visibility='default-visibility' is-defined='yes'/>
    <elf-symbol name='_ZNKSt10_HashtableINSt7__cxx1112basic_stringIcSt11char_traitsIcESaIcEEESt4pairIKS5_N8usbguard9IPCServer13AccessControlEESaISB_ENSt8__detail10_Select1stESt8equal_toIS5_ESt4hashIS5_ENSD_18_Mod_range_hashingENSD_20_Default_ranged_hashENSD_20_Prime_rehash_policyENSD_17_Hashtable_traitsILb1ELb0ELb1EEEE21_M_uses_single_bucketEPPNSD_15_Hash_node_baseE' type='func-type' binding='weak-binding' visibility='default-visibility' is-defined='yes'/>
    <elf-symbol name='_ZNKSt10_HashtableINSt7__cxx1112basic_stringIcSt11char_traitsIcESaIcEEESt4pairIKS5_N8usbguard9IPCServer13AccessControlEESaISB_ENSt8__detail10_Select1stESt8equal_toIS5_ESt4hashIS5_ENSD_18_Mod_range_hashingENSD_20_Default_ranged_hashENSD_20_Prime_rehash_policyENSD_17_Hashtable_traitsILb1ELb0ELb1EEEE3endEv' type='func-type' binding='weak-binding' visibility='default-visibility' is-defined='yes'/>
    <elf-symbol name='_ZNKSt10_HashtableINSt7__cxx1112basic_stringIcSt11char_traitsIcESaIcEEESt4pairIKS5_N8usbguard9IPCServer13AccessControlEESaISB_ENSt8__detail10_Select1stESt8equal_toIS5_ESt4hashIS5_ENSD_18_Mod_range_hashingENSD_20_Default_ranged_hashENSD_20_Prime_rehash_policyENSD_17_Hashtable_traitsILb1ELb0ELb1EEEE4findERS7_' type='func-type' binding='weak-binding' visibility='default-visibility' is-defined='yes'/>
    <elf-symbol name='_ZNKSt10_HashtableINSt7__cxx1112basic_stringIcSt11char_traitsIcESaIcEEESt4pairIKS5_N8usbguard9IPCServer13AccessControlEESaISB_ENSt8__detail10_Select1stESt8equal_toIS5_ESt4hashIS5_ENSD_18_Mod_range_hashingENSD_20_Default_ranged_hashENSD_20_Prime_rehash_policyENSD_17_Hashtable_traitsILb1ELb0ELb1EEEE4sizeEv' type='func-type' binding='weak-binding' visibility='default-visibility' is-defined='yes'/>
    <elf-symbol name='_ZNKSt10_HashtableINSt7__cxx1112basic_stringIcSt11char_traitsIcESaIcEEESt4pairIKS5_N8usbguard9IPCServer13AccessControlEESaISB_ENSt8__detail10_Select1stESt8equal_toIS5_ESt4hashIS5_ENSD_18_Mod_range_hashingENSD_20_Default_ranged_hashENSD_20_Prime_rehash_policyENSD_17_Hashtable_traitsILb1ELb0ELb1EEEE5beginEv' type='func-type' binding='weak-binding' visibility='default-visibility' is-defined='yes'/>
    <elf-symbol name='_ZNKSt10_HashtableINSt7__cxx1112basic_stringIcSt11char_traitsIcESaIcEEESt4pairIKS5_N8usbguard9IPCServer13AccessControlEESaISB_ENSt8__detail10_Select1stESt8equal_toIS5_ESt4hashIS5_ENSD_18_Mod_range_hashingENSD_20_Default_ranged_hashENSD_20_Prime_rehash_policyENSD_17_Hashtable_traitsILb1ELb0ELb1EEEE5emptyEv' type='func-type' binding='weak-binding' visibility='default-visibility' is-defined='yes'/>
    <elf-symbol name='_ZNKSt10_HashtableINSt7__cxx1112basic_stringIcSt11char_traitsIcESaIcEEESt4pairIKS5_N8usbguard9IPCServer13AccessControlEESaISB_ENSt8__detail10_Select1stESt8equal_toIS5_ESt4hashIS5_ENSD_18_Mod_range_hashingENSD_20_Default_ranged_hashENSD_20_Prime_rehash_policyENSD_17_Hashtable_traitsILb1ELb0ELb1EEEE8_M_beginEv' type='func-type' binding='weak-binding' visibility='default-visibility' is-defined='yes'/>
    <elf-symbol name='_ZNKSt10_HashtableINSt7__cxx1112basic_stringIcSt11char_traitsIcESaIcEEESt4pairIKS5_S5_ESaIS8_ENSt8__detail10_Select1stESt8equal_toIS5_ESt4hashIS5_ENSA_18_Mod_range_hashingENSA_20_Default_ranged_hashENSA_20_Prime_rehash_policyENSA_17_Hashtable_traitsILb1ELb0ELb1EEEE12_M_find_nodeEmRS7_m' type='func-type' binding='weak-binding' visibility='default-visibility' is-defined='yes'/>
    <elf-symbol name='_ZNKSt10_HashtableINSt7__cxx1112basic_stringIcSt11char_traitsIcESaIcEEESt4pairIKS5_S5_ESaIS8_ENSt8__detail10_Select1stESt8equal_toIS5_ESt4hashIS5_ENSA_18_Mod_range_hashingENSA_20_Default_ranged_hashENSA_20_Prime_rehash_policyENSA_17_Hashtable_traitsILb1ELb0ELb1EEEE15_M_bucket_indexERKNSA_16_Hash_node_valueIS8_Lb1EEE' type='func-type' binding='weak-binding' visibility='default-visibility' is-defined='yes'/>
    <elf-symbol name='_ZNKSt10_HashtableINSt7__cxx1112basic_stringIcSt11char_traitsIcESaIcEEESt4pairIKS5_S5_ESaIS8_ENSt8__detail10_Select1stESt8equal_toIS5_ESt4hashIS5_ENSA_18_Mod_range_hashingENSA_20_Default_ranged_hashENSA_20_Prime_rehash_policyENSA_17_Hashtable_traitsILb1ELb0ELb1EEEE15_M_bucket_indexEm' type='func-type' binding='weak-binding' visibility='default-visibility' is-defined='yes'/>
    <elf-symbol name='_ZNKSt10_HashtableINSt7__cxx1112basic_stringIcSt11char_traitsIcESaIcEEESt4pairIKS5_S5_ESaIS8_ENSt8__detail10_Select1stESt8equal_toIS5_ESt4hashIS5_ENSA_18_Mod_range_hashingENSA_20_Default_ranged_hashENSA_20_Prime_rehash_policyENSA_17_Hashtable_traitsILb1ELb0ELb1EEEE19_M_find_before_nodeEmRS7_m' type='func-type' binding='weak-binding' visibility='default-visibility' is-defined='yes'/>
    <elf-symbol name='_ZNKSt10_HashtableINSt7__cxx1112basic_stringIcSt11char_traitsIcESaIcEEESt4pairIKS5_S5_ESaIS8_ENSt8__detail10_Select1stESt8equal_toIS5_ESt4hashIS5_ENSA_18_Mod_range_hashingENSA_20_Default_ranged_hashENSA_20_Prime_rehash_policyENSA_17_Hashtable_traitsILb1ELb0ELb1EEEE21_M_uses_single_bucketEPPNSA_15_Hash_node_baseE' type='func-type' binding='weak-binding' visibility='default-visibility' is-defined='yes'/>
    <elf-symbol name='_ZNKSt10_HashtableINSt7__cxx1112basic_stringIcSt11char_traitsIcESaIcEEESt4pairIKS5_S5_ESaIS8_ENSt8__detail10_Select1stESt8equal_toIS5_ESt4hashIS5_ENSA_18_Mod_range_hashingENSA_20_Default_ranged_hashENSA_20_Prime_rehash_policyENSA_17_Hashtable_traitsILb1ELb0ELb1EEEE21_M_uses_single_bucketEv' type='func-type' binding='weak-binding' visibility='default-visibility' is-defined='yes'/>
    <elf-symbol name='_ZNKSt10_HashtableINSt7__cxx1112basic_stringIcSt11char_traitsIcESaIcEEESt4pairIKS5_S5_ESaIS8_ENSt8__detail10_Select1stESt8equal_toIS5_ESt4hashIS5_ENSA_18_Mod_range_hashingENSA_20_Default_ranged_hashENSA_20_Prime_rehash_policyENSA_17_Hashtable_traitsILb1ELb0ELb1EEEE4sizeEv' type='func-type' binding='weak-binding' visibility='default-visibility' is-defined='yes'/>
    <elf-symbol name='_ZNKSt10_HashtableINSt7__cxx1112basic_stringIcSt11char_traitsIcESaIcEEESt4pairIKS5_S5_ESaIS8_ENSt8__detail10_Select1stESt8equal_toIS5_ESt4hashIS5_ENSA_18_Mod_range_hashingENSA_20_Default_ranged_hashENSA_20_Prime_rehash_policyENSA_17_Hashtable_traitsILb1ELb0ELb1EEEE8_M_beginEv' type='func-type' binding='weak-binding' visibility='default-visibility' is-defined='yes'/>
    <elf-symbol name='_ZNKSt10_HashtableIhSt4pairIKhSt6vectorIN8usbguard13USBDescriptorESaIS4_EEESaIS7_ENSt8__detail10_Select1stESt8equal_toIhESt4hashIhENS9_18_Mod_range_hashingENS9_20_Default_ranged_hashENS9_20_Prime_rehash_policyENS9_17_Hashtable_traitsILb0ELb0ELb1EEEE12_M_find_nodeEmRS1_m' type='func-type' binding='weak-binding' visibility='default-visibility' is-defined='yes'/>
    <elf-symbol name='_ZNKSt10_HashtableIhSt4pairIKhSt6vectorIN8usbguard13USBDescriptorESaIS4_EEESaIS7_ENSt8__detail10_Select1stESt8equal_toIhESt4hashIhENS9_18_Mod_range_hashingENS9_20_Default_ranged_hashENS9_20_Prime_rehash_policyENS9_17_Hashtable_traitsILb0ELb0ELb1EEEE15_M_bucket_indexERKNS9_16_Hash_node_valueIS7_Lb0EEE' type='func-type' binding='weak-binding' visibility='default-visibility' is-defined='yes'/>
    <elf-symbol name='_ZNKSt10_HashtableIhSt4pairIKhSt6vectorIN8usbguard13USBDescriptorESaIS4_EEESaIS7_ENSt8__detail10_Select1stESt8equal_toIhESt4hashIhENS9_18_Mod_range_hashingENS9_20_Default_ranged_hashENS9_20_Prime_rehash_policyENS9_17_Hashtable_traitsILb0ELb0ELb1EEEE15_M_bucket_indexEm' type='func-type' binding='weak-binding' visibility='default-visibility' is-defined='yes'/>
    <elf-symbol name='_ZNKSt10_HashtableIhSt4pairIKhSt6vectorIN8usbguard13USBDescriptorESaIS4_EEESaIS7_ENSt8__detail10_Select1stESt8equal_toIhESt4hashIhENS9_18_Mod_range_hashingENS9_20_Default_ranged_hashENS9_20_Prime_rehash_policyENS9_17_Hashtable_traitsILb0ELb0ELb1EEEE19_M_find_before_nodeEmRS1_m' type='func-type' binding='weak-binding' visibility='default-visibility' is-defined='yes'/>
    <elf-symbol name='_ZNKSt10_HashtableIhSt4pairIKhSt6vectorIN8usbguard13USBDescriptorESaIS4_EEESaIS7_ENSt8__detail10_Select1stESt8equal_toIhESt4hashIhENS9_18_Mod_range_hashingENS9_20_Default_ranged_hashENS9_20_Prime_rehash_policyENS9_17_Hashtable_traitsILb0ELb0ELb1EEEE21_M_uses_single_bucketEPPNS9_15_Hash_node_baseE' type='func-type' binding='weak-binding' visibility='default-visibility' is-defined='yes'/>
    <elf-symbol name='_ZNKSt10_HashtableIhSt4pairIKhSt6vectorIN8usbguard13USBDescriptorESaIS4_EEESaIS7_ENSt8__detail10_Select1stESt8equal_toIhESt4hashIhENS9_18_Mod_range_hashingENS9_20_Default_ranged_hashENS9_20_Prime_rehash_policyENS9_17_Hashtable_traitsILb0ELb0ELb1EEEE3endEv' type='func-type' binding='weak-binding' visibility='default-visibility' is-defined='yes'/>
    <elf-symbol name='_ZNKSt10_HashtableIhSt4pairIKhSt6vectorIN8usbguard13USBDescriptorESaIS4_EEESaIS7_ENSt8__detail10_Select1stESt8equal_toIhESt4hashIhENS9_18_Mod_range_hashingENS9_20_Default_ranged_hashENS9_20_Prime_rehash_policyENS9_17_Hashtable_traitsILb0ELb0ELb1EEEE4findERS1_' type='func-type' binding='weak-binding' visibility='default-visibility' is-defined='yes'/>
    <elf-symbol name='_ZNKSt10_HashtableIhSt4pairIKhSt6vectorIN8usbguard13USBDescriptorESaIS4_EEESaIS7_ENSt8__detail10_Select1stESt8equal_toIhESt4hashIhENS9_18_Mod_range_hashingENS9_20_Default_ranged_hashENS9_20_Prime_rehash_policyENS9_17_Hashtable_traitsILb0ELb0ELb1EEEE4sizeEv' type='func-type' binding='weak-binding' visibility='default-visibility' is-defined='yes'/>
    <elf-symbol name='_ZNKSt10_HashtableIhSt4pairIKhSt6vectorIN8usbguard13USBDescriptorESaIS4_EEESaIS7_ENSt8__detail10_Select1stESt8equal_toIhESt4hashIhENS9_18_Mod_range_hashingENS9_20_Default_ranged_hashENS9_20_Prime_rehash_policyENS9_17_Hashtable_traitsILb0ELb0ELb1EEEE5countERS1_' type='func-type' binding='weak-binding' visibility='default-visibility' is-defined='yes'/>
    <elf-symbol name='_ZNKSt10_HashtableIhSt4pairIKhSt6vectorIN8usbguard13USBDescriptorESaIS4_EEESaIS7_ENSt8__detail10_Select1stESt8equal_toIhESt4hashIhENS9_18_Mod_range_hashingENS9_20_Default_ranged_hashENS9_20_Prime_rehash_policyENS9_17_Hashtable_traitsILb0ELb0ELb1EEEE8_M_beginEv' type='func-type' binding='weak-binding' visibility='default-visibility' is-defined='yes'/>
    <elf-symbol name='_ZNKSt10_HashtableIhSt4pairIKhmESaIS2_ENSt8__detail10_Select1stESt8equal_toIhESt4hashIhENS4_18_Mod_range_hashingENS4_20_Default_ranged_hashENS4_20_Prime_rehash_policyENS4_17_Hashtable_traitsILb0ELb0ELb1EEEE12_M_find_nodeEmRS1_m' type='func-type' binding='weak-binding' visibility='default-visibility' is-defined='yes'/>
    <elf-symbol name='_ZNKSt10_HashtableIhSt4pairIKhmESaIS2_ENSt8__detail10_Select1stESt8equal_toIhESt4hashIhENS4_18_Mod_range_hashingENS4_20_Default_ranged_hashENS4_20_Prime_rehash_policyENS4_17_Hashtable_traitsILb0ELb0ELb1EEEE15_M_bucket_indexERKNS4_16_Hash_node_valueIS2_Lb0EEE' type='func-type' binding='weak-binding' visibility='default-visibility' is-defined='yes'/>
    <elf-symbol name='_ZNKSt10_HashtableIhSt4pairIKhmESaIS2_ENSt8__detail10_Select1stESt8equal_toIhESt4hashIhENS4_18_Mod_range_hashingENS4_20_Default_ranged_hashENS4_20_Prime_rehash_policyENS4_17_Hashtable_traitsILb0ELb0ELb1EEEE15_M_bucket_indexEm' type='func-type' binding='weak-binding' visibility='default-visibility' is-defined='yes'/>
    <elf-symbol name='_ZNKSt10_HashtableIhSt4pairIKhmESaIS2_ENSt8__detail10_Select1stESt8equal_toIhESt4hashIhENS4_18_Mod_range_hashingENS4_20_Default_ranged_hashENS4_20_Prime_rehash_policyENS4_17_Hashtable_traitsILb0ELb0ELb1EEEE19_M_find_before_nodeEmRS1_m' type='func-type' binding='weak-binding' visibility='default-visibility' is-defined='yes'/>
    <elf-symbol name='_ZNKSt10_HashtableIhSt4pairIKhmESaIS2_ENSt8__detail10_Select1stESt8equal_toIhESt4hashIhENS4_18_Mod_range_hashingENS4_20_Default_ranged_hashENS4_20_Prime_rehash_policyENS4_17_Hashtable_traitsILb0ELb0ELb1EEEE21_M_uses_single_bucketEPPNS4_15_Hash_node_baseE' type='func-type' binding='weak-binding' visibility='default-visibility' is-defined='yes'/>
    <elf-symbol name='_ZNKSt10_HashtableIhSt4pairIKhmESaIS2_ENSt8__detail10_Select1stESt8equal_toIhESt4hashIhENS4_18_Mod_range_hashingENS4_20_Default_ranged_hashENS4_20_Prime_rehash_policyENS4_17_Hashtable_traitsILb0ELb0ELb1EEEE3endEv' type='func-type' binding='weak-binding' visibility='default-visibility' is-defined='yes'/>
    <elf-symbol name='_ZNKSt10_HashtableIhSt4pairIKhmESaIS2_ENSt8__detail10_Select1stESt8equal_toIhESt4hashIhENS4_18_Mod_range_hashingENS4_20_Default_ranged_hashENS4_20_Prime_rehash_policyENS4_17_Hashtable_traitsILb0ELb0ELb1EEEE5beginEv' type='func-type' binding='weak-binding' visibility='default-visibility' is-defined='yes'/>
    <elf-symbol name='_ZNKSt10_HashtableIhSt4pairIKhmESaIS2_ENSt8__detail10_Select1stESt8equal_toIhESt4hashIhENS4_18_Mod_range_hashingENS4_20_Default_ranged_hashENS4_20_Prime_rehash_policyENS4_17_Hashtable_traitsILb0ELb0ELb1EEEE8_M_beginEv' type='func-type' binding='weak-binding' visibility='default-visibility' is-defined='yes'/>
    <elf-symbol name='_ZNKSt10_HashtableIjSt4pairIKjN8usbguard9IPCServer13AccessControlEESaIS5_ENSt8__detail10_Select1stESt8equal_toIjESt4hashIjENS7_18_Mod_range_hashingENS7_20_Default_ranged_hashENS7_20_Prime_rehash_policyENS7_17_Hashtable_traitsILb0ELb0ELb1EEEE12_M_find_nodeEmRS1_m' type='func-type' binding='weak-binding' visibility='default-visibility' is-defined='yes'/>
    <elf-symbol name='_ZNKSt10_HashtableIjSt4pairIKjN8usbguard9IPCServer13AccessControlEESaIS5_ENSt8__detail10_Select1stESt8equal_toIjESt4hashIjENS7_18_Mod_range_hashingENS7_20_Default_ranged_hashENS7_20_Prime_rehash_policyENS7_17_Hashtable_traitsILb0ELb0ELb1EEEE15_M_bucket_indexERKNS7_16_Hash_node_valueIS5_Lb0EEE' type='func-type' binding='weak-binding' visibility='default-visibility' is-defined='yes'/>
    <elf-symbol name='_ZNKSt10_HashtableIjSt4pairIKjN8usbguard9IPCServer13AccessControlEESaIS5_ENSt8__detail10_Select1stESt8equal_toIjESt4hashIjENS7_18_Mod_range_hashingENS7_20_Default_ranged_hashENS7_20_Prime_rehash_policyENS7_17_Hashtable_traitsILb0ELb0ELb1EEEE15_M_bucket_indexEm' type='func-type' binding='weak-binding' visibility='default-visibility' is-defined='yes'/>
    <elf-symbol name='_ZNKSt10_HashtableIjSt4pairIKjN8usbguard9IPCServer13AccessControlEESaIS5_ENSt8__detail10_Select1stESt8equal_toIjESt4hashIjENS7_18_Mod_range_hashingENS7_20_Default_ranged_hashENS7_20_Prime_rehash_policyENS7_17_Hashtable_traitsILb0ELb0ELb1EEEE19_M_find_before_nodeEmRS1_m' type='func-type' binding='weak-binding' visibility='default-visibility' is-defined='yes'/>
    <elf-symbol name='_ZNKSt10_HashtableIjSt4pairIKjN8usbguard9IPCServer13AccessControlEESaIS5_ENSt8__detail10_Select1stESt8equal_toIjESt4hashIjENS7_18_Mod_range_hashingENS7_20_Default_ranged_hashENS7_20_Prime_rehash_policyENS7_17_Hashtable_traitsILb0ELb0ELb1EEEE21_M_uses_single_bucketEPPNS7_15_Hash_node_baseE' type='func-type' binding='weak-binding' visibility='default-visibility' is-defined='yes'/>
    <elf-symbol name='_ZNKSt10_HashtableIjSt4pairIKjN8usbguard9IPCServer13AccessControlEESaIS5_ENSt8__detail10_Select1stESt8equal_toIjESt4hashIjENS7_18_Mod_range_hashingENS7_20_Default_ranged_hashENS7_20_Prime_rehash_policyENS7_17_Hashtable_traitsILb0ELb0ELb1EEEE3endEv' type='func-type' binding='weak-binding' visibility='default-visibility' is-defined='yes'/>
    <elf-symbol name='_ZNKSt10_HashtableIjSt4pairIKjN8usbguard9IPCServer13AccessControlEESaIS5_ENSt8__detail10_Select1stESt8equal_toIjESt4hashIjENS7_18_Mod_range_hashingENS7_20_Default_ranged_hashENS7_20_Prime_rehash_policyENS7_17_Hashtable_traitsILb0ELb0ELb1EEEE4findERS1_' type='func-type' binding='weak-binding' visibility='default-visibility' is-defined='yes'/>
    <elf-symbol name='_ZNKSt10_HashtableIjSt4pairIKjN8usbguard9IPCServer13AccessControlEESaIS5_ENSt8__detail10_Select1stESt8equal_toIjESt4hashIjENS7_18_Mod_range_hashingENS7_20_Default_ranged_hashENS7_20_Prime_rehash_policyENS7_17_Hashtable_traitsILb0ELb0ELb1EEEE4sizeEv' type='func-type' binding='weak-binding' visibility='default-visibility' is-defined='yes'/>
    <elf-symbol name='_ZNKSt10_HashtableIjSt4pairIKjN8usbguard9IPCServer13AccessControlEESaIS5_ENSt8__detail10_Select1stESt8equal_toIjESt4hashIjENS7_18_Mod_range_hashingENS7_20_Default_ranged_hashENS7_20_Prime_rehash_policyENS7_17_Hashtable_traitsILb0ELb0ELb1EEEE5beginEv' type='func-type' binding='weak-binding' visibility='default-visibility' is-defined='yes'/>
    <elf-symbol name='_ZNKSt10_HashtableIjSt4pairIKjN8usbguard9IPCServer13AccessControlEESaIS5_ENSt8__detail10_Select1stESt8equal_toIjESt4hashIjENS7_18_Mod_range_hashingENS7_20_Default_ranged_hashENS7_20_Prime_rehash_policyENS7_17_Hashtable_traitsILb0ELb0ELb1EEEE5emptyEv' type='func-type' binding='weak-binding' visibility='default-visibility' is-defined='yes'/>
    <elf-symbol name='_ZNKSt10_HashtableIjSt4pairIKjN8usbguard9IPCServer13AccessControlEESaIS5_ENSt8__detail10_Select1stESt8equal_toIjESt4hashIjENS7_18_Mod_range_hashingENS7_20_Default_ranged_hashENS7_20_Prime_rehash_policyENS7_17_Hashtable_traitsILb0ELb0ELb1EEEE8_M_beginEv' type='func-type' binding='weak-binding' visibility='default-visibility' is-defined='yes'/>
    <elf-symbol name='_ZNKSt10_Select1stISt4pairIKNSt7__cxx1112basic_stringIcSt11char_traitsIcESaIcEEES6_EEclERKS8_' type='func-type' binding='weak-binding' visibility='default-visibility' is-defined='yes'/>
    <elf-symbol name='_ZNKSt10_Select1stISt4pairIKNSt7__cxx1112basic_stringIcSt11char_traitsIcESaIcEEESt10unique_ptrIN8usbguard7LogSinkESt14default_deleteISA_EEEEclERKSE_' type='func-type' binding='weak-binding' visibility='default-visibility' is-defined='yes'/>
    <elf-symbol name='_ZNKSt10_Select1stISt4pairIKNSt7__cxx1112basic_stringIcSt11char_traitsIcESaIcEEEjEEclERKS8_' type='func-type' binding='weak-binding' visibility='default-visibility' is-defined='yes'/>
    <elf-symbol name='_ZNKSt10_Select1stISt4pairIKjSt10shared_ptrIN8usbguard6DeviceEEEEclERKS6_' type='func-type' binding='weak-binding' visibility='default-visibility' is-defined='yes'/>
    <elf-symbol name='_ZNKSt10error_code5valueEv' type='func-type' binding='weak-binding' visibility='default-visibility' is-defined='yes'/>
    <elf-symbol name='_ZNKSt10error_code7messageB5cxx11Ev' type='func-type' binding='weak-binding' visibility='default-visibility' is-defined='yes'/>
    <elf-symbol name='_ZNKSt10error_code8categoryEv' type='func-type' binding='weak-binding' visibility='default-visibility' is-defined='yes'/>
    <elf-symbol name='_ZNKSt10unique_ptrIN8usbguard12AuditBackendESt14default_deleteIS1_EE3getEv' type='func-type' binding='weak-binding' visibility='default-visibility' is-defined='yes'/>
    <elf-symbol name='_ZNKSt10unique_ptrIN8usbguard17RuleConditionBaseESt14default_deleteIS1_EE3getEv' type='func-type' binding='weak-binding' visibility='default-visibility' is-defined='yes'/>
    <elf-symbol name='_ZNKSt10unique_ptrIN8usbguard17RuleConditionBaseESt14default_deleteIS1_EEptEv' type='func-type' binding='weak-binding' visibility='default-visibility' is-defined='yes'/>
    <elf-symbol name='_ZNKSt10unique_ptrIN8usbguard7LogSinkESt14default_deleteIS1_EE3getEv' type='func-type' binding='weak-binding' visibility='default-visibility' is-defined='yes'/>
    <elf-symbol name='_ZNKSt10unique_ptrIN8usbguard7LogSinkESt14default_deleteIS1_EEptEv' type='func-type' binding='weak-binding' visibility='default-visibility' is-defined='yes'/>
    <elf-symbol name='_ZNKSt10unique_ptrIN9__gnu_cxx13stdio_filebufIcSt11char_traitsIcEEESt14default_deleteIS4_EE3getEv' type='func-type' binding='weak-binding' visibility='default-visibility' is-defined='yes'/>
    <elf-symbol name='_ZNKSt10unique_ptrINSt13__future_base12_Result_baseENS1_8_DeleterEE3getEv' type='func-type' binding='weak-binding' visibility='default-visibility' is-defined='yes'/>
    <elf-symbol name='_ZNKSt10unique_ptrINSt13__future_base12_Result_baseENS1_8_DeleterEEcvbEv' type='func-type' binding='weak-binding' visibility='default-visibility' is-defined='yes'/>
    <elf-symbol name='_ZNKSt10unique_ptrINSt13__future_base12_Result_baseENS1_8_DeleterEEdeEv' type='func-type' binding='weak-binding' visibility='default-visibility' is-defined='yes'/>
    <elf-symbol name='_ZNKSt10unique_ptrINSt13__future_base12_Result_baseENS1_8_DeleterEEptEv' type='func-type' binding='weak-binding' visibility='default-visibility' is-defined='yes'/>
    <elf-symbol name='_ZNKSt10unique_ptrINSt13__future_base7_ResultIS_IN6google8protobuf7MessageESt14default_deleteIS4_EEEENS0_12_Result_base8_DeleterEE3getEv' type='func-type' binding='weak-binding' visibility='default-visibility' is-defined='yes'/>
    <elf-symbol name='_ZNKSt10unique_ptrINSt13__future_base7_ResultIS_IN6google8protobuf7MessageESt14default_deleteIS4_EEEENS0_12_Result_base8_DeleterEEptEv' type='func-type' binding='weak-binding' visibility='default-visibility' is-defined='yes'/>
    <elf-symbol name='_ZNKSt10unique_ptrIcPDoFvPvEE3getEv' type='func-type' binding='weak-binding' visibility='default-visibility' is-defined='yes'/>
    <elf-symbol name='_ZNKSt10unique_ptrIcPDoFvPvEEcvbEv' type='func-type' binding='weak-binding' visibility='default-visibility' is-defined='yes'/>
    <elf-symbol name='_ZNKSt11unique_lockISt5mutexE5mutexEv' type='func-type' binding='weak-binding' visibility='default-visibility' is-defined='yes'/>
    <elf-symbol name='_ZNKSt12_Vector_baseIN8usbguard11USBDeviceIDESaIS1_EE19_M_get_Tp_allocatorEv' type='func-type' binding='weak-binding' visibility='default-visibility' is-defined='yes'/>
    <elf-symbol name='_ZNKSt12_Vector_baseIN8usbguard13RuleConditionESaIS1_EE19_M_get_Tp_allocatorEv' type='func-type' binding='weak-binding' visibility='default-visibility' is-defined='yes'/>
    <elf-symbol name='_ZNKSt12_Vector_baseIN8usbguard13USBDescriptorESaIS1_EE19_M_get_Tp_allocatorEv' type='func-type' binding='weak-binding' visibility='default-visibility' is-defined='yes'/>
    <elf-symbol name='_ZNKSt12_Vector_baseIN8usbguard16USBInterfaceTypeESaIS1_EE19_M_get_Tp_allocatorEv' type='func-type' binding='weak-binding' visibility='default-visibility' is-defined='yes'/>
    <elf-symbol name='_ZNKSt12_Vector_baseIN8usbguard4RuleESaIS1_EE19_M_get_Tp_allocatorEv' type='func-type' binding='weak-binding' visibility='default-visibility' is-defined='yes'/>
    <elf-symbol name='_ZNKSt12_Vector_baseINSt7__cxx1112basic_stringIcSt11char_traitsIcESaIcEEESaIS5_EE19_M_get_Tp_allocatorEv' type='func-type' binding='weak-binding' visibility='default-visibility' is-defined='yes'/>
    <elf-symbol name='_ZNKSt12_Vector_baseISt10shared_ptrIKN8usbguard4RuleEESaIS4_EE19_M_get_Tp_allocatorEv' type='func-type' binding='weak-binding' visibility='default-visibility' is-defined='yes'/>
    <elf-symbol name='_ZNKSt12_Vector_baseISt10shared_ptrIN8usbguard4RuleEESaIS3_EE19_M_get_Tp_allocatorEv' type='func-type' binding='weak-binding' visibility='default-visibility' is-defined='yes'/>
    <elf-symbol name='_ZNKSt12_Vector_baseISt10shared_ptrIN8usbguard6DeviceEESaIS3_EE19_M_get_Tp_allocatorEv' type='func-type' binding='weak-binding' visibility='default-visibility' is-defined='yes'/>
    <elf-symbol name='_ZNKSt12_Vector_baseISt10shared_ptrIN8usbguard7RuleSetEESaIS3_EE13get_allocatorEv' type='func-type' binding='weak-binding' visibility='default-visibility' is-defined='yes'/>
    <elf-symbol name='_ZNKSt12_Vector_baseISt10shared_ptrIN8usbguard7RuleSetEESaIS3_EE19_M_get_Tp_allocatorEv' type='func-type' binding='weak-binding' visibility='default-visibility' is-defined='yes'/>
    <elf-symbol name='_ZNKSt12_Vector_baseISt4pairINSt7__cxx1112basic_stringIcSt11char_traitsIcESaIcEEES6_ESaIS7_EE19_M_get_Tp_allocatorEv' type='func-type' binding='weak-binding' visibility='default-visibility' is-defined='yes'/>
    <elf-symbol name='_ZNKSt12_Vector_baseISt4pairIhmESaIS1_EE19_M_get_Tp_allocatorEv' type='func-type' binding='weak-binding' visibility='default-visibility' is-defined='yes'/>
    <elf-symbol name='_ZNKSt12__shared_ptrIKN8usbguard4RuleELN9__gnu_cxx12_Lock_policyE2EE3getEv' type='func-type' binding='weak-binding' visibility='default-visibility' is-defined='yes'/>
    <elf-symbol name='_ZNKSt12__shared_ptrIN8usbguard12AuditBackendELN9__gnu_cxx12_Lock_policyE2EE3getEv' type='func-type' binding='weak-binding' visibility='default-visibility' is-defined='yes'/>
    <elf-symbol name='_ZNKSt12__shared_ptrIN8usbguard12AuditBackendELN9__gnu_cxx12_Lock_policyE2EEcvbEv' type='func-type' binding='weak-binding' visibility='default-visibility' is-defined='yes'/>
    <elf-symbol name='_ZNKSt12__shared_ptrIN8usbguard4RuleELN9__gnu_cxx12_Lock_policyE2EE3getEv' type='func-type' binding='weak-binding' visibility='default-visibility' is-defined='yes'/>
    <elf-symbol name='_ZNKSt12__shared_ptrIN8usbguard4RuleELN9__gnu_cxx12_Lock_policyE2EEcvbEv' type='func-type' binding='weak-binding' visibility='default-visibility' is-defined='yes'/>
    <elf-symbol name='_ZNKSt12__shared_ptrIN8usbguard6DeviceELN9__gnu_cxx12_Lock_policyE2EE3getEv' type='func-type' binding='weak-binding' visibility='default-visibility' is-defined='yes'/>
    <elf-symbol name='_ZNKSt12__shared_ptrIN8usbguard7RuleSetELN9__gnu_cxx12_Lock_policyE2EE3getEv' type='func-type' binding='weak-binding' visibility='default-visibility' is-defined='yes'/>
    <elf-symbol name='_ZNKSt12__shared_ptrINSt13__future_base13_State_baseV2ELN9__gnu_cxx12_Lock_policyE2EE3getEv' type='func-type' binding='weak-binding' visibility='default-visibility' is-defined='yes'/>
    <elf-symbol name='_ZNKSt12__shared_ptrINSt13__future_base13_State_baseV2ELN9__gnu_cxx12_Lock_policyE2EE6uniqueEv' type='func-type' binding='weak-binding' visibility='default-visibility' is-defined='yes'/>
    <elf-symbol name='_ZNKSt12__shared_ptrINSt13__future_base13_State_baseV2ELN9__gnu_cxx12_Lock_policyE2EEcvbEv' type='func-type' binding='weak-binding' visibility='default-visibility' is-defined='yes'/>
    <elf-symbol name='_ZNKSt13_Rb_tree_nodeISt4pairIKNSt7__cxx1112basic_stringIcSt11char_traitsIcESaIcEEES6_EE9_M_valptrEv' type='func-type' binding='weak-binding' visibility='default-visibility' is-defined='yes'/>
    <elf-symbol name='_ZNKSt13_Rb_tree_nodeISt4pairIKNSt7__cxx1112basic_stringIcSt11char_traitsIcESaIcEEESt10unique_ptrIN8usbguard7LogSinkESt14default_deleteISA_EEEE9_M_valptrEv' type='func-type' binding='weak-binding' visibility='default-visibility' is-defined='yes'/>
    <elf-symbol name='_ZNKSt13_Rb_tree_nodeISt4pairIKNSt7__cxx1112basic_stringIcSt11char_traitsIcESaIcEEEjEE9_M_valptrEv' type='func-type' binding='weak-binding' visibility='default-visibility' is-defined='yes'/>
    <elf-symbol name='_ZNKSt13_Rb_tree_nodeISt4pairIKjSt10shared_ptrIN8usbguard6DeviceEEEE9_M_valptrEv' type='func-type' binding='weak-binding' visibility='default-visibility' is-defined='yes'/>
    <elf-symbol name='_ZNKSt13__atomic_baseIjEcvjEv' type='func-type' binding='weak-binding' visibility='default-visibility' is-defined='yes'/>
    <elf-symbol name='_ZNKSt13__future_base12_Result_base8_DeleterclEPS0_' type='func-type' binding='weak-binding' visibility='default-visibility' is-defined='yes'/>
    <elf-symbol name='_ZNKSt13__future_base13_State_baseV221_M_is_deferred_futureEv' type='func-type' binding='weak-binding' visibility='default-visibility' is-defined='yes'/>
    <elf-symbol name='_ZNKSt13__future_base13_State_baseV27_SetterISt10unique_ptrIN6google8protobuf7MessageESt14default_deleteIS5_EEOS8_EclEv' type='func-type' binding='weak-binding' visibility='default-visibility' is-defined='yes'/>
    <elf-symbol name='_ZNKSt13unordered_mapIN8usbguard9IPCServer13AccessControl7SectionEhNS2_11SectionHashESt8equal_toIS3_ESaISt4pairIKS3_hEEE3endEv' type='func-type' binding='weak-binding' visibility='default-visibility' is-defined='yes'/>
    <elf-symbol name='_ZNKSt13unordered_mapIN8usbguard9IPCServer13AccessControl7SectionEhNS2_11SectionHashESt8equal_toIS3_ESaISt4pairIKS3_hEEE4cendEv' type='func-type' binding='weak-binding' visibility='default-visibility' is-defined='yes'/>
    <elf-symbol name='_ZNKSt13unordered_mapIN8usbguard9IPCServer13AccessControl7SectionEhNS2_11SectionHashESt8equal_toIS3_ESaISt4pairIKS3_hEEE4findERS8_' type='func-type' binding='weak-binding' visibility='default-visibility' is-defined='yes'/>
    <elf-symbol name='_ZNKSt13unordered_mapIN8usbguard9IPCServer13AccessControl7SectionEhNS2_11SectionHashESt8equal_toIS3_ESaISt4pairIKS3_hEEE5beginEv' type='func-type' binding='weak-binding' visibility='default-visibility' is-defined='yes'/>
    <elf-symbol name='_ZNKSt13unordered_mapINSt7__cxx1112basic_stringIcSt11char_traitsIcESaIcEEEN8usbguard9IPCServer13AccessControlESt4hashIS5_ESt8equal_toIS5_ESaISt4pairIKS5_S8_EEE3endEv' type='func-type' binding='weak-binding' visibility='default-visibility' is-defined='yes'/>
    <elf-symbol name='_ZNKSt13unordered_mapINSt7__cxx1112basic_stringIcSt11char_traitsIcESaIcEEEN8usbguard9IPCServer13AccessControlESt4hashIS5_ESt8equal_toIS5_ESaISt4pairIKS5_S8_EEE4cendEv' type='func-type' binding='weak-binding' visibility='default-visibility' is-defined='yes'/>
    <elf-symbol name='_ZNKSt13unordered_mapINSt7__cxx1112basic_stringIcSt11char_traitsIcESaIcEEEN8usbguard9IPCServer13AccessControlESt4hashIS5_ESt8equal_toIS5_ESaISt4pairIKS5_S8_EEE4findERSE_' type='func-type' binding='weak-binding' visibility='default-visibility' is-defined='yes'/>
    <elf-symbol name='_ZNKSt13unordered_mapINSt7__cxx1112basic_stringIcSt11char_traitsIcESaIcEEEN8usbguard9IPCServer13AccessControlESt4hashIS5_ESt8equal_toIS5_ESaISt4pairIKS5_S8_EEE5beginEv' type='func-type' binding='weak-binding' visibility='default-visibility' is-defined='yes'/>
    <elf-symbol name='_ZNKSt13unordered_mapINSt7__cxx1112basic_stringIcSt11char_traitsIcESaIcEEEN8usbguard9IPCServer13AccessControlESt4hashIS5_ESt8equal_toIS5_ESaISt4pairIKS5_S8_EEE5emptyEv' type='func-type' binding='weak-binding' visibility='default-visibility' is-defined='yes'/>
    <elf-symbol name='_ZNKSt13unordered_mapIhSt6vectorIN8usbguard13USBDescriptorESaIS2_EESt4hashIhESt8equal_toIhESaISt4pairIKhS4_EEE3endEv' type='func-type' binding='weak-binding' visibility='default-visibility' is-defined='yes'/>
    <elf-symbol name='_ZNKSt13unordered_mapIhSt6vectorIN8usbguard13USBDescriptorESaIS2_EESt4hashIhESt8equal_toIhESaISt4pairIKhS4_EEE4findERSA_' type='func-type' binding='weak-binding' visibility='default-visibility' is-defined='yes'/>
    <elf-symbol name='_ZNKSt13unordered_mapIhSt6vectorIN8usbguard13USBDescriptorESaIS2_EESt4hashIhESt8equal_toIhESaISt4pairIKhS4_EEE5countERSA_' type='func-type' binding='weak-binding' visibility='default-visibility' is-defined='yes'/>
    <elf-symbol name='_ZNKSt13unordered_mapIhmSt4hashIhESt8equal_toIhESaISt4pairIKhmEEE3endEv' type='func-type' binding='weak-binding' visibility='default-visibility' is-defined='yes'/>
    <elf-symbol name='_ZNKSt13unordered_mapIhmSt4hashIhESt8equal_toIhESaISt4pairIKhmEEE5beginEv' type='func-type' binding='weak-binding' visibility='default-visibility' is-defined='yes'/>
    <elf-symbol name='_ZNKSt13unordered_mapIjN8usbguard9IPCServer13AccessControlESt4hashIjESt8equal_toIjESaISt4pairIKjS2_EEE3endEv' type='func-type' binding='weak-binding' visibility='default-visibility' is-defined='yes'/>
    <elf-symbol name='_ZNKSt13unordered_mapIjN8usbguard9IPCServer13AccessControlESt4hashIjESt8equal_toIjESaISt4pairIKjS2_EEE4cendEv' type='func-type' binding='weak-binding' visibility='default-visibility' is-defined='yes'/>
    <elf-symbol name='_ZNKSt13unordered_mapIjN8usbguard9IPCServer13AccessControlESt4hashIjESt8equal_toIjESaISt4pairIKjS2_EEE4findERS8_' type='func-type' binding='weak-binding' visibility='default-visibility' is-defined='yes'/>
    <elf-symbol name='_ZNKSt13unordered_mapIjN8usbguard9IPCServer13AccessControlESt4hashIjESt8equal_toIjESaISt4pairIKjS2_EEE5beginEv' type='func-type' binding='weak-binding' visibility='default-visibility' is-defined='yes'/>
    <elf-symbol name='_ZNKSt13unordered_mapIjN8usbguard9IPCServer13AccessControlESt4hashIjESt8equal_toIjESaISt4pairIKjS2_EEE5emptyEv' type='func-type' binding='weak-binding' visibility='default-visibility' is-defined='yes'/>
    <elf-symbol name='_ZNKSt14_Function_base8_M_emptyEv' type='func-type' binding='weak-binding' visibility='default-visibility' is-defined='yes'/>
    <elf-symbol name='_ZNKSt14__shared_countILN9__gnu_cxx12_Lock_policyE2EE16_M_get_use_countEv' type='func-type' binding='weak-binding' visibility='default-visibility' is-defined='yes'/>
    <elf-symbol name='_ZNKSt14__shared_countILN9__gnu_cxx12_Lock_policyE2EE9_M_uniqueEv' type='func-type' binding='weak-binding' visibility='default-visibility' is-defined='yes'/>
    <elf-symbol name='_ZNKSt14default_deleteIN8usbguard12AuditBackendEEclEPS1_' type='func-type' binding='weak-binding' visibility='default-visibility' is-defined='yes'/>
    <elf-symbol name='_ZNKSt14default_deleteIN8usbguard17RuleConditionBaseEEclEPS1_' type='func-type' binding='weak-binding' visibility='default-visibility' is-defined='yes'/>
    <elf-symbol name='_ZNKSt14default_deleteIN8usbguard7LogSinkEEclEPS1_' type='func-type' binding='weak-binding' visibility='default-visibility' is-defined='yes'/>
    <elf-symbol name='_ZNKSt14default_deleteIN9__gnu_cxx13stdio_filebufIcSt11char_traitsIcEEEEclEPS4_' type='func-type' binding='weak-binding' visibility='default-visibility' is-defined='yes'/>
    <elf-symbol name='_ZNKSt14default_deleteINSt6thread6_StateEEclEPS1_' type='func-type' binding='weak-binding' visibility='default-visibility' is-defined='yes'/>
    <elf-symbol name='_ZNKSt15__str_hash_baseIcSaIcENSt7__cxx1112basic_stringIcSt11char_traitsIcES0_EEEclERKS5_' type='func-type' binding='weak-binding' visibility='default-visibility' is-defined='yes'/>
    <elf-symbol name='_ZNKSt15__uniq_ptr_implIN8usbguard12AuditBackendESt14default_deleteIS1_EE6_M_ptrEv' type='func-type' binding='weak-binding' visibility='default-visibility' is-defined='yes'/>
    <elf-symbol name='_ZNKSt15__uniq_ptr_implIN8usbguard17RuleConditionBaseESt14default_deleteIS1_EE6_M_ptrEv' type='func-type' binding='weak-binding' visibility='default-visibility' is-defined='yes'/>
    <elf-symbol name='_ZNKSt15__uniq_ptr_implIN8usbguard7LogSinkESt14default_deleteIS1_EE6_M_ptrEv' type='func-type' binding='weak-binding' visibility='default-visibility' is-defined='yes'/>
    <elf-symbol name='_ZNKSt15__uniq_ptr_implIN9__gnu_cxx13stdio_filebufIcSt11char_traitsIcEEESt14default_deleteIS4_EE6_M_ptrEv' type='func-type' binding='weak-binding' visibility='default-visibility' is-defined='yes'/>
    <elf-symbol name='_ZNKSt15__uniq_ptr_implINSt13__future_base12_Result_baseENS1_8_DeleterEE6_M_ptrEv' type='func-type' binding='weak-binding' visibility='default-visibility' is-defined='yes'/>
    <elf-symbol name='_ZNKSt15__uniq_ptr_implINSt13__future_base7_ResultISt10unique_ptrIN6google8protobuf7MessageESt14default_deleteIS5_EEEENS0_12_Result_base8_DeleterEE6_M_ptrEv' type='func-type' binding='weak-binding' visibility='default-visibility' is-defined='yes'/>
    <elf-symbol name='_ZNKSt15__uniq_ptr_implIcPDoFvPvEE6_M_ptrEv' type='func-type' binding='weak-binding' visibility='default-visibility' is-defined='yes'/>
    <elf-symbol name='_ZNKSt16_Sp_counted_baseILN9__gnu_cxx12_Lock_policyE2EE16_M_get_use_countEv' type='func-type' binding='weak-binding' visibility='default-visibility' is-defined='yes'/>
    <elf-symbol name='_ZNKSt16initializer_listIN8usbguard9IPCServer13AccessControl7SectionEE3endEv' type='func-type' binding='weak-binding' visibility='default-visibility' is-defined='yes'/>
    <elf-symbol name='_ZNKSt16initializer_listIN8usbguard9IPCServer13AccessControl7SectionEE4sizeEv' type='func-type' binding='weak-binding' visibility='default-visibility' is-defined='yes'/>
    <elf-symbol name='_ZNKSt16initializer_listIN8usbguard9IPCServer13AccessControl7SectionEE5beginEv' type='func-type' binding='weak-binding' visibility='default-visibility' is-defined='yes'/>
    <elf-symbol name='_ZNKSt16initializer_listIN8usbguard9IPCServer13AccessControl9PrivilegeEE3endEv' type='func-type' binding='weak-binding' visibility='default-visibility' is-defined='yes'/>
    <elf-symbol name='_ZNKSt16initializer_listIN8usbguard9IPCServer13AccessControl9PrivilegeEE4sizeEv' type='func-type' binding='weak-binding' visibility='default-visibility' is-defined='yes'/>
    <elf-symbol name='_ZNKSt16initializer_listIN8usbguard9IPCServer13AccessControl9PrivilegeEE5beginEv' type='func-type' binding='weak-binding' visibility='default-visibility' is-defined='yes'/>
    <elf-symbol name='_ZNKSt16initializer_listINSt7__cxx1112basic_stringIcSt11char_traitsIcESaIcEEEE3endEv' type='func-type' binding='weak-binding' visibility='default-visibility' is-defined='yes'/>
    <elf-symbol name='_ZNKSt16initializer_listINSt7__cxx1112basic_stringIcSt11char_traitsIcESaIcEEEE4sizeEv' type='func-type' binding='weak-binding' visibility='default-visibility' is-defined='yes'/>
    <elf-symbol name='_ZNKSt16initializer_listINSt7__cxx1112basic_stringIcSt11char_traitsIcESaIcEEEE5beginEv' type='func-type' binding='weak-binding' visibility='default-visibility' is-defined='yes'/>
    <elf-symbol name='_ZNKSt16initializer_listIPKcE3endEv' type='func-type' binding='weak-binding' visibility='default-visibility' is-defined='yes'/>
    <elf-symbol name='_ZNKSt16initializer_listIPKcE4sizeEv' type='func-type' binding='weak-binding' visibility='default-visibility' is-defined='yes'/>
    <elf-symbol name='_ZNKSt16initializer_listIPKcE5beginEv' type='func-type' binding='weak-binding' visibility='default-visibility' is-defined='yes'/>
    <elf-symbol name='_ZNKSt16initializer_listISt4pairINSt7__cxx1112basic_stringIcSt11char_traitsIcESaIcEEEN8usbguard13DeviceManager21AuthorizedDefaultTypeEEE3endEv' type='func-type' binding='weak-binding' visibility='default-visibility' is-defined='yes'/>
    <elf-symbol name='_ZNKSt16initializer_listISt4pairINSt7__cxx1112basic_stringIcSt11char_traitsIcESaIcEEEN8usbguard13DeviceManager21AuthorizedDefaultTypeEEE4sizeEv' type='func-type' binding='weak-binding' visibility='default-visibility' is-defined='yes'/>
    <elf-symbol name='_ZNKSt16initializer_listISt4pairINSt7__cxx1112basic_stringIcSt11char_traitsIcESaIcEEEN8usbguard13DeviceManager21AuthorizedDefaultTypeEEE5beginEv' type='func-type' binding='weak-binding' visibility='default-visibility' is-defined='yes'/>
    <elf-symbol name='_ZNKSt16initializer_listISt4pairINSt7__cxx1112basic_stringIcSt11char_traitsIcESaIcEEEN8usbguard4Rule11SetOperatorEEE3endEv' type='func-type' binding='weak-binding' visibility='default-visibility' is-defined='yes'/>
    <elf-symbol name='_ZNKSt16initializer_listISt4pairINSt7__cxx1112basic_stringIcSt11char_traitsIcESaIcEEEN8usbguard4Rule11SetOperatorEEE4sizeEv' type='func-type' binding='weak-binding' visibility='default-visibility' is-defined='yes'/>
    <elf-symbol name='_ZNKSt16initializer_listISt4pairINSt7__cxx1112basic_stringIcSt11char_traitsIcESaIcEEEN8usbguard4Rule11SetOperatorEEE5beginEv' type='func-type' binding='weak-binding' visibility='default-visibility' is-defined='yes'/>
    <elf-symbol name='_ZNKSt16initializer_listISt4pairINSt7__cxx1112basic_stringIcSt11char_traitsIcESaIcEEEN8usbguard4Rule6TargetEEE3endEv' type='func-type' binding='weak-binding' visibility='default-visibility' is-defined='yes'/>
    <elf-symbol name='_ZNKSt16initializer_listISt4pairINSt7__cxx1112basic_stringIcSt11char_traitsIcESaIcEEEN8usbguard4Rule6TargetEEE4sizeEv' type='func-type' binding='weak-binding' visibility='default-visibility' is-defined='yes'/>
    <elf-symbol name='_ZNKSt16initializer_listISt4pairINSt7__cxx1112basic_stringIcSt11char_traitsIcESaIcEEEN8usbguard4Rule6TargetEEE5beginEv' type='func-type' binding='weak-binding' visibility='default-visibility' is-defined='yes'/>
    <elf-symbol name='_ZNKSt16initializer_listISt4pairINSt7__cxx1112basic_stringIcSt11char_traitsIcESaIcEEEN8usbguard9IPCServer13AccessControl7SectionEEE3endEv' type='func-type' binding='weak-binding' visibility='default-visibility' is-defined='yes'/>
    <elf-symbol name='_ZNKSt16initializer_listISt4pairINSt7__cxx1112basic_stringIcSt11char_traitsIcESaIcEEEN8usbguard9IPCServer13AccessControl7SectionEEE4sizeEv' type='func-type' binding='weak-binding' visibility='default-visibility' is-defined='yes'/>
    <elf-symbol name='_ZNKSt16initializer_listISt4pairINSt7__cxx1112basic_stringIcSt11char_traitsIcESaIcEEEN8usbguard9IPCServer13AccessControl7SectionEEE5beginEv' type='func-type' binding='weak-binding' visibility='default-visibility' is-defined='yes'/>
    <elf-symbol name='_ZNKSt16initializer_listISt4pairINSt7__cxx1112basic_stringIcSt11char_traitsIcESaIcEEEN8usbguard9IPCServer13AccessControl9PrivilegeEEE3endEv' type='func-type' binding='weak-binding' visibility='default-visibility' is-defined='yes'/>
    <elf-symbol name='_ZNKSt16initializer_listISt4pairINSt7__cxx1112basic_stringIcSt11char_traitsIcESaIcEEEN8usbguard9IPCServer13AccessControl9PrivilegeEEE4sizeEv' type='func-type' binding='weak-binding' visibility='default-visibility' is-defined='yes'/>
    <elf-symbol name='_ZNKSt16initializer_listISt4pairINSt7__cxx1112basic_stringIcSt11char_traitsIcESaIcEEEN8usbguard9IPCServer13AccessControl9PrivilegeEEE5beginEv' type='func-type' binding='weak-binding' visibility='default-visibility' is-defined='yes'/>
    <elf-symbol name='_ZNKSt16initializer_listISt4pairIjNSt7__cxx1112basic_stringIcSt11char_traitsIcESaIcEEEEE3endEv' type='func-type' binding='weak-binding' visibility='default-visibility' is-defined='yes'/>
    <elf-symbol name='_ZNKSt16initializer_listISt4pairIjNSt7__cxx1112basic_stringIcSt11char_traitsIcESaIcEEEEE4sizeEv' type='func-type' binding='weak-binding' visibility='default-visibility' is-defined='yes'/>
    <elf-symbol name='_ZNKSt16initializer_listISt4pairIjNSt7__cxx1112basic_stringIcSt11char_traitsIcESaIcEEEEE5beginEv' type='func-type' binding='weak-binding' visibility='default-visibility' is-defined='yes'/>
    <elf-symbol name='_ZNKSt16initializer_listIcE3endEv' type='func-type' binding='weak-binding' visibility='default-visibility' is-defined='yes'/>
    <elf-symbol name='_ZNKSt16initializer_listIcE4sizeEv' type='func-type' binding='weak-binding' visibility='default-visibility' is-defined='yes'/>
    <elf-symbol name='_ZNKSt16initializer_listIcE5beginEv' type='func-type' binding='weak-binding' visibility='default-visibility' is-defined='yes'/>
    <elf-symbol name='_ZNKSt17_Rb_tree_iteratorISt4pairIKNSt7__cxx1112basic_stringIcSt11char_traitsIcESaIcEEES6_EEdeEv' type='func-type' binding='weak-binding' visibility='default-visibility' is-defined='yes'/>
    <elf-symbol name='_ZNKSt17_Rb_tree_iteratorISt4pairIKNSt7__cxx1112basic_stringIcSt11char_traitsIcESaIcEEESt10unique_ptrIN8usbguard7LogSinkESt14default_deleteISA_EEEEdeEv' type='func-type' binding='weak-binding' visibility='default-visibility' is-defined='yes'/>
    <elf-symbol name='_ZNKSt17_Rb_tree_iteratorISt4pairIKNSt7__cxx1112basic_stringIcSt11char_traitsIcESaIcEEEjEEdeEv' type='func-type' binding='weak-binding' visibility='default-visibility' is-defined='yes'/>
    <elf-symbol name='_ZNKSt17_Rb_tree_iteratorISt4pairIKjSt10shared_ptrIN8usbguard6DeviceEEEEdeEv' type='func-type' binding='weak-binding' visibility='default-visibility' is-defined='yes'/>
    <elf-symbol name='_ZNKSt17_Rb_tree_iteratorISt4pairIKjSt10shared_ptrIN8usbguard6DeviceEEEEptEv' type='func-type' binding='weak-binding' visibility='default-visibility' is-defined='yes'/>
    <elf-symbol name='_ZNKSt19__shared_ptr_accessIKN8usbguard4RuleELN9__gnu_cxx12_Lock_policyE2ELb0ELb0EE6_M_getEv' type='func-type' binding='weak-binding' visibility='default-visibility' is-defined='yes'/>
    <elf-symbol name='_ZNKSt19__shared_ptr_accessIKN8usbguard4RuleELN9__gnu_cxx12_Lock_policyE2ELb0ELb0EEdeEv' type='func-type' binding='weak-binding' visibility='default-visibility' is-defined='yes'/>
    <elf-symbol name='_ZNKSt19__shared_ptr_accessIKN8usbguard4RuleELN9__gnu_cxx12_Lock_policyE2ELb0ELb0EEptEv' type='func-type' binding='weak-binding' visibility='default-visibility' is-defined='yes'/>
    <elf-symbol name='_ZNKSt19__shared_ptr_accessIN8usbguard12AuditBackendELN9__gnu_cxx12_Lock_policyE2ELb0ELb0EE6_M_getEv' type='func-type' binding='weak-binding' visibility='default-visibility' is-defined='yes'/>
    <elf-symbol name='_ZNKSt19__shared_ptr_accessIN8usbguard12AuditBackendELN9__gnu_cxx12_Lock_policyE2ELb0ELb0EEptEv' type='func-type' binding='weak-binding' visibility='default-visibility' is-defined='yes'/>
    <elf-symbol name='_ZNKSt19__shared_ptr_accessIN8usbguard4RuleELN9__gnu_cxx12_Lock_policyE2ELb0ELb0EE6_M_getEv' type='func-type' binding='weak-binding' visibility='default-visibility' is-defined='yes'/>
    <elf-symbol name='_ZNKSt19__shared_ptr_accessIN8usbguard4RuleELN9__gnu_cxx12_Lock_policyE2ELb0ELb0EEdeEv' type='func-type' binding='weak-binding' visibility='default-visibility' is-defined='yes'/>
    <elf-symbol name='_ZNKSt19__shared_ptr_accessIN8usbguard4RuleELN9__gnu_cxx12_Lock_policyE2ELb0ELb0EEptEv' type='func-type' binding='weak-binding' visibility='default-visibility' is-defined='yes'/>
    <elf-symbol name='_ZNKSt19__shared_ptr_accessIN8usbguard6DeviceELN9__gnu_cxx12_Lock_policyE2ELb0ELb0EE6_M_getEv' type='func-type' binding='weak-binding' visibility='default-visibility' is-defined='yes'/>
    <elf-symbol name='_ZNKSt19__shared_ptr_accessIN8usbguard6DeviceELN9__gnu_cxx12_Lock_policyE2ELb0ELb0EEptEv' type='func-type' binding='weak-binding' visibility='default-visibility' is-defined='yes'/>
    <elf-symbol name='_ZNKSt19__shared_ptr_accessIN8usbguard7RuleSetELN9__gnu_cxx12_Lock_policyE2ELb0ELb0EE6_M_getEv' type='func-type' binding='weak-binding' visibility='default-visibility' is-defined='yes'/>
    <elf-symbol name='_ZNKSt19__shared_ptr_accessIN8usbguard7RuleSetELN9__gnu_cxx12_Lock_policyE2ELb0ELb0EEptEv' type='func-type' binding='weak-binding' visibility='default-visibility' is-defined='yes'/>
    <elf-symbol name='_ZNKSt19__shared_ptr_accessINSt13__future_base13_State_baseV2ELN9__gnu_cxx12_Lock_policyE2ELb0ELb0EE6_M_getEv' type='func-type' binding='weak-binding' visibility='default-visibility' is-defined='yes'/>
    <elf-symbol name='_ZNKSt19__shared_ptr_accessINSt13__future_base13_State_baseV2ELN9__gnu_cxx12_Lock_policyE2ELb0ELb0EEdeEv' type='func-type' binding='weak-binding' visibility='default-visibility' is-defined='yes'/>
    <elf-symbol name='_ZNKSt19__shared_ptr_accessINSt13__future_base13_State_baseV2ELN9__gnu_cxx12_Lock_policyE2ELb0ELb0EEptEv' type='func-type' binding='weak-binding' visibility='default-visibility' is-defined='yes'/>
    <elf-symbol name='_ZNKSt22bernoulli_distribution10param_type1pEv' type='func-type' binding='weak-binding' visibility='default-visibility' is-defined='yes'/>
    <elf-symbol name='_ZNKSt23_Rb_tree_const_iteratorISt4pairIKNSt7__cxx1112basic_stringIcSt11char_traitsIcESaIcEEES6_EE13_M_const_castEv' type='func-type' binding='weak-binding' visibility='default-visibility' is-defined='yes'/>
    <elf-symbol name='_ZNKSt23_Rb_tree_const_iteratorISt4pairIKNSt7__cxx1112basic_stringIcSt11char_traitsIcESaIcEEES6_EEdeEv' type='func-type' binding='weak-binding' visibility='default-visibility' is-defined='yes'/>
    <elf-symbol name='_ZNKSt23_Rb_tree_const_iteratorISt4pairIKNSt7__cxx1112basic_stringIcSt11char_traitsIcESaIcEEES6_EEptEv' type='func-type' binding='weak-binding' visibility='default-visibility' is-defined='yes'/>
    <elf-symbol name='_ZNKSt23_Rb_tree_const_iteratorISt4pairIKNSt7__cxx1112basic_stringIcSt11char_traitsIcESaIcEEESt10unique_ptrIN8usbguard7LogSinkESt14default_deleteISA_EEEE13_M_const_castEv' type='func-type' binding='weak-binding' visibility='default-visibility' is-defined='yes'/>
    <elf-symbol name='_ZNKSt23_Rb_tree_const_iteratorISt4pairIKNSt7__cxx1112basic_stringIcSt11char_traitsIcESaIcEEEjEE13_M_const_castEv' type='func-type' binding='weak-binding' visibility='default-visibility' is-defined='yes'/>
    <elf-symbol name='_ZNKSt23_Rb_tree_const_iteratorISt4pairIKNSt7__cxx1112basic_stringIcSt11char_traitsIcESaIcEEEjEEptEv' type='func-type' binding='weak-binding' visibility='default-visibility' is-defined='yes'/>
    <elf-symbol name='_ZNKSt23_Rb_tree_const_iteratorISt4pairIKjSt10shared_ptrIN8usbguard6DeviceEEEE13_M_const_castEv' type='func-type' binding='weak-binding' visibility='default-visibility' is-defined='yes'/>
    <elf-symbol name='_ZNKSt3mapINSt7__cxx1112basic_stringIcSt11char_traitsIcESaIcEEES5_St4lessIS5_ESaISt4pairIKS5_S5_EEE3endEv' type='func-type' binding='weak-binding' visibility='default-visibility' is-defined='yes'/>
    <elf-symbol name='_ZNKSt3mapINSt7__cxx1112basic_stringIcSt11char_traitsIcESaIcEEES5_St4lessIS5_ESaISt4pairIKS5_S5_EEE4findERS9_' type='func-type' binding='weak-binding' visibility='default-visibility' is-defined='yes'/>
    <elf-symbol name='_ZNKSt3mapINSt7__cxx1112basic_stringIcSt11char_traitsIcESaIcEEES5_St4lessIS5_ESaISt4pairIKS5_S5_EEE5beginEv' type='func-type' binding='weak-binding' visibility='default-visibility' is-defined='yes'/>
    <elf-symbol name='_ZNKSt3mapINSt7__cxx1112basic_stringIcSt11char_traitsIcESaIcEEES5_St4lessIS5_ESaISt4pairIKS5_S5_EEE5countERS9_' type='func-type' binding='weak-binding' visibility='default-visibility' is-defined='yes'/>
    <elf-symbol name='_ZNKSt3mapINSt7__cxx1112basic_stringIcSt11char_traitsIcESaIcEEES5_St4lessIS5_ESaISt4pairIKS5_S5_EEE8key_compEv' type='func-type' binding='weak-binding' visibility='default-visibility' is-defined='yes'/>
    <elf-symbol name='_ZNKSt3mapINSt7__cxx1112basic_stringIcSt11char_traitsIcESaIcEEESt10unique_ptrIN8usbguard7LogSinkESt14default_deleteIS8_EESt4lessIS5_ESaISt4pairIKS5_SB_EEE8key_compEv' type='func-type' binding='weak-binding' visibility='default-visibility' is-defined='yes'/>
    <elf-symbol name='_ZNKSt3mapINSt7__cxx1112basic_stringIcSt11char_traitsIcESaIcEEEjSt4lessIS5_ESaISt4pairIKS5_jEEE3endEv' type='func-type' binding='weak-binding' visibility='default-visibility' is-defined='yes'/>
    <elf-symbol name='_ZNKSt3mapINSt7__cxx1112basic_stringIcSt11char_traitsIcESaIcEEEjSt4lessIS5_ESaISt4pairIKS5_jEEE4findERS9_' type='func-type' binding='weak-binding' visibility='default-visibility' is-defined='yes'/>
    <elf-symbol name='_ZNKSt3mapINSt7__cxx1112basic_stringIcSt11char_traitsIcESaIcEEEjSt4lessIS5_ESaISt4pairIKS5_jEEE8key_compEv' type='func-type' binding='weak-binding' visibility='default-visibility' is-defined='yes'/>
    <elf-symbol name='_ZNKSt3mapIjSt10shared_ptrIN8usbguard6DeviceEESt4lessIjESaISt4pairIKjS3_EEE8key_compEv' type='func-type' binding='weak-binding' visibility='default-visibility' is-defined='yes'/>
    <elf-symbol name='_ZNKSt4hashIhEclEh' type='func-type' binding='weak-binding' visibility='default-visibility' is-defined='yes'/>
    <elf-symbol name='_ZNKSt4hashIjEclEj' type='func-type' binding='weak-binding' visibility='default-visibility' is-defined='yes'/>
    <elf-symbol name='_ZNKSt4lessINSt7__cxx1112basic_stringIcSt11char_traitsIcESaIcEEEEclERKS5_S8_' type='func-type' binding='weak-binding' visibility='default-visibility' is-defined='yes'/>
    <elf-symbol name='_ZNKSt4lessIjEclERKjS2_' type='func-type' binding='weak-binding' visibility='default-visibility' is-defined='yes'/>
    <elf-symbol name='_ZNKSt4lessImEclERKmS2_' type='func-type' binding='weak-binding' visibility='default-visibility' is-defined='yes'/>
    <elf-symbol name='_ZNKSt5ctypeIcE2isEtc' type='func-type' binding='weak-binding' visibility='default-visibility' is-defined='yes'/>
    <elf-symbol name='_ZNKSt5ctypeIcE7toupperEc' type='func-type' binding='weak-binding' visibility='default-visibility' is-defined='yes'/>
    <elf-symbol name='_ZNKSt6atomicIbEcvbEv' type='func-type' binding='weak-binding' visibility='default-visibility' is-defined='yes'/>
    <elf-symbol name='_ZNKSt6chrono10time_pointINS_3_V212steady_clockENS_8durationIlSt5ratioILl1ELl1000000000EEEEE16time_since_epochEv' type='func-type' binding='weak-binding' visibility='default-visibility' is-defined='yes'/>
    <elf-symbol name='_ZNKSt6chrono10time_pointINS_3_V212steady_clockENS_8durationIlSt5ratioILl1ELl1EEEEE16time_since_epochEv' type='func-type' binding='weak-binding' visibility='default-visibility' is-defined='yes'/>
    <elf-symbol name='_ZNKSt6chrono10time_pointINS_3_V212system_clockENS_8durationIlSt5ratioILl1ELl1000000000EEEEE16time_since_epochEv' type='func-type' binding='weak-binding' visibility='default-visibility' is-defined='yes'/>
    <elf-symbol name='_ZNKSt6chrono8durationIlSt5ratioILl1ELl1000000000EEE5countEv' type='func-type' binding='weak-binding' visibility='default-visibility' is-defined='yes'/>
    <elf-symbol name='_ZNKSt6chrono8durationIlSt5ratioILl1ELl1000EEE5countEv' type='func-type' binding='weak-binding' visibility='default-visibility' is-defined='yes'/>
    <elf-symbol name='_ZNKSt6chrono8durationIlSt5ratioILl1ELl1EEE5countEv' type='func-type' binding='weak-binding' visibility='default-visibility' is-defined='yes'/>
    <elf-symbol name='_ZNKSt6thread6get_idEv' type='func-type' binding='weak-binding' visibility='default-visibility' is-defined='yes'/>
    <elf-symbol name='_ZNKSt6thread8joinableEv' type='func-type' binding='weak-binding' visibility='default-visibility' is-defined='yes'/>
    <elf-symbol name='_ZNKSt6vectorIN8usbguard11USBDeviceIDESaIS1_EE12_M_check_lenEmPKc' type='func-type' binding='weak-binding' visibility='default-visibility' is-defined='yes'/>
    <elf-symbol name='_ZNKSt6vectorIN8usbguard11USBDeviceIDESaIS1_EE3endEv' type='func-type' binding='weak-binding' visibility='default-visibility' is-defined='yes'/>
    <elf-symbol name='_ZNKSt6vectorIN8usbguard11USBDeviceIDESaIS1_EE4sizeEv' type='func-type' binding='weak-binding' visibility='default-visibility' is-defined='yes'/>
    <elf-symbol name='_ZNKSt6vectorIN8usbguard11USBDeviceIDESaIS1_EE5beginEv' type='func-type' binding='weak-binding' visibility='default-visibility' is-defined='yes'/>
    <elf-symbol name='_ZNKSt6vectorIN8usbguard11USBDeviceIDESaIS1_EE8capacityEv' type='func-type' binding='weak-binding' visibility='default-visibility' is-defined='yes'/>
    <elf-symbol name='_ZNKSt6vectorIN8usbguard11USBDeviceIDESaIS1_EE8max_sizeEv' type='func-type' binding='weak-binding' visibility='default-visibility' is-defined='yes'/>
    <elf-symbol name='_ZNKSt6vectorIN8usbguard11USBDeviceIDESaIS1_EEixEm' type='func-type' binding='weak-binding' visibility='default-visibility' is-defined='yes'/>
    <elf-symbol name='_ZNKSt6vectorIN8usbguard13RuleConditionESaIS1_EE12_M_check_lenEmPKc' type='func-type' binding='weak-binding' visibility='default-visibility' is-defined='yes'/>
    <elf-symbol name='_ZNKSt6vectorIN8usbguard13RuleConditionESaIS1_EE3endEv' type='func-type' binding='weak-binding' visibility='default-visibility' is-defined='yes'/>
    <elf-symbol name='_ZNKSt6vectorIN8usbguard13RuleConditionESaIS1_EE4sizeEv' type='func-type' binding='weak-binding' visibility='default-visibility' is-defined='yes'/>
    <elf-symbol name='_ZNKSt6vectorIN8usbguard13RuleConditionESaIS1_EE5beginEv' type='func-type' binding='weak-binding' visibility='default-visibility' is-defined='yes'/>
    <elf-symbol name='_ZNKSt6vectorIN8usbguard13RuleConditionESaIS1_EE8capacityEv' type='func-type' binding='weak-binding' visibility='default-visibility' is-defined='yes'/>
    <elf-symbol name='_ZNKSt6vectorIN8usbguard13RuleConditionESaIS1_EE8max_sizeEv' type='func-type' binding='weak-binding' visibility='default-visibility' is-defined='yes'/>
    <elf-symbol name='_ZNKSt6vectorIN8usbguard13USBDescriptorESaIS1_EE12_M_check_lenEmPKc' type='func-type' binding='weak-binding' visibility='default-visibility' is-defined='yes'/>
    <elf-symbol name='_ZNKSt6vectorIN8usbguard13USBDescriptorESaIS1_EE4sizeEv' type='func-type' binding='weak-binding' visibility='default-visibility' is-defined='yes'/>
    <elf-symbol name='_ZNKSt6vectorIN8usbguard13USBDescriptorESaIS1_EE8max_sizeEv' type='func-type' binding='weak-binding' visibility='default-visibility' is-defined='yes'/>
    <elf-symbol name='_ZNKSt6vectorIN8usbguard16USBInterfaceTypeESaIS1_EE12_M_check_lenEmPKc' type='func-type' binding='weak-binding' visibility='default-visibility' is-defined='yes'/>
    <elf-symbol name='_ZNKSt6vectorIN8usbguard16USBInterfaceTypeESaIS1_EE3endEv' type='func-type' binding='weak-binding' visibility='default-visibility' is-defined='yes'/>
    <elf-symbol name='_ZNKSt6vectorIN8usbguard16USBInterfaceTypeESaIS1_EE4sizeEv' type='func-type' binding='weak-binding' visibility='default-visibility' is-defined='yes'/>
    <elf-symbol name='_ZNKSt6vectorIN8usbguard16USBInterfaceTypeESaIS1_EE5beginEv' type='func-type' binding='weak-binding' visibility='default-visibility' is-defined='yes'/>
    <elf-symbol name='_ZNKSt6vectorIN8usbguard16USBInterfaceTypeESaIS1_EE8capacityEv' type='func-type' binding='weak-binding' visibility='default-visibility' is-defined='yes'/>
    <elf-symbol name='_ZNKSt6vectorIN8usbguard16USBInterfaceTypeESaIS1_EE8max_sizeEv' type='func-type' binding='weak-binding' visibility='default-visibility' is-defined='yes'/>
    <elf-symbol name='_ZNKSt6vectorIN8usbguard16USBInterfaceTypeESaIS1_EEixEm' type='func-type' binding='weak-binding' visibility='default-visibility' is-defined='yes'/>
    <elf-symbol name='_ZNKSt6vectorIN8usbguard4RuleESaIS1_EE12_M_check_lenEmPKc' type='func-type' binding='weak-binding' visibility='default-visibility' is-defined='yes'/>
    <elf-symbol name='_ZNKSt6vectorIN8usbguard4RuleESaIS1_EE3endEv' type='func-type' binding='weak-binding' visibility='default-visibility' is-defined='yes'/>
    <elf-symbol name='_ZNKSt6vectorIN8usbguard4RuleESaIS1_EE4sizeEv' type='func-type' binding='weak-binding' visibility='default-visibility' is-defined='yes'/>
    <elf-symbol name='_ZNKSt6vectorIN8usbguard4RuleESaIS1_EE5beginEv' type='func-type' binding='weak-binding' visibility='default-visibility' is-defined='yes'/>
    <elf-symbol name='_ZNKSt6vectorIN8usbguard4RuleESaIS1_EE5emptyEv' type='func-type' binding='weak-binding' visibility='default-visibility' is-defined='yes'/>
    <elf-symbol name='_ZNKSt6vectorIN8usbguard4RuleESaIS1_EE8max_sizeEv' type='func-type' binding='weak-binding' visibility='default-visibility' is-defined='yes'/>
    <elf-symbol name='_ZNKSt6vectorINSt7__cxx1112basic_stringIcSt11char_traitsIcESaIcEEESaIS5_EE12_M_check_lenEmPKc' type='func-type' binding='weak-binding' visibility='default-visibility' is-defined='yes'/>
    <elf-symbol name='_ZNKSt6vectorINSt7__cxx1112basic_stringIcSt11char_traitsIcESaIcEEESaIS5_EE3endEv' type='func-type' binding='weak-binding' visibility='default-visibility' is-defined='yes'/>
    <elf-symbol name='_ZNKSt6vectorINSt7__cxx1112basic_stringIcSt11char_traitsIcESaIcEEESaIS5_EE4cendEv' type='func-type' binding='weak-binding' visibility='default-visibility' is-defined='yes'/>
    <elf-symbol name='_ZNKSt6vectorINSt7__cxx1112basic_stringIcSt11char_traitsIcESaIcEEESaIS5_EE4sizeEv' type='func-type' binding='weak-binding' visibility='default-visibility' is-defined='yes'/>
    <elf-symbol name='_ZNKSt6vectorINSt7__cxx1112basic_stringIcSt11char_traitsIcESaIcEEESaIS5_EE5beginEv' type='func-type' binding='weak-binding' visibility='default-visibility' is-defined='yes'/>
    <elf-symbol name='_ZNKSt6vectorINSt7__cxx1112basic_stringIcSt11char_traitsIcESaIcEEESaIS5_EE5emptyEv' type='func-type' binding='weak-binding' visibility='default-visibility' is-defined='yes'/>
    <elf-symbol name='_ZNKSt6vectorINSt7__cxx1112basic_stringIcSt11char_traitsIcESaIcEEESaIS5_EE6cbeginEv' type='func-type' binding='weak-binding' visibility='default-visibility' is-defined='yes'/>
    <elf-symbol name='_ZNKSt6vectorINSt7__cxx1112basic_stringIcSt11char_traitsIcESaIcEEESaIS5_EE8capacityEv' type='func-type' binding='weak-binding' visibility='default-visibility' is-defined='yes'/>
    <elf-symbol name='_ZNKSt6vectorINSt7__cxx1112basic_stringIcSt11char_traitsIcESaIcEEESaIS5_EE8max_sizeEv' type='func-type' binding='weak-binding' visibility='default-visibility' is-defined='yes'/>
    <elf-symbol name='_ZNKSt6vectorINSt7__cxx1112basic_stringIcSt11char_traitsIcESaIcEEESaIS5_EEixEm' type='func-type' binding='weak-binding' visibility='default-visibility' is-defined='yes'/>
    <elf-symbol name='_ZNKSt6vectorISt10shared_ptrIKN8usbguard4RuleEESaIS4_EE12_M_check_lenEmPKc' type='func-type' binding='weak-binding' visibility='default-visibility' is-defined='yes'/>
    <elf-symbol name='_ZNKSt6vectorISt10shared_ptrIKN8usbguard4RuleEESaIS4_EE4sizeEv' type='func-type' binding='weak-binding' visibility='default-visibility' is-defined='yes'/>
    <elf-symbol name='_ZNKSt6vectorISt10shared_ptrIKN8usbguard4RuleEESaIS4_EE8max_sizeEv' type='func-type' binding='weak-binding' visibility='default-visibility' is-defined='yes'/>
    <elf-symbol name='_ZNKSt6vectorISt10shared_ptrIN8usbguard4RuleEESaIS3_EE12_M_check_lenEmPKc' type='func-type' binding='weak-binding' visibility='default-visibility' is-defined='yes'/>
    <elf-symbol name='_ZNKSt6vectorISt10shared_ptrIN8usbguard4RuleEESaIS3_EE3endEv' type='func-type' binding='weak-binding' visibility='default-visibility' is-defined='yes'/>
    <elf-symbol name='_ZNKSt6vectorISt10shared_ptrIN8usbguard4RuleEESaIS3_EE4sizeEv' type='func-type' binding='weak-binding' visibility='default-visibility' is-defined='yes'/>
    <elf-symbol name='_ZNKSt6vectorISt10shared_ptrIN8usbguard4RuleEESaIS3_EE5beginEv' type='func-type' binding='weak-binding' visibility='default-visibility' is-defined='yes'/>
    <elf-symbol name='_ZNKSt6vectorISt10shared_ptrIN8usbguard4RuleEESaIS3_EE6cbeginEv' type='func-type' binding='weak-binding' visibility='default-visibility' is-defined='yes'/>
    <elf-symbol name='_ZNKSt6vectorISt10shared_ptrIN8usbguard4RuleEESaIS3_EE8capacityEv' type='func-type' binding='weak-binding' visibility='default-visibility' is-defined='yes'/>
    <elf-symbol name='_ZNKSt6vectorISt10shared_ptrIN8usbguard4RuleEESaIS3_EE8max_sizeEv' type='func-type' binding='weak-binding' visibility='default-visibility' is-defined='yes'/>
    <elf-symbol name='_ZNKSt6vectorISt10shared_ptrIN8usbguard6DeviceEESaIS3_EE12_M_check_lenEmPKc' type='func-type' binding='weak-binding' visibility='default-visibility' is-defined='yes'/>
    <elf-symbol name='_ZNKSt6vectorISt10shared_ptrIN8usbguard6DeviceEESaIS3_EE4sizeEv' type='func-type' binding='weak-binding' visibility='default-visibility' is-defined='yes'/>
    <elf-symbol name='_ZNKSt6vectorISt10shared_ptrIN8usbguard6DeviceEESaIS3_EE8max_sizeEv' type='func-type' binding='weak-binding' visibility='default-visibility' is-defined='yes'/>
    <elf-symbol name='_ZNKSt6vectorISt10shared_ptrIN8usbguard7RuleSetEESaIS3_EE3endEv' type='func-type' binding='weak-binding' visibility='default-visibility' is-defined='yes'/>
    <elf-symbol name='_ZNKSt6vectorISt10shared_ptrIN8usbguard7RuleSetEESaIS3_EE4sizeEv' type='func-type' binding='weak-binding' visibility='default-visibility' is-defined='yes'/>
    <elf-symbol name='_ZNKSt6vectorISt10shared_ptrIN8usbguard7RuleSetEESaIS3_EE5beginEv' type='func-type' binding='weak-binding' visibility='default-visibility' is-defined='yes'/>
    <elf-symbol name='_ZNKSt6vectorISt10shared_ptrIN8usbguard7RuleSetEESaIS3_EE5emptyEv' type='func-type' binding='weak-binding' visibility='default-visibility' is-defined='yes'/>
    <elf-symbol name='_ZNKSt6vectorISt10shared_ptrIN8usbguard7RuleSetEESaIS3_EE5frontEv' type='func-type' binding='weak-binding' visibility='default-visibility' is-defined='yes'/>
    <elf-symbol name='_ZNKSt6vectorISt10shared_ptrIN8usbguard7RuleSetEESaIS3_EE8capacityEv' type='func-type' binding='weak-binding' visibility='default-visibility' is-defined='yes'/>
    <elf-symbol name='_ZNKSt6vectorISt4pairINSt7__cxx1112basic_stringIcSt11char_traitsIcESaIcEEEN8usbguard13DeviceManager21AuthorizedDefaultTypeEESaISA_EE3endEv' type='func-type' binding='weak-binding' visibility='default-visibility' is-defined='yes'/>
    <elf-symbol name='_ZNKSt6vectorISt4pairINSt7__cxx1112basic_stringIcSt11char_traitsIcESaIcEEEN8usbguard13DeviceManager21AuthorizedDefaultTypeEESaISA_EE5beginEv' type='func-type' binding='weak-binding' visibility='default-visibility' is-defined='yes'/>
    <elf-symbol name='_ZNKSt6vectorISt4pairINSt7__cxx1112basic_stringIcSt11char_traitsIcESaIcEEEN8usbguard4Rule11SetOperatorEESaISA_EE3endEv' type='func-type' binding='weak-binding' visibility='default-visibility' is-defined='yes'/>
    <elf-symbol name='_ZNKSt6vectorISt4pairINSt7__cxx1112basic_stringIcSt11char_traitsIcESaIcEEEN8usbguard4Rule11SetOperatorEESaISA_EE5beginEv' type='func-type' binding='weak-binding' visibility='default-visibility' is-defined='yes'/>
    <elf-symbol name='_ZNKSt6vectorISt4pairINSt7__cxx1112basic_stringIcSt11char_traitsIcESaIcEEEN8usbguard4Rule6TargetEESaISA_EE3endEv' type='func-type' binding='weak-binding' visibility='default-visibility' is-defined='yes'/>
    <elf-symbol name='_ZNKSt6vectorISt4pairINSt7__cxx1112basic_stringIcSt11char_traitsIcESaIcEEEN8usbguard4Rule6TargetEESaISA_EE5beginEv' type='func-type' binding='weak-binding' visibility='default-visibility' is-defined='yes'/>
    <elf-symbol name='_ZNKSt6vectorISt4pairINSt7__cxx1112basic_stringIcSt11char_traitsIcESaIcEEEN8usbguard9IPCServer13AccessControl7SectionEESaISB_EE3endEv' type='func-type' binding='weak-binding' visibility='default-visibility' is-defined='yes'/>
    <elf-symbol name='_ZNKSt6vectorISt4pairINSt7__cxx1112basic_stringIcSt11char_traitsIcESaIcEEEN8usbguard9IPCServer13AccessControl7SectionEESaISB_EE5beginEv' type='func-type' binding='weak-binding' visibility='default-visibility' is-defined='yes'/>
    <elf-symbol name='_ZNKSt6vectorISt4pairINSt7__cxx1112basic_stringIcSt11char_traitsIcESaIcEEEN8usbguard9IPCServer13AccessControl9PrivilegeEESaISB_EE3endEv' type='func-type' binding='weak-binding' visibility='default-visibility' is-defined='yes'/>
    <elf-symbol name='_ZNKSt6vectorISt4pairINSt7__cxx1112basic_stringIcSt11char_traitsIcESaIcEEEN8usbguard9IPCServer13AccessControl9PrivilegeEESaISB_EE5beginEv' type='func-type' binding='weak-binding' visibility='default-visibility' is-defined='yes'/>
    <elf-symbol name='_ZNKSt6vectorISt4pairINSt7__cxx1112basic_stringIcSt11char_traitsIcESaIcEEES6_ESaIS7_EE12_M_check_lenEmPKc' type='func-type' binding='weak-binding' visibility='default-visibility' is-defined='yes'/>
    <elf-symbol name='_ZNKSt6vectorISt4pairINSt7__cxx1112basic_stringIcSt11char_traitsIcESaIcEEES6_ESaIS7_EE4sizeEv' type='func-type' binding='weak-binding' visibility='default-visibility' is-defined='yes'/>
    <elf-symbol name='_ZNKSt6vectorISt4pairINSt7__cxx1112basic_stringIcSt11char_traitsIcESaIcEEES6_ESaIS7_EE8max_sizeEv' type='func-type' binding='weak-binding' visibility='default-visibility' is-defined='yes'/>
    <elf-symbol name='_ZNKSt6vectorISt4pairIhmESaIS1_EE12_M_check_lenEmPKc' type='func-type' binding='weak-binding' visibility='default-visibility' is-defined='yes'/>
    <elf-symbol name='_ZNKSt6vectorISt4pairIhmESaIS1_EE4sizeEv' type='func-type' binding='weak-binding' visibility='default-visibility' is-defined='yes'/>
    <elf-symbol name='_ZNKSt6vectorISt4pairIhmESaIS1_EE8max_sizeEv' type='func-type' binding='weak-binding' visibility='default-visibility' is-defined='yes'/>
    <elf-symbol name='_ZNKSt6vectorISt4pairIjNSt7__cxx1112basic_stringIcSt11char_traitsIcESaIcEEEESaIS7_EE3endEv' type='func-type' binding='weak-binding' visibility='default-visibility' is-defined='yes'/>
    <elf-symbol name='_ZNKSt6vectorISt4pairIjNSt7__cxx1112basic_stringIcSt11char_traitsIcESaIcEEEESaIS7_EE5beginEv' type='func-type' binding='weak-binding' visibility='default-visibility' is-defined='yes'/>
    <elf-symbol name='_ZNKSt8_Rb_treeINSt7__cxx1112basic_stringIcSt11char_traitsIcESaIcEEESt4pairIKS5_S5_ESt10_Select1stIS8_ESt4lessIS5_ESaIS8_EE10_Auto_node6_M_keyEv' type='func-type' binding='weak-binding' visibility='default-visibility' is-defined='yes'/>
    <elf-symbol name='_ZNKSt8_Rb_treeINSt7__cxx1112basic_stringIcSt11char_traitsIcESaIcEEESt4pairIKS5_S5_ESt10_Select1stIS8_ESt4lessIS5_ESaIS8_EE11_Alloc_nodeclIRKS8_EEPSt13_Rb_tree_nodeIS8_EOT_' type='func-type' binding='weak-binding' visibility='default-visibility' is-defined='yes'/>
    <elf-symbol name='_ZNKSt8_Rb_treeINSt7__cxx1112basic_stringIcSt11char_traitsIcESaIcEEESt4pairIKS5_S5_ESt10_Select1stIS8_ESt4lessIS5_ESaIS8_EE14_M_lower_boundEPKSt13_Rb_tree_nodeIS8_EPKSt18_Rb_tree_node_baseRS7_' type='func-type' binding='weak-binding' visibility='default-visibility' is-defined='yes'/>
    <elf-symbol name='_ZNKSt8_Rb_treeINSt7__cxx1112basic_stringIcSt11char_traitsIcESaIcEEESt4pairIKS5_S5_ESt10_Select1stIS8_ESt4lessIS5_ESaIS8_EE3endEv' type='func-type' binding='weak-binding' visibility='default-visibility' is-defined='yes'/>
    <elf-symbol name='_ZNKSt8_Rb_treeINSt7__cxx1112basic_stringIcSt11char_traitsIcESaIcEEESt4pairIKS5_S5_ESt10_Select1stIS8_ESt4lessIS5_ESaIS8_EE4findERS7_' type='func-type' binding='weak-binding' visibility='default-visibility' is-defined='yes'/>
    <elf-symbol name='_ZNKSt8_Rb_treeINSt7__cxx1112basic_stringIcSt11char_traitsIcESaIcEEESt4pairIKS5_S5_ESt10_Select1stIS8_ESt4lessIS5_ESaIS8_EE4sizeEv' type='func-type' binding='weak-binding' visibility='default-visibility' is-defined='yes'/>
    <elf-symbol name='_ZNKSt8_Rb_treeINSt7__cxx1112basic_stringIcSt11char_traitsIcESaIcEEESt4pairIKS5_S5_ESt10_Select1stIS8_ESt4lessIS5_ESaIS8_EE5beginEv' type='func-type' binding='weak-binding' visibility='default-visibility' is-defined='yes'/>
    <elf-symbol name='_ZNKSt8_Rb_treeINSt7__cxx1112basic_stringIcSt11char_traitsIcESaIcEEESt4pairIKS5_S5_ESt10_Select1stIS8_ESt4lessIS5_ESaIS8_EE6_M_endEv' type='func-type' binding='weak-binding' visibility='default-visibility' is-defined='yes'/>
    <elf-symbol name='_ZNKSt8_Rb_treeINSt7__cxx1112basic_stringIcSt11char_traitsIcESaIcEEESt4pairIKS5_S5_ESt10_Select1stIS8_ESt4lessIS5_ESaIS8_EE7_M_rootEv' type='func-type' binding='weak-binding' visibility='default-visibility' is-defined='yes'/>
    <elf-symbol name='_ZNKSt8_Rb_treeINSt7__cxx1112basic_stringIcSt11char_traitsIcESaIcEEESt4pairIKS5_S5_ESt10_Select1stIS8_ESt4lessIS5_ESaIS8_EE8_M_beginEv' type='func-type' binding='weak-binding' visibility='default-visibility' is-defined='yes'/>
    <elf-symbol name='_ZNKSt8_Rb_treeINSt7__cxx1112basic_stringIcSt11char_traitsIcESaIcEEESt4pairIKS5_S5_ESt10_Select1stIS8_ESt4lessIS5_ESaIS8_EE8key_compEv' type='func-type' binding='weak-binding' visibility='default-visibility' is-defined='yes'/>
    <elf-symbol name='_ZNKSt8_Rb_treeINSt7__cxx1112basic_stringIcSt11char_traitsIcESaIcEEESt4pairIKS5_S5_ESt10_Select1stIS8_ESt4lessIS5_ESaIS8_EE9_M_mbeginEv' type='func-type' binding='weak-binding' visibility='default-visibility' is-defined='yes'/>
    <elf-symbol name='_ZNKSt8_Rb_treeINSt7__cxx1112basic_stringIcSt11char_traitsIcESaIcEEESt4pairIKS5_St10unique_ptrIN8usbguard7LogSinkESt14default_deleteISA_EEESt10_Select1stISE_ESt4lessIS5_ESaISE_EE10_Auto_node6_M_keyEv' type='func-type' binding='weak-binding' visibility='default-visibility' is-defined='yes'/>
    <elf-symbol name='_ZNKSt8_Rb_treeINSt7__cxx1112basic_stringIcSt11char_traitsIcESaIcEEESt4pairIKS5_St10unique_ptrIN8usbguard7LogSinkESt14default_deleteISA_EEESt10_Select1stISE_ESt4lessIS5_ESaISE_EE4sizeEv' type='func-type' binding='weak-binding' visibility='default-visibility' is-defined='yes'/>
    <elf-symbol name='_ZNKSt8_Rb_treeINSt7__cxx1112basic_stringIcSt11char_traitsIcESaIcEEESt4pairIKS5_St10unique_ptrIN8usbguard7LogSinkESt14default_deleteISA_EEESt10_Select1stISE_ESt4lessIS5_ESaISE_EE8key_compEv' type='func-type' binding='weak-binding' visibility='default-visibility' is-defined='yes'/>
    <elf-symbol name='_ZNKSt8_Rb_treeINSt7__cxx1112basic_stringIcSt11char_traitsIcESaIcEEESt4pairIKS5_St10unique_ptrIN8usbguard7LogSinkESt14default_deleteISA_EEESt10_Select1stISE_ESt4lessIS5_ESaISE_EE9_M_mbeginEv' type='func-type' binding='weak-binding' visibility='default-visibility' is-defined='yes'/>
    <elf-symbol name='_ZNKSt8_Rb_treeINSt7__cxx1112basic_stringIcSt11char_traitsIcESaIcEEESt4pairIKS5_jESt10_Select1stIS8_ESt4lessIS5_ESaIS8_EE10_Auto_node6_M_keyEv' type='func-type' binding='weak-binding' visibility='default-visibility' is-defined='yes'/>
    <elf-symbol name='_ZNKSt8_Rb_treeINSt7__cxx1112basic_stringIcSt11char_traitsIcESaIcEEESt4pairIKS5_jESt10_Select1stIS8_ESt4lessIS5_ESaIS8_EE14_M_lower_boundEPKSt13_Rb_tree_nodeIS8_EPKSt18_Rb_tree_node_baseRS7_' type='func-type' binding='weak-binding' visibility='default-visibility' is-defined='yes'/>
    <elf-symbol name='_ZNKSt8_Rb_treeINSt7__cxx1112basic_stringIcSt11char_traitsIcESaIcEEESt4pairIKS5_jESt10_Select1stIS8_ESt4lessIS5_ESaIS8_EE3endEv' type='func-type' binding='weak-binding' visibility='default-visibility' is-defined='yes'/>
    <elf-symbol name='_ZNKSt8_Rb_treeINSt7__cxx1112basic_stringIcSt11char_traitsIcESaIcEEESt4pairIKS5_jESt10_Select1stIS8_ESt4lessIS5_ESaIS8_EE4findERS7_' type='func-type' binding='weak-binding' visibility='default-visibility' is-defined='yes'/>
    <elf-symbol name='_ZNKSt8_Rb_treeINSt7__cxx1112basic_stringIcSt11char_traitsIcESaIcEEESt4pairIKS5_jESt10_Select1stIS8_ESt4lessIS5_ESaIS8_EE4sizeEv' type='func-type' binding='weak-binding' visibility='default-visibility' is-defined='yes'/>
    <elf-symbol name='_ZNKSt8_Rb_treeINSt7__cxx1112basic_stringIcSt11char_traitsIcESaIcEEESt4pairIKS5_jESt10_Select1stIS8_ESt4lessIS5_ESaIS8_EE6_M_endEv' type='func-type' binding='weak-binding' visibility='default-visibility' is-defined='yes'/>
    <elf-symbol name='_ZNKSt8_Rb_treeINSt7__cxx1112basic_stringIcSt11char_traitsIcESaIcEEESt4pairIKS5_jESt10_Select1stIS8_ESt4lessIS5_ESaIS8_EE8_M_beginEv' type='func-type' binding='weak-binding' visibility='default-visibility' is-defined='yes'/>
    <elf-symbol name='_ZNKSt8_Rb_treeINSt7__cxx1112basic_stringIcSt11char_traitsIcESaIcEEESt4pairIKS5_jESt10_Select1stIS8_ESt4lessIS5_ESaIS8_EE8key_compEv' type='func-type' binding='weak-binding' visibility='default-visibility' is-defined='yes'/>
    <elf-symbol name='_ZNKSt8_Rb_treeINSt7__cxx1112basic_stringIcSt11char_traitsIcESaIcEEESt4pairIKS5_jESt10_Select1stIS8_ESt4lessIS5_ESaIS8_EE9_M_mbeginEv' type='func-type' binding='weak-binding' visibility='default-visibility' is-defined='yes'/>
    <elf-symbol name='_ZNKSt8_Rb_treeIjSt4pairIKjSt10shared_ptrIN8usbguard6DeviceEEESt10_Select1stIS6_ESt4lessIjESaIS6_EE10_Auto_node6_M_keyEv' type='func-type' binding='weak-binding' visibility='default-visibility' is-defined='yes'/>
    <elf-symbol name='_ZNKSt8_Rb_treeIjSt4pairIKjSt10shared_ptrIN8usbguard6DeviceEEESt10_Select1stIS6_ESt4lessIjESaIS6_EE21_M_get_Node_allocatorEv' type='func-type' binding='weak-binding' visibility='default-visibility' is-defined='yes'/>
    <elf-symbol name='_ZNKSt8_Rb_treeIjSt4pairIKjSt10shared_ptrIN8usbguard6DeviceEEESt10_Select1stIS6_ESt4lessIjESaIS6_EE4sizeEv' type='func-type' binding='weak-binding' visibility='default-visibility' is-defined='yes'/>
    <elf-symbol name='_ZNKSt8_Rb_treeIjSt4pairIKjSt10shared_ptrIN8usbguard6DeviceEEESt10_Select1stIS6_ESt4lessIjESaIS6_EE7_M_rootEv' type='func-type' binding='weak-binding' visibility='default-visibility' is-defined='yes'/>
    <elf-symbol name='_ZNKSt8_Rb_treeIjSt4pairIKjSt10shared_ptrIN8usbguard6DeviceEEESt10_Select1stIS6_ESt4lessIjESaIS6_EE8key_compEv' type='func-type' binding='weak-binding' visibility='default-visibility' is-defined='yes'/>
    <elf-symbol name='_ZNKSt8_Rb_treeIjSt4pairIKjSt10shared_ptrIN8usbguard6DeviceEEESt10_Select1stIS6_ESt4lessIjESaIS6_EE9_M_mbeginEv' type='func-type' binding='weak-binding' visibility='default-visibility' is-defined='yes'/>
    <elf-symbol name='_ZNKSt8__detail10_AllocNodeISaINS_10_Hash_nodeISt4pairIKN8usbguard9IPCServer13AccessControl7SectionEhELb1EEEEEclIJRKS8_EEEPS9_DpOT_' type='func-type' binding='weak-binding' visibility='default-visibility' is-defined='yes'/>
    <elf-symbol name='_ZNKSt8__detail10_Hash_nodeISt4pairIKN8usbguard9IPCServer13AccessControl7SectionEhELb1EE7_M_nextEv' type='func-type' binding='weak-binding' visibility='default-visibility' is-defined='yes'/>
    <elf-symbol name='_ZNKSt8__detail10_Hash_nodeISt4pairIKNSt7__cxx1112basic_stringIcSt11char_traitsIcESaIcEEEN8usbguard9IPCServer13AccessControlEELb1EE7_M_nextEv' type='func-type' binding='weak-binding' visibility='default-visibility' is-defined='yes'/>
    <elf-symbol name='_ZNKSt8__detail10_Hash_nodeISt4pairIKNSt7__cxx1112basic_stringIcSt11char_traitsIcESaIcEEES7_ELb1EE7_M_nextEv' type='func-type' binding='weak-binding' visibility='default-visibility' is-defined='yes'/>
    <elf-symbol name='_ZNKSt8__detail10_Hash_nodeISt4pairIKhSt6vectorIN8usbguard13USBDescriptorESaIS5_EEELb0EE7_M_nextEv' type='func-type' binding='weak-binding' visibility='default-visibility' is-defined='yes'/>
    <elf-symbol name='_ZNKSt8__detail10_Hash_nodeISt4pairIKhmELb0EE7_M_nextEv' type='func-type' binding='weak-binding' visibility='default-visibility' is-defined='yes'/>
    <elf-symbol name='_ZNKSt8__detail10_Hash_nodeISt4pairIKjN8usbguard9IPCServer13AccessControlEELb0EE7_M_nextEv' type='func-type' binding='weak-binding' visibility='default-visibility' is-defined='yes'/>
    <elf-symbol name='_ZNKSt8__detail10_Select1stclIRKSt4pairIKN8usbguard9IPCServer13AccessControl7SectionEhEEEONS0_10__1st_typeIT_E4typeEOSC_' type='func-type' binding='weak-binding' visibility='default-visibility' is-defined='yes'/>
    <elf-symbol name='_ZNKSt8__detail10_Select1stclIRKSt4pairIKNSt7__cxx1112basic_stringIcSt11char_traitsIcESaIcEEEN8usbguard9IPCServer13AccessControlEEEEONS0_10__1st_typeIT_E4typeEOSH_' type='func-type' binding='weak-binding' visibility='default-visibility' is-defined='yes'/>
    <elf-symbol name='_ZNKSt8__detail10_Select1stclIRKSt4pairIKNSt7__cxx1112basic_stringIcSt11char_traitsIcESaIcEEES8_EEEONS0_10__1st_typeIT_E4typeEOSE_' type='func-type' binding='weak-binding' visibility='default-visibility' is-defined='yes'/>
    <elf-symbol name='_ZNKSt8__detail10_Select1stclIRKSt4pairIKhSt6vectorIN8usbguard13USBDescriptorESaIS6_EEEEEONS0_10__1st_typeIT_E4typeEOSD_' type='func-type' binding='weak-binding' visibility='default-visibility' is-defined='yes'/>
    <elf-symbol name='_ZNKSt8__detail10_Select1stclIRKSt4pairIKhmEEEONS0_10__1st_typeIT_E4typeEOS8_' type='func-type' binding='weak-binding' visibility='default-visibility' is-defined='yes'/>
    <elf-symbol name='_ZNKSt8__detail10_Select1stclIRKSt4pairIKjN8usbguard3IPC14MessageHandlerINS4_16IPCServerPrivateEEEEEEONS0_10__1st_typeIT_E4typeEOSD_' type='func-type' binding='weak-binding' visibility='default-visibility' is-defined='yes'/>
    <elf-symbol name='_ZNKSt8__detail10_Select1stclIRKSt4pairIKjN8usbguard9IPCServer13AccessControlEEEEONS0_10__1st_typeIT_E4typeEOSB_' type='func-type' binding='weak-binding' visibility='default-visibility' is-defined='yes'/>
    <elf-symbol name='_ZNKSt8__detail10_Select1stclIRSt4pairIKNSt7__cxx1112basic_stringIcSt11char_traitsIcESaIcEEEN8usbguard9IPCServer13AccessControlEEEEONS0_10__1st_typeIT_E4typeEOSG_' type='func-type' binding='weak-binding' visibility='default-visibility' is-defined='yes'/>
    <elf-symbol name='_ZNKSt8__detail10_Select1stclIRSt4pairIKNSt7__cxx1112basic_stringIcSt11char_traitsIcESaIcEEES8_EEEONS0_10__1st_typeIT_E4typeEOSD_' type='func-type' binding='weak-binding' visibility='default-visibility' is-defined='yes'/>
    <elf-symbol name='_ZNKSt8__detail10_Select1stclIRSt4pairIKjN8usbguard3IPC14MessageHandlerINS4_16IPCServerPrivateEEEEEEONS0_10__1st_typeIT_E4typeEOSC_' type='func-type' binding='weak-binding' visibility='default-visibility' is-defined='yes'/>
    <elf-symbol name='_ZNKSt8__detail10_Select1stclIRSt4pairIKjN8usbguard9IPCServer13AccessControlEEEEONS0_10__1st_typeIT_E4typeEOSA_' type='func-type' binding='weak-binding' visibility='default-visibility' is-defined='yes'/>
    <elf-symbol name='_ZNKSt8__detail14_Node_iteratorISt4pairIKN8usbguard9IPCServer13AccessControl7SectionEhELb0ELb1EEptEv' type='func-type' binding='weak-binding' visibility='default-visibility' is-defined='yes'/>
    <elf-symbol name='_ZNKSt8__detail14_Node_iteratorISt4pairIKhSt6vectorIN8usbguard13USBDescriptorESaIS5_EEELb0ELb0EEptEv' type='func-type' binding='weak-binding' visibility='default-visibility' is-defined='yes'/>
    <elf-symbol name='_ZNKSt8__detail14_Node_iteratorISt4pairIKhmELb0ELb0EEptEv' type='func-type' binding='weak-binding' visibility='default-visibility' is-defined='yes'/>
    <elf-symbol name='_ZNKSt8__detail15_Hash_code_baseIN8usbguard9IPCServer13AccessControl7SectionESt4pairIKS4_hENS_10_Select1stENS3_11SectionHashENS_18_Mod_range_hashingENS_20_Default_ranged_hashELb1EE12_M_copy_codeERNS_21_Hash_node_code_cacheILb1EEERKSE_' type='func-type' binding='weak-binding' visibility='default-visibility' is-defined='yes'/>
    <elf-symbol name='_ZNKSt8__detail15_Hash_code_baseIN8usbguard9IPCServer13AccessControl7SectionESt4pairIKS4_hENS_10_Select1stENS3_11SectionHashENS_18_Mod_range_hashingENS_20_Default_ranged_hashELb1EE12_M_hash_codeERS6_' type='func-type' binding='weak-binding' visibility='default-visibility' is-defined='yes'/>
    <elf-symbol name='_ZNKSt8__detail15_Hash_code_baseIN8usbguard9IPCServer13AccessControl7SectionESt4pairIKS4_hENS_10_Select1stENS3_11SectionHashENS_18_Mod_range_hashingENS_20_Default_ranged_hashELb1EE13_M_store_codeERNS_21_Hash_node_code_cacheILb1EEEm' type='func-type' binding='weak-binding' visibility='default-visibility' is-defined='yes'/>
    <elf-symbol name='_ZNKSt8__detail15_Hash_code_baseIN8usbguard9IPCServer13AccessControl7SectionESt4pairIKS4_hENS_10_Select1stENS3_11SectionHashENS_18_Mod_range_hashingENS_20_Default_ranged_hashELb1EE15_M_bucket_indexERKNS_16_Hash_node_valueIS7_Lb1EEEm' type='func-type' binding='weak-binding' visibility='default-visibility' is-defined='yes'/>
    <elf-symbol name='_ZNKSt8__detail15_Hash_code_baseIN8usbguard9IPCServer13AccessControl7SectionESt4pairIKS4_hENS_10_Select1stENS3_11SectionHashENS_18_Mod_range_hashingENS_20_Default_ranged_hashELb1EE15_M_bucket_indexEmm' type='func-type' binding='weak-binding' visibility='default-visibility' is-defined='yes'/>
    <elf-symbol name='_ZNKSt8__detail15_Hash_code_baseIN8usbguard9IPCServer13AccessControl7SectionESt4pairIKS4_hENS_10_Select1stENS3_11SectionHashENS_18_Mod_range_hashingENS_20_Default_ranged_hashELb1EE7_M_hashEv' type='func-type' binding='weak-binding' visibility='default-visibility' is-defined='yes'/>
    <elf-symbol name='_ZNKSt8__detail15_Hash_code_baseINSt7__cxx1112basic_stringIcSt11char_traitsIcESaIcEEESt4pairIKS6_N8usbguard9IPCServer13AccessControlEENS_10_Select1stESt4hashIS6_ENS_18_Mod_range_hashingENS_20_Default_ranged_hashELb1EE12_M_hash_codeERS8_' type='func-type' binding='weak-binding' visibility='default-visibility' is-defined='yes'/>
    <elf-symbol name='_ZNKSt8__detail15_Hash_code_baseINSt7__cxx1112basic_stringIcSt11char_traitsIcESaIcEEESt4pairIKS6_N8usbguard9IPCServer13AccessControlEENS_10_Select1stESt4hashIS6_ENS_18_Mod_range_hashingENS_20_Default_ranged_hashELb1EE13_M_store_codeERNS_21_Hash_node_code_cacheILb1EEEm' type='func-type' binding='weak-binding' visibility='default-visibility' is-defined='yes'/>
    <elf-symbol name='_ZNKSt8__detail15_Hash_code_baseINSt7__cxx1112basic_stringIcSt11char_traitsIcESaIcEEESt4pairIKS6_N8usbguard9IPCServer13AccessControlEENS_10_Select1stESt4hashIS6_ENS_18_Mod_range_hashingENS_20_Default_ranged_hashELb1EE15_M_bucket_indexERKNS_16_Hash_node_valueISC_Lb1EEEm' type='func-type' binding='weak-binding' visibility='default-visibility' is-defined='yes'/>
    <elf-symbol name='_ZNKSt8__detail15_Hash_code_baseINSt7__cxx1112basic_stringIcSt11char_traitsIcESaIcEEESt4pairIKS6_N8usbguard9IPCServer13AccessControlEENS_10_Select1stESt4hashIS6_ENS_18_Mod_range_hashingENS_20_Default_ranged_hashELb1EE15_M_bucket_indexEmm' type='func-type' binding='weak-binding' visibility='default-visibility' is-defined='yes'/>
    <elf-symbol name='_ZNKSt8__detail15_Hash_code_baseINSt7__cxx1112basic_stringIcSt11char_traitsIcESaIcEEESt4pairIKS6_N8usbguard9IPCServer13AccessControlEENS_10_Select1stESt4hashIS6_ENS_18_Mod_range_hashingENS_20_Default_ranged_hashELb1EE7_M_hashEv' type='func-type' binding='weak-binding' visibility='default-visibility' is-defined='yes'/>
    <elf-symbol name='_ZNKSt8__detail15_Hash_code_baseINSt7__cxx1112basic_stringIcSt11char_traitsIcESaIcEEESt4pairIKS6_S6_ENS_10_Select1stESt4hashIS6_ENS_18_Mod_range_hashingENS_20_Default_ranged_hashELb1EE12_M_hash_codeERS8_' type='func-type' binding='weak-binding' visibility='default-visibility' is-defined='yes'/>
    <elf-symbol name='_ZNKSt8__detail15_Hash_code_baseINSt7__cxx1112basic_stringIcSt11char_traitsIcESaIcEEESt4pairIKS6_S6_ENS_10_Select1stESt4hashIS6_ENS_18_Mod_range_hashingENS_20_Default_ranged_hashELb1EE13_M_store_codeERNS_21_Hash_node_code_cacheILb1EEEm' type='func-type' binding='weak-binding' visibility='default-visibility' is-defined='yes'/>
    <elf-symbol name='_ZNKSt8__detail15_Hash_code_baseINSt7__cxx1112basic_stringIcSt11char_traitsIcESaIcEEESt4pairIKS6_S6_ENS_10_Select1stESt4hashIS6_ENS_18_Mod_range_hashingENS_20_Default_ranged_hashELb1EE15_M_bucket_indexERKNS_16_Hash_node_valueIS9_Lb1EEEm' type='func-type' binding='weak-binding' visibility='default-visibility' is-defined='yes'/>
    <elf-symbol name='_ZNKSt8__detail15_Hash_code_baseINSt7__cxx1112basic_stringIcSt11char_traitsIcESaIcEEESt4pairIKS6_S6_ENS_10_Select1stESt4hashIS6_ENS_18_Mod_range_hashingENS_20_Default_ranged_hashELb1EE15_M_bucket_indexEmm' type='func-type' binding='weak-binding' visibility='default-visibility' is-defined='yes'/>
    <elf-symbol name='_ZNKSt8__detail15_Hash_code_baseINSt7__cxx1112basic_stringIcSt11char_traitsIcESaIcEEESt4pairIKS6_S6_ENS_10_Select1stESt4hashIS6_ENS_18_Mod_range_hashingENS_20_Default_ranged_hashELb1EE7_M_hashEv' type='func-type' binding='weak-binding' visibility='default-visibility' is-defined='yes'/>
    <elf-symbol name='_ZNKSt8__detail15_Hash_code_baseIhSt4pairIKhSt6vectorIN8usbguard13USBDescriptorESaIS5_EEENS_10_Select1stESt4hashIhENS_18_Mod_range_hashingENS_20_Default_ranged_hashELb0EE12_M_hash_codeERS2_' type='func-type' binding='weak-binding' visibility='default-visibility' is-defined='yes'/>
    <elf-symbol name='_ZNKSt8__detail15_Hash_code_baseIhSt4pairIKhSt6vectorIN8usbguard13USBDescriptorESaIS5_EEENS_10_Select1stESt4hashIhENS_18_Mod_range_hashingENS_20_Default_ranged_hashELb0EE13_M_store_codeERNS_21_Hash_node_code_cacheILb0EEEm' type='func-type' binding='weak-binding' visibility='default-visibility' is-defined='yes'/>
    <elf-symbol name='_ZNKSt8__detail15_Hash_code_baseIhSt4pairIKhSt6vectorIN8usbguard13USBDescriptorESaIS5_EEENS_10_Select1stESt4hashIhENS_18_Mod_range_hashingENS_20_Default_ranged_hashELb0EE15_M_bucket_indexERKNS_16_Hash_node_valueIS8_Lb0EEEm' type='func-type' binding='weak-binding' visibility='default-visibility' is-defined='yes'/>
    <elf-symbol name='_ZNKSt8__detail15_Hash_code_baseIhSt4pairIKhSt6vectorIN8usbguard13USBDescriptorESaIS5_EEENS_10_Select1stESt4hashIhENS_18_Mod_range_hashingENS_20_Default_ranged_hashELb0EE15_M_bucket_indexEmm' type='func-type' binding='weak-binding' visibility='default-visibility' is-defined='yes'/>
    <elf-symbol name='_ZNKSt8__detail15_Hash_code_baseIhSt4pairIKhSt6vectorIN8usbguard13USBDescriptorESaIS5_EEENS_10_Select1stESt4hashIhENS_18_Mod_range_hashingENS_20_Default_ranged_hashELb0EE7_M_hashEv' type='func-type' binding='weak-binding' visibility='default-visibility' is-defined='yes'/>
    <elf-symbol name='_ZNKSt8__detail15_Hash_code_baseIhSt4pairIKhmENS_10_Select1stESt4hashIhENS_18_Mod_range_hashingENS_20_Default_ranged_hashELb0EE12_M_hash_codeERS2_' type='func-type' binding='weak-binding' visibility='default-visibility' is-defined='yes'/>
    <elf-symbol name='_ZNKSt8__detail15_Hash_code_baseIhSt4pairIKhmENS_10_Select1stESt4hashIhENS_18_Mod_range_hashingENS_20_Default_ranged_hashELb0EE13_M_store_codeERNS_21_Hash_node_code_cacheILb0EEEm' type='func-type' binding='weak-binding' visibility='default-visibility' is-defined='yes'/>
    <elf-symbol name='_ZNKSt8__detail15_Hash_code_baseIhSt4pairIKhmENS_10_Select1stESt4hashIhENS_18_Mod_range_hashingENS_20_Default_ranged_hashELb0EE15_M_bucket_indexERKNS_16_Hash_node_valueIS3_Lb0EEEm' type='func-type' binding='weak-binding' visibility='default-visibility' is-defined='yes'/>
    <elf-symbol name='_ZNKSt8__detail15_Hash_code_baseIhSt4pairIKhmENS_10_Select1stESt4hashIhENS_18_Mod_range_hashingENS_20_Default_ranged_hashELb0EE15_M_bucket_indexEmm' type='func-type' binding='weak-binding' visibility='default-visibility' is-defined='yes'/>
    <elf-symbol name='_ZNKSt8__detail15_Hash_code_baseIhSt4pairIKhmENS_10_Select1stESt4hashIhENS_18_Mod_range_hashingENS_20_Default_ranged_hashELb0EE7_M_hashEv' type='func-type' binding='weak-binding' visibility='default-visibility' is-defined='yes'/>
    <elf-symbol name='_ZNKSt8__detail15_Hash_code_baseIjSt4pairIKjN8usbguard9IPCServer13AccessControlEENS_10_Select1stESt4hashIjENS_18_Mod_range_hashingENS_20_Default_ranged_hashELb0EE12_M_hash_codeERS2_' type='func-type' binding='weak-binding' visibility='default-visibility' is-defined='yes'/>
    <elf-symbol name='_ZNKSt8__detail15_Hash_code_baseIjSt4pairIKjN8usbguard9IPCServer13AccessControlEENS_10_Select1stESt4hashIjENS_18_Mod_range_hashingENS_20_Default_ranged_hashELb0EE13_M_store_codeERNS_21_Hash_node_code_cacheILb0EEEm' type='func-type' binding='weak-binding' visibility='default-visibility' is-defined='yes'/>
    <elf-symbol name='_ZNKSt8__detail15_Hash_code_baseIjSt4pairIKjN8usbguard9IPCServer13AccessControlEENS_10_Select1stESt4hashIjENS_18_Mod_range_hashingENS_20_Default_ranged_hashELb0EE15_M_bucket_indexERKNS_16_Hash_node_valueIS6_Lb0EEEm' type='func-type' binding='weak-binding' visibility='default-visibility' is-defined='yes'/>
    <elf-symbol name='_ZNKSt8__detail15_Hash_code_baseIjSt4pairIKjN8usbguard9IPCServer13AccessControlEENS_10_Select1stESt4hashIjENS_18_Mod_range_hashingENS_20_Default_ranged_hashELb0EE15_M_bucket_indexEmm' type='func-type' binding='weak-binding' visibility='default-visibility' is-defined='yes'/>
    <elf-symbol name='_ZNKSt8__detail15_Hash_code_baseIjSt4pairIKjN8usbguard9IPCServer13AccessControlEENS_10_Select1stESt4hashIjENS_18_Mod_range_hashingENS_20_Default_ranged_hashELb0EE7_M_hashEv' type='func-type' binding='weak-binding' visibility='default-visibility' is-defined='yes'/>
    <elf-symbol name='_ZNKSt8__detail15_Hashtable_baseIN8usbguard9IPCServer13AccessControl7SectionESt4pairIKS4_hENS_10_Select1stESt8equal_toIS4_ENS3_11SectionHashENS_18_Mod_range_hashingENS_20_Default_ranged_hashENS_17_Hashtable_traitsILb1ELb0ELb1EEEE13_M_key_equalsERS6_RKNS_16_Hash_node_valueIS7_Lb1EEE' type='func-type' binding='weak-binding' visibility='default-visibility' is-defined='yes'/>
    <elf-symbol name='_ZNKSt8__detail15_Hashtable_baseIN8usbguard9IPCServer13AccessControl7SectionESt4pairIKS4_hENS_10_Select1stESt8equal_toIS4_ENS3_11SectionHashENS_18_Mod_range_hashingENS_20_Default_ranged_hashENS_17_Hashtable_traitsILb1ELb0ELb1EEEE5_M_eqEv' type='func-type' binding='weak-binding' visibility='default-visibility' is-defined='yes'/>
    <elf-symbol name='_ZNKSt8__detail15_Hashtable_baseIN8usbguard9IPCServer13AccessControl7SectionESt4pairIKS4_hENS_10_Select1stESt8equal_toIS4_ENS3_11SectionHashENS_18_Mod_range_hashingENS_20_Default_ranged_hashENS_17_Hashtable_traitsILb1ELb0ELb1EEEE9_M_equalsERS6_mRKNS_16_Hash_node_valueIS7_Lb1EEE' type='func-type' binding='weak-binding' visibility='default-visibility' is-defined='yes'/>
    <elf-symbol name='_ZNKSt8__detail15_Hashtable_baseINSt7__cxx1112basic_stringIcSt11char_traitsIcESaIcEEESt4pairIKS6_N8usbguard9IPCServer13AccessControlEENS_10_Select1stESt8equal_toIS6_ESt4hashIS6_ENS_18_Mod_range_hashingENS_20_Default_ranged_hashENS_17_Hashtable_traitsILb1ELb0ELb1EEEE13_M_key_equalsERS8_RKNS_16_Hash_node_valueISC_Lb1EEE' type='func-type' binding='weak-binding' visibility='default-visibility' is-defined='yes'/>
    <elf-symbol name='_ZNKSt8__detail15_Hashtable_baseINSt7__cxx1112basic_stringIcSt11char_traitsIcESaIcEEESt4pairIKS6_N8usbguard9IPCServer13AccessControlEENS_10_Select1stESt8equal_toIS6_ESt4hashIS6_ENS_18_Mod_range_hashingENS_20_Default_ranged_hashENS_17_Hashtable_traitsILb1ELb0ELb1EEEE5_M_eqEv' type='func-type' binding='weak-binding' visibility='default-visibility' is-defined='yes'/>
    <elf-symbol name='_ZNKSt8__detail15_Hashtable_baseINSt7__cxx1112basic_stringIcSt11char_traitsIcESaIcEEESt4pairIKS6_N8usbguard9IPCServer13AccessControlEENS_10_Select1stESt8equal_toIS6_ESt4hashIS6_ENS_18_Mod_range_hashingENS_20_Default_ranged_hashENS_17_Hashtable_traitsILb1ELb0ELb1EEEE9_M_equalsERS8_mRKNS_16_Hash_node_valueISC_Lb1EEE' type='func-type' binding='weak-binding' visibility='default-visibility' is-defined='yes'/>
    <elf-symbol name='_ZNKSt8__detail15_Hashtable_baseINSt7__cxx1112basic_stringIcSt11char_traitsIcESaIcEEESt4pairIKS6_S6_ENS_10_Select1stESt8equal_toIS6_ESt4hashIS6_ENS_18_Mod_range_hashingENS_20_Default_ranged_hashENS_17_Hashtable_traitsILb1ELb0ELb1EEEE13_M_key_equalsERS8_RKNS_16_Hash_node_valueIS9_Lb1EEE' type='func-type' binding='weak-binding' visibility='default-visibility' is-defined='yes'/>
    <elf-symbol name='_ZNKSt8__detail15_Hashtable_baseINSt7__cxx1112basic_stringIcSt11char_traitsIcESaIcEEESt4pairIKS6_S6_ENS_10_Select1stESt8equal_toIS6_ESt4hashIS6_ENS_18_Mod_range_hashingENS_20_Default_ranged_hashENS_17_Hashtable_traitsILb1ELb0ELb1EEEE5_M_eqEv' type='func-type' binding='weak-binding' visibility='default-visibility' is-defined='yes'/>
    <elf-symbol name='_ZNKSt8__detail15_Hashtable_baseINSt7__cxx1112basic_stringIcSt11char_traitsIcESaIcEEESt4pairIKS6_S6_ENS_10_Select1stESt8equal_toIS6_ESt4hashIS6_ENS_18_Mod_range_hashingENS_20_Default_ranged_hashENS_17_Hashtable_traitsILb1ELb0ELb1EEEE9_M_equalsERS8_mRKNS_16_Hash_node_valueIS9_Lb1EEE' type='func-type' binding='weak-binding' visibility='default-visibility' is-defined='yes'/>
    <elf-symbol name='_ZNKSt8__detail15_Hashtable_baseIhSt4pairIKhSt6vectorIN8usbguard13USBDescriptorESaIS5_EEENS_10_Select1stESt8equal_toIhESt4hashIhENS_18_Mod_range_hashingENS_20_Default_ranged_hashENS_17_Hashtable_traitsILb0ELb0ELb1EEEE13_M_key_equalsERS2_RKNS_16_Hash_node_valueIS8_Lb0EEE' type='func-type' binding='weak-binding' visibility='default-visibility' is-defined='yes'/>
    <elf-symbol name='_ZNKSt8__detail15_Hashtable_baseIhSt4pairIKhSt6vectorIN8usbguard13USBDescriptorESaIS5_EEENS_10_Select1stESt8equal_toIhESt4hashIhENS_18_Mod_range_hashingENS_20_Default_ranged_hashENS_17_Hashtable_traitsILb0ELb0ELb1EEEE5_M_eqEv' type='func-type' binding='weak-binding' visibility='default-visibility' is-defined='yes'/>
    <elf-symbol name='_ZNKSt8__detail15_Hashtable_baseIhSt4pairIKhSt6vectorIN8usbguard13USBDescriptorESaIS5_EEENS_10_Select1stESt8equal_toIhESt4hashIhENS_18_Mod_range_hashingENS_20_Default_ranged_hashENS_17_Hashtable_traitsILb0ELb0ELb1EEEE9_M_equalsERS2_mRKNS_16_Hash_node_valueIS8_Lb0EEE' type='func-type' binding='weak-binding' visibility='default-visibility' is-defined='yes'/>
    <elf-symbol name='_ZNKSt8__detail15_Hashtable_baseIhSt4pairIKhmENS_10_Select1stESt8equal_toIhESt4hashIhENS_18_Mod_range_hashingENS_20_Default_ranged_hashENS_17_Hashtable_traitsILb0ELb0ELb1EEEE13_M_key_equalsERS2_RKNS_16_Hash_node_valueIS3_Lb0EEE' type='func-type' binding='weak-binding' visibility='default-visibility' is-defined='yes'/>
    <elf-symbol name='_ZNKSt8__detail15_Hashtable_baseIhSt4pairIKhmENS_10_Select1stESt8equal_toIhESt4hashIhENS_18_Mod_range_hashingENS_20_Default_ranged_hashENS_17_Hashtable_traitsILb0ELb0ELb1EEEE5_M_eqEv' type='func-type' binding='weak-binding' visibility='default-visibility' is-defined='yes'/>
    <elf-symbol name='_ZNKSt8__detail15_Hashtable_baseIhSt4pairIKhmENS_10_Select1stESt8equal_toIhESt4hashIhENS_18_Mod_range_hashingENS_20_Default_ranged_hashENS_17_Hashtable_traitsILb0ELb0ELb1EEEE9_M_equalsERS2_mRKNS_16_Hash_node_valueIS3_Lb0EEE' type='func-type' binding='weak-binding' visibility='default-visibility' is-defined='yes'/>
    <elf-symbol name='_ZNKSt8__detail15_Hashtable_baseIjSt4pairIKjN8usbguard9IPCServer13AccessControlEENS_10_Select1stESt8equal_toIjESt4hashIjENS_18_Mod_range_hashingENS_20_Default_ranged_hashENS_17_Hashtable_traitsILb0ELb0ELb1EEEE13_M_key_equalsERS2_RKNS_16_Hash_node_valueIS6_Lb0EEE' type='func-type' binding='weak-binding' visibility='default-visibility' is-defined='yes'/>
    <elf-symbol name='_ZNKSt8__detail15_Hashtable_baseIjSt4pairIKjN8usbguard9IPCServer13AccessControlEENS_10_Select1stESt8equal_toIjESt4hashIjENS_18_Mod_range_hashingENS_20_Default_ranged_hashENS_17_Hashtable_traitsILb0ELb0ELb1EEEE5_M_eqEv' type='func-type' binding='weak-binding' visibility='default-visibility' is-defined='yes'/>
    <elf-symbol name='_ZNKSt8__detail15_Hashtable_baseIjSt4pairIKjN8usbguard9IPCServer13AccessControlEENS_10_Select1stESt8equal_toIjESt4hashIjENS_18_Mod_range_hashingENS_20_Default_ranged_hashENS_17_Hashtable_traitsILb0ELb0ELb1EEEE9_M_equalsERS2_mRKNS_16_Hash_node_valueIS6_Lb0EEE' type='func-type' binding='weak-binding' visibility='default-visibility' is-defined='yes'/>
    <elf-symbol name='_ZNKSt8__detail16_Hashtable_allocISaINS_10_Hash_nodeISt4pairIKN8usbguard9IPCServer13AccessControl7SectionEhELb1EEEEE17_M_node_allocatorEv' type='func-type' binding='weak-binding' visibility='default-visibility' is-defined='yes'/>
    <elf-symbol name='_ZNKSt8__detail17_ReuseOrAllocNodeISaINS_10_Hash_nodeISt4pairIKN8usbguard9IPCServer13AccessControl7SectionEhELb1EEEEEclIJRKS8_EEEPS9_DpOT_' type='func-type' binding='weak-binding' visibility='default-visibility' is-defined='yes'/>
    <elf-symbol name='_ZNKSt8__detail18_Mod_range_hashingclEmm' type='func-type' binding='weak-binding' visibility='default-visibility' is-defined='yes'/>
    <elf-symbol name='_ZNKSt8__detail20_Node_const_iteratorISt4pairIKN8usbguard9IPCServer13AccessControl7SectionEhELb0ELb1EEdeEv' type='func-type' binding='weak-binding' visibility='default-visibility' is-defined='yes'/>
    <elf-symbol name='_ZNKSt8__detail20_Node_const_iteratorISt4pairIKN8usbguard9IPCServer13AccessControl7SectionEhELb0ELb1EEptEv' type='func-type' binding='weak-binding' visibility='default-visibility' is-defined='yes'/>
    <elf-symbol name='_ZNKSt8__detail20_Node_const_iteratorISt4pairIKNSt7__cxx1112basic_stringIcSt11char_traitsIcESaIcEEEN8usbguard9IPCServer13AccessControlEELb0ELb1EEdeEv' type='func-type' binding='weak-binding' visibility='default-visibility' is-defined='yes'/>
    <elf-symbol name='_ZNKSt8__detail20_Node_const_iteratorISt4pairIKNSt7__cxx1112basic_stringIcSt11char_traitsIcESaIcEEEN8usbguard9IPCServer13AccessControlEELb0ELb1EEptEv' type='func-type' binding='weak-binding' visibility='default-visibility' is-defined='yes'/>
    <elf-symbol name='_ZNKSt8__detail20_Node_const_iteratorISt4pairIKhSt6vectorIN8usbguard13USBDescriptorESaIS5_EEELb0ELb0EEptEv' type='func-type' binding='weak-binding' visibility='default-visibility' is-defined='yes'/>
    <elf-symbol name='_ZNKSt8__detail20_Node_const_iteratorISt4pairIKhmELb0ELb0EEdeEv' type='func-type' binding='weak-binding' visibility='default-visibility' is-defined='yes'/>
    <elf-symbol name='_ZNKSt8__detail20_Node_const_iteratorISt4pairIKjN8usbguard9IPCServer13AccessControlEELb0ELb0EEdeEv' type='func-type' binding='weak-binding' visibility='default-visibility' is-defined='yes'/>
    <elf-symbol name='_ZNKSt8__detail20_Node_const_iteratorISt4pairIKjN8usbguard9IPCServer13AccessControlEELb0ELb0EEptEv' type='func-type' binding='weak-binding' visibility='default-visibility' is-defined='yes'/>
    <elf-symbol name='_ZNKSt8__detail20_Prime_rehash_policy8_M_stateEv' type='func-type' binding='weak-binding' visibility='default-visibility' is-defined='yes'/>
    <elf-symbol name='_ZNKSt8__detail21_Hashtable_ebo_helperILi0ESaINS_10_Hash_nodeISt4pairIKN8usbguard9IPCServer13AccessControl7SectionEhELb1EEEELb1EE7_M_cgetEv' type='func-type' binding='weak-binding' visibility='default-visibility' is-defined='yes'/>
    <elf-symbol name='_ZNKSt8__detail21_Hashtable_ebo_helperILi0ESt8equal_toIN8usbguard9IPCServer13AccessControl7SectionEELb1EE7_M_cgetEv' type='func-type' binding='weak-binding' visibility='default-visibility' is-defined='yes'/>
    <elf-symbol name='_ZNKSt8__detail21_Hashtable_ebo_helperILi0ESt8equal_toINSt7__cxx1112basic_stringIcSt11char_traitsIcESaIcEEEELb1EE7_M_cgetEv' type='func-type' binding='weak-binding' visibility='default-visibility' is-defined='yes'/>
    <elf-symbol name='_ZNKSt8__detail21_Hashtable_ebo_helperILi0ESt8equal_toIhELb1EE7_M_cgetEv' type='func-type' binding='weak-binding' visibility='default-visibility' is-defined='yes'/>
    <elf-symbol name='_ZNKSt8__detail21_Hashtable_ebo_helperILi0ESt8equal_toIjELb1EE7_M_cgetEv' type='func-type' binding='weak-binding' visibility='default-visibility' is-defined='yes'/>
    <elf-symbol name='_ZNKSt8__detail21_Hashtable_ebo_helperILi1EN8usbguard9IPCServer13AccessControl11SectionHashELb1EE7_M_cgetEv' type='func-type' binding='weak-binding' visibility='default-visibility' is-defined='yes'/>
    <elf-symbol name='_ZNKSt8__detail21_Hashtable_ebo_helperILi1ESt4hashINSt7__cxx1112basic_stringIcSt11char_traitsIcESaIcEEEELb1EE7_M_cgetEv' type='func-type' binding='weak-binding' visibility='default-visibility' is-defined='yes'/>
    <elf-symbol name='_ZNKSt8__detail21_Hashtable_ebo_helperILi1ESt4hashIhELb1EE7_M_cgetEv' type='func-type' binding='weak-binding' visibility='default-visibility' is-defined='yes'/>
    <elf-symbol name='_ZNKSt8__detail21_Hashtable_ebo_helperILi1ESt4hashIjELb1EE7_M_cgetEv' type='func-type' binding='weak-binding' visibility='default-visibility' is-defined='yes'/>
    <elf-symbol name='_ZNKSt8__detail8_AdaptorISt23mersenne_twister_engineImLm32ELm624ELm397ELm31ELm2567483615ELm11ELm4294967295ELm7ELm2636928640ELm15ELm4022730752ELm18ELm1812433253EEdE3maxEv' type='func-type' binding='weak-binding' visibility='default-visibility' is-defined='yes'/>
    <elf-symbol name='_ZNKSt8__detail8_AdaptorISt23mersenne_twister_engineImLm32ELm624ELm397ELm31ELm2567483615ELm11ELm4294967295ELm7ELm2636928640ELm15ELm4022730752ELm18ELm1812433253EEdE3minEv' type='func-type' binding='weak-binding' visibility='default-visibility' is-defined='yes'/>
    <elf-symbol name='_ZNKSt8equal_toIN8usbguard9IPCServer13AccessControl7SectionEEclERKS3_S6_' type='func-type' binding='weak-binding' visibility='default-visibility' is-defined='yes'/>
    <elf-symbol name='_ZNKSt8equal_toINSt7__cxx1112basic_stringIcSt11char_traitsIcESaIcEEEEclERKS5_S8_' type='func-type' binding='weak-binding' visibility='default-visibility' is-defined='yes'/>
    <elf-symbol name='_ZNKSt8equal_toIhEclERKhS2_' type='func-type' binding='weak-binding' visibility='default-visibility' is-defined='yes'/>
    <elf-symbol name='_ZNKSt8equal_toIjEclERKjS2_' type='func-type' binding='weak-binding' visibility='default-visibility' is-defined='yes'/>
    <elf-symbol name='_ZNKSt8functionIFSt10unique_ptrINSt13__future_base12_Result_baseENS2_8_DeleterEEvEEclEv' type='func-type' binding='weak-binding' visibility='default-visibility' is-defined='yes'/>
    <elf-symbol name='_ZNKSt8functionIFbRKSt4pairINSt7__cxx1112basic_stringIcSt11char_traitsIcESaIcEEES6_ES9_EEclES9_S9_' type='func-type' binding='weak-binding' visibility='default-visibility' is-defined='yes'/>
    <elf-symbol name='_ZNKSt8functionIFbRKSt4pairINSt7__cxx1112basic_stringIcSt11char_traitsIcESaIcEEES6_ES9_EEcvbEv' type='func-type' binding='weak-binding' visibility='default-visibility' is-defined='yes'/>
    <elf-symbol name='_ZNKSt8functionIFiRKNSt7__cxx1112basic_stringIcSt11char_traitsIcESaIcEEES7_EEclES7_S7_' type='func-type' binding='weak-binding' visibility='default-visibility' is-defined='yes'/>
    <elf-symbol name='_ZNKSt9_Any_data9_M_accessEv' type='func-type' binding='weak-binding' visibility='default-visibility' is-defined='yes'/>
    <elf-symbol name='_ZNKSt9_Any_data9_M_accessINSt13__future_base13_State_baseV27_SetterISt10unique_ptrIN6google8protobuf7MessageESt14default_deleteIS7_EEOSA_EEEERKT_v' type='func-type' binding='weak-binding' visibility='default-visibility' is-defined='yes'/>
    <elf-symbol name='_ZNKSt9_Any_data9_M_accessIPFNSt7__cxx1112basic_stringIcSt11char_traitsIcESaIcEEERKS6_PK6direntEEERKT_v' type='func-type' binding='weak-binding' visibility='default-visibility' is-defined='yes'/>
    <elf-symbol name='_ZNKSt9_Any_data9_M_accessIPFbRKSt4pairINSt7__cxx1112basic_stringIcSt11char_traitsIcESaIcEEES7_ESA_EEERKT_v' type='func-type' binding='weak-binding' visibility='default-visibility' is-defined='yes'/>
    <elf-symbol name='_ZNKSt9type_info4nameEv' type='func-type' binding='weak-binding' visibility='default-visibility' is-defined='yes'/>
    <elf-symbol name='_ZNKSt9type_infoeqERKS_' type='func-type' binding='weak-binding' visibility='default-visibility' is-defined='yes'/>
    <elf-symbol name='_ZNSt10_Hash_impl4hashEPKvmm' type='func-type' binding='weak-binding' visibility='default-visibility' is-defined='yes'/>
    <elf-symbol name='_ZNSt10_HashtableIN8usbguard9IPCServer13AccessControl7SectionESt4pairIKS3_hESaIS6_ENSt8__detail10_Select1stESt8equal_toIS3_ENS2_11SectionHashENS8_18_Mod_range_hashingENS8_20_Default_ranged_hashENS8_20_Prime_rehash_policyENS8_17_Hashtable_traitsILb1ELb0ELb1EEEE12_Scoped_nodeC1IJRKSt21piecewise_construct_tSt5tupleIJRS5_EESO_IJEEEEEPNS8_16_Hashtable_allocISaINS8_10_Hash_nodeIS6_Lb1EEEEEEDpOT_' type='func-type' binding='weak-binding' visibility='default-visibility' alias='_ZNSt10_HashtableIN8usbguard9IPCServer13AccessControl7SectionESt4pairIKS3_hESaIS6_ENSt8__detail10_Select1stESt8equal_toIS3_ENS2_11SectionHashENS8_18_Mod_range_hashingENS8_20_Default_ranged_hashENS8_20_Prime_rehash_policyENS8_17_Hashtable_traitsILb1ELb0ELb1EEEE12_Scoped_nodeC2IJRKSt21piecewise_construct_tSt5tupleIJRS5_EESO_IJEEEEEPNS8_16_Hashtable_allocISaINS8_10_Hash_nodeIS6_Lb1EEEEEEDpOT_' is-defined='yes'/>
    <elf-symbol name='_ZNSt10_HashtableIN8usbguard9IPCServer13AccessControl7SectionESt4pairIKS3_hESaIS6_ENSt8__detail10_Select1stESt8equal_toIS3_ENS2_11SectionHashENS8_18_Mod_range_hashingENS8_20_Default_ranged_hashENS8_20_Prime_rehash_policyENS8_17_Hashtable_traitsILb1ELb0ELb1EEEE12_Scoped_nodeC2IJRKSt21piecewise_construct_tSt5tupleIJRS5_EESO_IJEEEEEPNS8_16_Hashtable_allocISaINS8_10_Hash_nodeIS6_Lb1EEEEEEDpOT_' type='func-type' binding='weak-binding' visibility='default-visibility' is-defined='yes'/>
    <elf-symbol name='_ZNSt10_HashtableIN8usbguard9IPCServer13AccessControl7SectionESt4pairIKS3_hESaIS6_ENSt8__detail10_Select1stESt8equal_toIS3_ENS2_11SectionHashENS8_18_Mod_range_hashingENS8_20_Default_ranged_hashENS8_20_Prime_rehash_policyENS8_17_Hashtable_traitsILb1ELb0ELb1EEEE12_Scoped_nodeD1Ev' type='func-type' binding='weak-binding' visibility='default-visibility' is-defined='yes'/>
    <elf-symbol name='_ZNSt10_HashtableIN8usbguard9IPCServer13AccessControl7SectionESt4pairIKS3_hESaIS6_ENSt8__detail10_Select1stESt8equal_toIS3_ENS2_11SectionHashENS8_18_Mod_range_hashingENS8_20_Default_ranged_hashENS8_20_Prime_rehash_policyENS8_17_Hashtable_traitsILb1ELb0ELb1EEEE12_Scoped_nodeD2Ev' type='func-type' binding='weak-binding' visibility='default-visibility' alias='_ZNSt10_HashtableIN8usbguard9IPCServer13AccessControl7SectionESt4pairIKS3_hESaIS6_ENSt8__detail10_Select1stESt8equal_toIS3_ENS2_11SectionHashENS8_18_Mod_range_hashingENS8_20_Default_ranged_hashENS8_20_Prime_rehash_policyENS8_17_Hashtable_traitsILb1ELb0ELb1EEEE12_Scoped_nodeD1Ev' is-defined='yes'/>
    <elf-symbol name='_ZNSt10_HashtableIN8usbguard9IPCServer13AccessControl7SectionESt4pairIKS3_hESaIS6_ENSt8__detail10_Select1stESt8equal_toIS3_ENS2_11SectionHashENS8_18_Mod_range_hashingENS8_20_Default_ranged_hashENS8_20_Prime_rehash_policyENS8_17_Hashtable_traitsILb1ELb0ELb1EEEE15__fwd_value_forIRKSI_EENSt13__conditionalIXsrSt19is_lvalue_referenceIT_E5valueEE4typeIRKS6_OS6_EERS6_' type='func-type' binding='weak-binding' visibility='default-visibility' is-defined='yes'/>
    <elf-symbol name='_ZNSt10_HashtableIN8usbguard9IPCServer13AccessControl7SectionESt4pairIKS3_hESaIS6_ENSt8__detail10_Select1stESt8equal_toIS3_ENS2_11SectionHashENS8_18_Mod_range_hashingENS8_20_Default_ranged_hashENS8_20_Prime_rehash_policyENS8_17_Hashtable_traitsILb1ELb0ELb1EEEE16_M_update_bbeginEPNS8_10_Hash_nodeIS6_Lb1EEE' type='func-type' binding='weak-binding' visibility='default-visibility' is-defined='yes'/>
    <elf-symbol name='_ZNSt10_HashtableIN8usbguard9IPCServer13AccessControl7SectionESt4pairIKS3_hESaIS6_ENSt8__detail10_Select1stESt8equal_toIS3_ENS2_11SectionHashENS8_18_Mod_range_hashingENS8_20_Default_ranged_hashENS8_20_Prime_rehash_policyENS8_17_Hashtable_traitsILb1ELb0ELb1EEEE16_M_update_bbeginEv' type='func-type' binding='weak-binding' visibility='default-visibility' is-defined='yes'/>
    <elf-symbol name='_ZNSt10_HashtableIN8usbguard9IPCServer13AccessControl7SectionESt4pairIKS3_hESaIS6_ENSt8__detail10_Select1stESt8equal_toIS3_ENS2_11SectionHashENS8_18_Mod_range_hashingENS8_20_Default_ranged_hashENS8_20_Prime_rehash_policyENS8_17_Hashtable_traitsILb1ELb0ELb1EEEE18_M_assign_elementsIRKSI_EEvOT_' type='func-type' binding='weak-binding' visibility='default-visibility' is-defined='yes'/>
    <elf-symbol name='_ZNSt10_HashtableIN8usbguard9IPCServer13AccessControl7SectionESt4pairIKS3_hESaIS6_ENSt8__detail10_Select1stESt8equal_toIS3_ENS2_11SectionHashENS8_18_Mod_range_hashingENS8_20_Default_ranged_hashENS8_20_Prime_rehash_policyENS8_17_Hashtable_traitsILb1ELb0ELb1EEEE19_M_allocate_bucketsEm' type='func-type' binding='weak-binding' visibility='default-visibility' is-defined='yes'/>
    <elf-symbol name='_ZNSt10_HashtableIN8usbguard9IPCServer13AccessControl7SectionESt4pairIKS3_hESaIS6_ENSt8__detail10_Select1stESt8equal_toIS3_ENS2_11SectionHashENS8_18_Mod_range_hashingENS8_20_Default_ranged_hashENS8_20_Prime_rehash_policyENS8_17_Hashtable_traitsILb1ELb0ELb1EEEE21_M_deallocate_bucketsEPPNS8_15_Hash_node_baseEm' type='func-type' binding='weak-binding' visibility='default-visibility' is-defined='yes'/>
    <elf-symbol name='_ZNSt10_HashtableIN8usbguard9IPCServer13AccessControl7SectionESt4pairIKS3_hESaIS6_ENSt8__detail10_Select1stESt8equal_toIS3_ENS2_11SectionHashENS8_18_Mod_range_hashingENS8_20_Default_ranged_hashENS8_20_Prime_rehash_policyENS8_17_Hashtable_traitsILb1ELb0ELb1EEEE21_M_deallocate_bucketsEv' type='func-type' binding='weak-binding' visibility='default-visibility' is-defined='yes'/>
    <elf-symbol name='_ZNSt10_HashtableIN8usbguard9IPCServer13AccessControl7SectionESt4pairIKS3_hESaIS6_ENSt8__detail10_Select1stESt8equal_toIS3_ENS2_11SectionHashENS8_18_Mod_range_hashingENS8_20_Default_ranged_hashENS8_20_Prime_rehash_policyENS8_17_Hashtable_traitsILb1ELb0ELb1EEEE21_M_insert_unique_nodeEmmPNS8_10_Hash_nodeIS6_Lb1EEEm' type='func-type' binding='weak-binding' visibility='default-visibility' is-defined='yes'/>
    <elf-symbol name='_ZNSt10_HashtableIN8usbguard9IPCServer13AccessControl7SectionESt4pairIKS3_hESaIS6_ENSt8__detail10_Select1stESt8equal_toIS3_ENS2_11SectionHashENS8_18_Mod_range_hashingENS8_20_Default_ranged_hashENS8_20_Prime_rehash_policyENS8_17_Hashtable_traitsILb1ELb0ELb1EEEE22_M_insert_bucket_beginEmPNS8_10_Hash_nodeIS6_Lb1EEE' type='func-type' binding='weak-binding' visibility='default-visibility' is-defined='yes'/>
    <elf-symbol name='_ZNSt10_HashtableIN8usbguard9IPCServer13AccessControl7SectionESt4pairIKS3_hESaIS6_ENSt8__detail10_Select1stESt8equal_toIS3_ENS2_11SectionHashENS8_18_Mod_range_hashingENS8_20_Default_ranged_hashENS8_20_Prime_rehash_policyENS8_17_Hashtable_traitsILb1ELb0ELb1EEEE22__small_size_thresholdEv' type='func-type' binding='weak-binding' visibility='default-visibility' is-defined='yes'/>
    <elf-symbol name='_ZNSt10_HashtableIN8usbguard9IPCServer13AccessControl7SectionESt4pairIKS3_hESaIS6_ENSt8__detail10_Select1stESt8equal_toIS3_ENS2_11SectionHashENS8_18_Mod_range_hashingENS8_20_Default_ranged_hashENS8_20_Prime_rehash_policyENS8_17_Hashtable_traitsILb1ELb0ELb1EEEE5clearEv' type='func-type' binding='weak-binding' visibility='default-visibility' is-defined='yes'/>
    <elf-symbol name='_ZNSt10_HashtableIN8usbguard9IPCServer13AccessControl7SectionESt4pairIKS3_hESaIS6_ENSt8__detail10_Select1stESt8equal_toIS3_ENS2_11SectionHashENS8_18_Mod_range_hashingENS8_20_Default_ranged_hashENS8_20_Prime_rehash_policyENS8_17_Hashtable_traitsILb1ELb0ELb1EEEE8_M_resetEv' type='func-type' binding='weak-binding' visibility='default-visibility' is-defined='yes'/>
    <elf-symbol name='_ZNSt10_HashtableIN8usbguard9IPCServer13AccessControl7SectionESt4pairIKS3_hESaIS6_ENSt8__detail10_Select1stESt8equal_toIS3_ENS2_11SectionHashENS8_18_Mod_range_hashingENS8_20_Default_ranged_hashENS8_20_Prime_rehash_policyENS8_17_Hashtable_traitsILb1ELb0ELb1EEEE9_M_assignIRKSI_NS8_10_AllocNodeISaINS8_10_Hash_nodeIS6_Lb1EEEEEEEEvOT_RKT0_' type='func-type' binding='weak-binding' visibility='default-visibility' is-defined='yes'/>
    <elf-symbol name='_ZNSt10_HashtableIN8usbguard9IPCServer13AccessControl7SectionESt4pairIKS3_hESaIS6_ENSt8__detail10_Select1stESt8equal_toIS3_ENS2_11SectionHashENS8_18_Mod_range_hashingENS8_20_Default_ranged_hashENS8_20_Prime_rehash_policyENS8_17_Hashtable_traitsILb1ELb0ELb1EEEE9_M_assignIRKSI_NS8_17_ReuseOrAllocNodeISaINS8_10_Hash_nodeIS6_Lb1EEEEEEEEvOT_RKT0_' type='func-type' binding='weak-binding' visibility='default-visibility' is-defined='yes'/>
    <elf-symbol name='_ZNSt10_HashtableIN8usbguard9IPCServer13AccessControl7SectionESt4pairIKS3_hESaIS6_ENSt8__detail10_Select1stESt8equal_toIS3_ENS2_11SectionHashENS8_18_Mod_range_hashingENS8_20_Default_ranged_hashENS8_20_Prime_rehash_policyENS8_17_Hashtable_traitsILb1ELb0ELb1EEEE9_M_rehashEmSt17integral_constantIbLb1EE' type='func-type' binding='weak-binding' visibility='default-visibility' is-defined='yes'/>
    <elf-symbol name='_ZNSt10_HashtableIN8usbguard9IPCServer13AccessControl7SectionESt4pairIKS3_hESaIS6_ENSt8__detail10_Select1stESt8equal_toIS3_ENS2_11SectionHashENS8_18_Mod_range_hashingENS8_20_Default_ranged_hashENS8_20_Prime_rehash_policyENS8_17_Hashtable_traitsILb1ELb0ELb1EEEEC1ERKSI_' type='func-type' binding='weak-binding' visibility='default-visibility' alias='_ZNSt10_HashtableIN8usbguard9IPCServer13AccessControl7SectionESt4pairIKS3_hESaIS6_ENSt8__detail10_Select1stESt8equal_toIS3_ENS2_11SectionHashENS8_18_Mod_range_hashingENS8_20_Default_ranged_hashENS8_20_Prime_rehash_policyENS8_17_Hashtable_traitsILb1ELb0ELb1EEEEC2ERKSI_' is-defined='yes'/>
    <elf-symbol name='_ZNSt10_HashtableIN8usbguard9IPCServer13AccessControl7SectionESt4pairIKS3_hESaIS6_ENSt8__detail10_Select1stESt8equal_toIS3_ENS2_11SectionHashENS8_18_Mod_range_hashingENS8_20_Default_ranged_hashENS8_20_Prime_rehash_policyENS8_17_Hashtable_traitsILb1ELb0ELb1EEEEC1Ev' type='func-type' binding='weak-binding' visibility='default-visibility' alias='_ZNSt10_HashtableIN8usbguard9IPCServer13AccessControl7SectionESt4pairIKS3_hESaIS6_ENSt8__detail10_Select1stESt8equal_toIS3_ENS2_11SectionHashENS8_18_Mod_range_hashingENS8_20_Default_ranged_hashENS8_20_Prime_rehash_policyENS8_17_Hashtable_traitsILb1ELb0ELb1EEEEC2Ev' is-defined='yes'/>
    <elf-symbol name='_ZNSt10_HashtableIN8usbguard9IPCServer13AccessControl7SectionESt4pairIKS3_hESaIS6_ENSt8__detail10_Select1stESt8equal_toIS3_ENS2_11SectionHashENS8_18_Mod_range_hashingENS8_20_Default_ranged_hashENS8_20_Prime_rehash_policyENS8_17_Hashtable_traitsILb1ELb0ELb1EEEEC2ERKSI_' type='func-type' binding='weak-binding' visibility='default-visibility' is-defined='yes'/>
    <elf-symbol name='_ZNSt10_HashtableIN8usbguard9IPCServer13AccessControl7SectionESt4pairIKS3_hESaIS6_ENSt8__detail10_Select1stESt8equal_toIS3_ENS2_11SectionHashENS8_18_Mod_range_hashingENS8_20_Default_ranged_hashENS8_20_Prime_rehash_policyENS8_17_Hashtable_traitsILb1ELb0ELb1EEEEC2Ev' type='func-type' binding='weak-binding' visibility='default-visibility' is-defined='yes'/>
    <elf-symbol name='_ZNSt10_HashtableIN8usbguard9IPCServer13AccessControl7SectionESt4pairIKS3_hESaIS6_ENSt8__detail10_Select1stESt8equal_toIS3_ENS2_11SectionHashENS8_18_Mod_range_hashingENS8_20_Default_ranged_hashENS8_20_Prime_rehash_policyENS8_17_Hashtable_traitsILb1ELb0ELb1EEEED1Ev' type='func-type' binding='weak-binding' visibility='default-visibility' is-defined='yes'/>
    <elf-symbol name='_ZNSt10_HashtableIN8usbguard9IPCServer13AccessControl7SectionESt4pairIKS3_hESaIS6_ENSt8__detail10_Select1stESt8equal_toIS3_ENS2_11SectionHashENS8_18_Mod_range_hashingENS8_20_Default_ranged_hashENS8_20_Prime_rehash_policyENS8_17_Hashtable_traitsILb1ELb0ELb1EEEED2Ev' type='func-type' binding='weak-binding' visibility='default-visibility' alias='_ZNSt10_HashtableIN8usbguard9IPCServer13AccessControl7SectionESt4pairIKS3_hESaIS6_ENSt8__detail10_Select1stESt8equal_toIS3_ENS2_11SectionHashENS8_18_Mod_range_hashingENS8_20_Default_ranged_hashENS8_20_Prime_rehash_policyENS8_17_Hashtable_traitsILb1ELb0ELb1EEEED1Ev' is-defined='yes'/>
    <elf-symbol name='_ZNSt10_HashtableIN8usbguard9IPCServer13AccessControl7SectionESt4pairIKS3_hESaIS6_ENSt8__detail10_Select1stESt8equal_toIS3_ENS2_11SectionHashENS8_18_Mod_range_hashingENS8_20_Default_ranged_hashENS8_20_Prime_rehash_policyENS8_17_Hashtable_traitsILb1ELb0ELb1EEEEaSERKSI_' type='func-type' binding='weak-binding' visibility='default-visibility' is-defined='yes'/>
    <elf-symbol name='_ZNSt10_HashtableINSt7__cxx1112basic_stringIcSt11char_traitsIcESaIcEEESt4pairIKS5_N8usbguard9IPCServer13AccessControlEESaISB_ENSt8__detail10_Select1stESt8equal_toIS5_ESt4hashIS5_ENSD_18_Mod_range_hashingENSD_20_Default_ranged_hashENSD_20_Prime_rehash_policyENSD_17_Hashtable_traitsILb1ELb0ELb1EEEE10_M_emplaceIJRS7_RKSA_EEES6_INSD_14_Node_iteratorISB_Lb0ELb1EEEbESt17integral_constantIbLb1EEDpOT_' type='func-type' binding='weak-binding' visibility='default-visibility' is-defined='yes'/>
    <elf-symbol name='_ZNSt10_HashtableINSt7__cxx1112basic_stringIcSt11char_traitsIcESaIcEEESt4pairIKS5_N8usbguard9IPCServer13AccessControlEESaISB_ENSt8__detail10_Select1stESt8equal_toIS5_ESt4hashIS5_ENSD_18_Mod_range_hashingENSD_20_Default_ranged_hashENSD_20_Prime_rehash_policyENSD_17_Hashtable_traitsILb1ELb0ELb1EEEE12_Scoped_nodeC1IJRS7_RKSA_EEEPNSD_16_Hashtable_allocISaINSD_10_Hash_nodeISB_Lb1EEEEEEDpOT_' type='func-type' binding='weak-binding' visibility='default-visibility' is-defined='yes'/>
    <elf-symbol name='_ZNSt10_HashtableINSt7__cxx1112basic_stringIcSt11char_traitsIcESaIcEEESt4pairIKS5_N8usbguard9IPCServer13AccessControlEESaISB_ENSt8__detail10_Select1stESt8equal_toIS5_ESt4hashIS5_ENSD_18_Mod_range_hashingENSD_20_Default_ranged_hashENSD_20_Prime_rehash_policyENSD_17_Hashtable_traitsILb1ELb0ELb1EEEE12_Scoped_nodeC2IJRS7_RKSA_EEEPNSD_16_Hashtable_allocISaINSD_10_Hash_nodeISB_Lb1EEEEEEDpOT_' type='func-type' binding='weak-binding' visibility='default-visibility' alias='_ZNSt10_HashtableINSt7__cxx1112basic_stringIcSt11char_traitsIcESaIcEEESt4pairIKS5_N8usbguard9IPCServer13AccessControlEESaISB_ENSt8__detail10_Select1stESt8equal_toIS5_ESt4hashIS5_ENSD_18_Mod_range_hashingENSD_20_Default_ranged_hashENSD_20_Prime_rehash_policyENSD_17_Hashtable_traitsILb1ELb0ELb1EEEE12_Scoped_nodeC1IJRS7_RKSA_EEEPNSD_16_Hashtable_allocISaINSD_10_Hash_nodeISB_Lb1EEEEEEDpOT_' is-defined='yes'/>
    <elf-symbol name='_ZNSt10_HashtableINSt7__cxx1112basic_stringIcSt11char_traitsIcESaIcEEESt4pairIKS5_N8usbguard9IPCServer13AccessControlEESaISB_ENSt8__detail10_Select1stESt8equal_toIS5_ESt4hashIS5_ENSD_18_Mod_range_hashingENSD_20_Default_ranged_hashENSD_20_Prime_rehash_policyENSD_17_Hashtable_traitsILb1ELb0ELb1EEEE12_Scoped_nodeD1Ev' type='func-type' binding='weak-binding' visibility='default-visibility' alias='_ZNSt10_HashtableINSt7__cxx1112basic_stringIcSt11char_traitsIcESaIcEEESt4pairIKS5_N8usbguard9IPCServer13AccessControlEESaISB_ENSt8__detail10_Select1stESt8equal_toIS5_ESt4hashIS5_ENSD_18_Mod_range_hashingENSD_20_Default_ranged_hashENSD_20_Prime_rehash_policyENSD_17_Hashtable_traitsILb1ELb0ELb1EEEE12_Scoped_nodeD2Ev' is-defined='yes'/>
    <elf-symbol name='_ZNSt10_HashtableINSt7__cxx1112basic_stringIcSt11char_traitsIcESaIcEEESt4pairIKS5_N8usbguard9IPCServer13AccessControlEESaISB_ENSt8__detail10_Select1stESt8equal_toIS5_ESt4hashIS5_ENSD_18_Mod_range_hashingENSD_20_Default_ranged_hashENSD_20_Prime_rehash_policyENSD_17_Hashtable_traitsILb1ELb0ELb1EEEE12_Scoped_nodeD2Ev' type='func-type' binding='weak-binding' visibility='default-visibility' is-defined='yes'/>
    <elf-symbol name='_ZNSt10_HashtableINSt7__cxx1112basic_stringIcSt11char_traitsIcESaIcEEESt4pairIKS5_N8usbguard9IPCServer13AccessControlEESaISB_ENSt8__detail10_Select1stESt8equal_toIS5_ESt4hashIS5_ENSD_18_Mod_range_hashingENSD_20_Default_ranged_hashENSD_20_Prime_rehash_policyENSD_17_Hashtable_traitsILb1ELb0ELb1EEEE19_M_allocate_bucketsEm' type='func-type' binding='weak-binding' visibility='default-visibility' is-defined='yes'/>
    <elf-symbol name='_ZNSt10_HashtableINSt7__cxx1112basic_stringIcSt11char_traitsIcESaIcEEESt4pairIKS5_N8usbguard9IPCServer13AccessControlEESaISB_ENSt8__detail10_Select1stESt8equal_toIS5_ESt4hashIS5_ENSD_18_Mod_range_hashingENSD_20_Default_ranged_hashENSD_20_Prime_rehash_policyENSD_17_Hashtable_traitsILb1ELb0ELb1EEEE21_M_deallocate_bucketsEPPNSD_15_Hash_node_baseEm' type='func-type' binding='weak-binding' visibility='default-visibility' is-defined='yes'/>
    <elf-symbol name='_ZNSt10_HashtableINSt7__cxx1112basic_stringIcSt11char_traitsIcESaIcEEESt4pairIKS5_N8usbguard9IPCServer13AccessControlEESaISB_ENSt8__detail10_Select1stESt8equal_toIS5_ESt4hashIS5_ENSD_18_Mod_range_hashingENSD_20_Default_ranged_hashENSD_20_Prime_rehash_policyENSD_17_Hashtable_traitsILb1ELb0ELb1EEEE21_M_deallocate_bucketsEv' type='func-type' binding='weak-binding' visibility='default-visibility' is-defined='yes'/>
    <elf-symbol name='_ZNSt10_HashtableINSt7__cxx1112basic_stringIcSt11char_traitsIcESaIcEEESt4pairIKS5_N8usbguard9IPCServer13AccessControlEESaISB_ENSt8__detail10_Select1stESt8equal_toIS5_ESt4hashIS5_ENSD_18_Mod_range_hashingENSD_20_Default_ranged_hashENSD_20_Prime_rehash_policyENSD_17_Hashtable_traitsILb1ELb0ELb1EEEE21_M_insert_unique_nodeEmmPNSD_10_Hash_nodeISB_Lb1EEEm' type='func-type' binding='weak-binding' visibility='default-visibility' is-defined='yes'/>
    <elf-symbol name='_ZNSt10_HashtableINSt7__cxx1112basic_stringIcSt11char_traitsIcESaIcEEESt4pairIKS5_N8usbguard9IPCServer13AccessControlEESaISB_ENSt8__detail10_Select1stESt8equal_toIS5_ESt4hashIS5_ENSD_18_Mod_range_hashingENSD_20_Default_ranged_hashENSD_20_Prime_rehash_policyENSD_17_Hashtable_traitsILb1ELb0ELb1EEEE22_M_insert_bucket_beginEmPNSD_10_Hash_nodeISB_Lb1EEE' type='func-type' binding='weak-binding' visibility='default-visibility' is-defined='yes'/>
    <elf-symbol name='_ZNSt10_HashtableINSt7__cxx1112basic_stringIcSt11char_traitsIcESaIcEEESt4pairIKS5_N8usbguard9IPCServer13AccessControlEESaISB_ENSt8__detail10_Select1stESt8equal_toIS5_ESt4hashIS5_ENSD_18_Mod_range_hashingENSD_20_Default_ranged_hashENSD_20_Prime_rehash_policyENSD_17_Hashtable_traitsILb1ELb0ELb1EEEE22__small_size_thresholdEv' type='func-type' binding='weak-binding' visibility='default-visibility' is-defined='yes'/>
    <elf-symbol name='_ZNSt10_HashtableINSt7__cxx1112basic_stringIcSt11char_traitsIcESaIcEEESt4pairIKS5_N8usbguard9IPCServer13AccessControlEESaISB_ENSt8__detail10_Select1stESt8equal_toIS5_ESt4hashIS5_ENSD_18_Mod_range_hashingENSD_20_Default_ranged_hashENSD_20_Prime_rehash_policyENSD_17_Hashtable_traitsILb1ELb0ELb1EEEE5clearEv' type='func-type' binding='weak-binding' visibility='default-visibility' is-defined='yes'/>
    <elf-symbol name='_ZNSt10_HashtableINSt7__cxx1112basic_stringIcSt11char_traitsIcESaIcEEESt4pairIKS5_N8usbguard9IPCServer13AccessControlEESaISB_ENSt8__detail10_Select1stESt8equal_toIS5_ESt4hashIS5_ENSD_18_Mod_range_hashingENSD_20_Default_ranged_hashENSD_20_Prime_rehash_policyENSD_17_Hashtable_traitsILb1ELb0ELb1EEEE7emplaceIJRS7_RKSA_EEES6_INSD_14_Node_iteratorISB_Lb0ELb1EEEbEDpOT_' type='func-type' binding='weak-binding' visibility='default-visibility' is-defined='yes'/>
    <elf-symbol name='_ZNSt10_HashtableINSt7__cxx1112basic_stringIcSt11char_traitsIcESaIcEEESt4pairIKS5_N8usbguard9IPCServer13AccessControlEESaISB_ENSt8__detail10_Select1stESt8equal_toIS5_ESt4hashIS5_ENSD_18_Mod_range_hashingENSD_20_Default_ranged_hashENSD_20_Prime_rehash_policyENSD_17_Hashtable_traitsILb1ELb0ELb1EEEE9_M_rehashEmSt17integral_constantIbLb1EE' type='func-type' binding='weak-binding' visibility='default-visibility' is-defined='yes'/>
    <elf-symbol name='_ZNSt10_HashtableINSt7__cxx1112basic_stringIcSt11char_traitsIcESaIcEEESt4pairIKS5_N8usbguard9IPCServer13AccessControlEESaISB_ENSt8__detail10_Select1stESt8equal_toIS5_ESt4hashIS5_ENSD_18_Mod_range_hashingENSD_20_Default_ranged_hashENSD_20_Prime_rehash_policyENSD_17_Hashtable_traitsILb1ELb0ELb1EEEEC1Ev' type='func-type' binding='weak-binding' visibility='default-visibility' is-defined='yes'/>
    <elf-symbol name='_ZNSt10_HashtableINSt7__cxx1112basic_stringIcSt11char_traitsIcESaIcEEESt4pairIKS5_N8usbguard9IPCServer13AccessControlEESaISB_ENSt8__detail10_Select1stESt8equal_toIS5_ESt4hashIS5_ENSD_18_Mod_range_hashingENSD_20_Default_ranged_hashENSD_20_Prime_rehash_policyENSD_17_Hashtable_traitsILb1ELb0ELb1EEEEC2Ev' type='func-type' binding='weak-binding' visibility='default-visibility' alias='_ZNSt10_HashtableINSt7__cxx1112basic_stringIcSt11char_traitsIcESaIcEEESt4pairIKS5_N8usbguard9IPCServer13AccessControlEESaISB_ENSt8__detail10_Select1stESt8equal_toIS5_ESt4hashIS5_ENSD_18_Mod_range_hashingENSD_20_Default_ranged_hashENSD_20_Prime_rehash_policyENSD_17_Hashtable_traitsILb1ELb0ELb1EEEEC1Ev' is-defined='yes'/>
    <elf-symbol name='_ZNSt10_HashtableINSt7__cxx1112basic_stringIcSt11char_traitsIcESaIcEEESt4pairIKS5_N8usbguard9IPCServer13AccessControlEESaISB_ENSt8__detail10_Select1stESt8equal_toIS5_ESt4hashIS5_ENSD_18_Mod_range_hashingENSD_20_Default_ranged_hashENSD_20_Prime_rehash_policyENSD_17_Hashtable_traitsILb1ELb0ELb1EEEED1Ev' type='func-type' binding='weak-binding' visibility='default-visibility' alias='_ZNSt10_HashtableINSt7__cxx1112basic_stringIcSt11char_traitsIcESaIcEEESt4pairIKS5_N8usbguard9IPCServer13AccessControlEESaISB_ENSt8__detail10_Select1stESt8equal_toIS5_ESt4hashIS5_ENSD_18_Mod_range_hashingENSD_20_Default_ranged_hashENSD_20_Prime_rehash_policyENSD_17_Hashtable_traitsILb1ELb0ELb1EEEED2Ev' is-defined='yes'/>
    <elf-symbol name='_ZNSt10_HashtableINSt7__cxx1112basic_stringIcSt11char_traitsIcESaIcEEESt4pairIKS5_N8usbguard9IPCServer13AccessControlEESaISB_ENSt8__detail10_Select1stESt8equal_toIS5_ESt4hashIS5_ENSD_18_Mod_range_hashingENSD_20_Default_ranged_hashENSD_20_Prime_rehash_policyENSD_17_Hashtable_traitsILb1ELb0ELb1EEEED2Ev' type='func-type' binding='weak-binding' visibility='default-visibility' is-defined='yes'/>
    <elf-symbol name='_ZNSt10_HashtableINSt7__cxx1112basic_stringIcSt11char_traitsIcESaIcEEESt4pairIKS5_S5_ESaIS8_ENSt8__detail10_Select1stESt8equal_toIS5_ESt4hashIS5_ENSA_18_Mod_range_hashingENSA_20_Default_ranged_hashENSA_20_Prime_rehash_policyENSA_17_Hashtable_traitsILb1ELb0ELb1EEEE10_M_emplaceIJRS7_SN_EEES6_INSA_14_Node_iteratorIS8_Lb0ELb1EEEbESt17integral_constantIbLb1EEDpOT_' type='func-type' binding='weak-binding' visibility='default-visibility' is-defined='yes'/>
    <elf-symbol name='_ZNSt10_HashtableINSt7__cxx1112basic_stringIcSt11char_traitsIcESaIcEEESt4pairIKS5_S5_ESaIS8_ENSt8__detail10_Select1stESt8equal_toIS5_ESt4hashIS5_ENSA_18_Mod_range_hashingENSA_20_Default_ranged_hashENSA_20_Prime_rehash_policyENSA_17_Hashtable_traitsILb1ELb0ELb1EEEE12_Scoped_nodeC1IJRS7_SO_EEEPNSA_16_Hashtable_allocISaINSA_10_Hash_nodeIS8_Lb1EEEEEEDpOT_' type='func-type' binding='weak-binding' visibility='default-visibility' alias='_ZNSt10_HashtableINSt7__cxx1112basic_stringIcSt11char_traitsIcESaIcEEESt4pairIKS5_S5_ESaIS8_ENSt8__detail10_Select1stESt8equal_toIS5_ESt4hashIS5_ENSA_18_Mod_range_hashingENSA_20_Default_ranged_hashENSA_20_Prime_rehash_policyENSA_17_Hashtable_traitsILb1ELb0ELb1EEEE12_Scoped_nodeC2IJRS7_SO_EEEPNSA_16_Hashtable_allocISaINSA_10_Hash_nodeIS8_Lb1EEEEEEDpOT_' is-defined='yes'/>
    <elf-symbol name='_ZNSt10_HashtableINSt7__cxx1112basic_stringIcSt11char_traitsIcESaIcEEESt4pairIKS5_S5_ESaIS8_ENSt8__detail10_Select1stESt8equal_toIS5_ESt4hashIS5_ENSA_18_Mod_range_hashingENSA_20_Default_ranged_hashENSA_20_Prime_rehash_policyENSA_17_Hashtable_traitsILb1ELb0ELb1EEEE12_Scoped_nodeC2IJRS7_SO_EEEPNSA_16_Hashtable_allocISaINSA_10_Hash_nodeIS8_Lb1EEEEEEDpOT_' type='func-type' binding='weak-binding' visibility='default-visibility' is-defined='yes'/>
    <elf-symbol name='_ZNSt10_HashtableINSt7__cxx1112basic_stringIcSt11char_traitsIcESaIcEEESt4pairIKS5_S5_ESaIS8_ENSt8__detail10_Select1stESt8equal_toIS5_ESt4hashIS5_ENSA_18_Mod_range_hashingENSA_20_Default_ranged_hashENSA_20_Prime_rehash_policyENSA_17_Hashtable_traitsILb1ELb0ELb1EEEE12_Scoped_nodeD1Ev' type='func-type' binding='weak-binding' visibility='default-visibility' alias='_ZNSt10_HashtableINSt7__cxx1112basic_stringIcSt11char_traitsIcESaIcEEESt4pairIKS5_S5_ESaIS8_ENSt8__detail10_Select1stESt8equal_toIS5_ESt4hashIS5_ENSA_18_Mod_range_hashingENSA_20_Default_ranged_hashENSA_20_Prime_rehash_policyENSA_17_Hashtable_traitsILb1ELb0ELb1EEEE12_Scoped_nodeD2Ev' is-defined='yes'/>
    <elf-symbol name='_ZNSt10_HashtableINSt7__cxx1112basic_stringIcSt11char_traitsIcESaIcEEESt4pairIKS5_S5_ESaIS8_ENSt8__detail10_Select1stESt8equal_toIS5_ESt4hashIS5_ENSA_18_Mod_range_hashingENSA_20_Default_ranged_hashENSA_20_Prime_rehash_policyENSA_17_Hashtable_traitsILb1ELb0ELb1EEEE12_Scoped_nodeD2Ev' type='func-type' binding='weak-binding' visibility='default-visibility' is-defined='yes'/>
    <elf-symbol name='_ZNSt10_HashtableINSt7__cxx1112basic_stringIcSt11char_traitsIcESaIcEEESt4pairIKS5_S5_ESaIS8_ENSt8__detail10_Select1stESt8equal_toIS5_ESt4hashIS5_ENSA_18_Mod_range_hashingENSA_20_Default_ranged_hashENSA_20_Prime_rehash_policyENSA_17_Hashtable_traitsILb1ELb0ELb1EEEE16_M_update_bbeginEv' type='func-type' binding='weak-binding' visibility='default-visibility' is-defined='yes'/>
    <elf-symbol name='_ZNSt10_HashtableINSt7__cxx1112basic_stringIcSt11char_traitsIcESaIcEEESt4pairIKS5_S5_ESaIS8_ENSt8__detail10_Select1stESt8equal_toIS5_ESt4hashIS5_ENSA_18_Mod_range_hashingENSA_20_Default_ranged_hashENSA_20_Prime_rehash_policyENSA_17_Hashtable_traitsILb1ELb0ELb1EEEE19_M_allocate_bucketsEm' type='func-type' binding='weak-binding' visibility='default-visibility' is-defined='yes'/>
    <elf-symbol name='_ZNSt10_HashtableINSt7__cxx1112basic_stringIcSt11char_traitsIcESaIcEEESt4pairIKS5_S5_ESaIS8_ENSt8__detail10_Select1stESt8equal_toIS5_ESt4hashIS5_ENSA_18_Mod_range_hashingENSA_20_Default_ranged_hashENSA_20_Prime_rehash_policyENSA_17_Hashtable_traitsILb1ELb0ELb1EEEE21_M_deallocate_bucketsEPPNSA_15_Hash_node_baseEm' type='func-type' binding='weak-binding' visibility='default-visibility' is-defined='yes'/>
    <elf-symbol name='_ZNSt10_HashtableINSt7__cxx1112basic_stringIcSt11char_traitsIcESaIcEEESt4pairIKS5_S5_ESaIS8_ENSt8__detail10_Select1stESt8equal_toIS5_ESt4hashIS5_ENSA_18_Mod_range_hashingENSA_20_Default_ranged_hashENSA_20_Prime_rehash_policyENSA_17_Hashtable_traitsILb1ELb0ELb1EEEE21_M_deallocate_bucketsEv' type='func-type' binding='weak-binding' visibility='default-visibility' is-defined='yes'/>
    <elf-symbol name='_ZNSt10_HashtableINSt7__cxx1112basic_stringIcSt11char_traitsIcESaIcEEESt4pairIKS5_S5_ESaIS8_ENSt8__detail10_Select1stESt8equal_toIS5_ESt4hashIS5_ENSA_18_Mod_range_hashingENSA_20_Default_ranged_hashENSA_20_Prime_rehash_policyENSA_17_Hashtable_traitsILb1ELb0ELb1EEEE21_M_insert_unique_nodeEmmPNSA_10_Hash_nodeIS8_Lb1EEEm' type='func-type' binding='weak-binding' visibility='default-visibility' is-defined='yes'/>
    <elf-symbol name='_ZNSt10_HashtableINSt7__cxx1112basic_stringIcSt11char_traitsIcESaIcEEESt4pairIKS5_S5_ESaIS8_ENSt8__detail10_Select1stESt8equal_toIS5_ESt4hashIS5_ENSA_18_Mod_range_hashingENSA_20_Default_ranged_hashENSA_20_Prime_rehash_policyENSA_17_Hashtable_traitsILb1ELb0ELb1EEEE22_M_insert_bucket_beginEmPNSA_10_Hash_nodeIS8_Lb1EEE' type='func-type' binding='weak-binding' visibility='default-visibility' is-defined='yes'/>
    <elf-symbol name='_ZNSt10_HashtableINSt7__cxx1112basic_stringIcSt11char_traitsIcESaIcEEESt4pairIKS5_S5_ESaIS8_ENSt8__detail10_Select1stESt8equal_toIS5_ESt4hashIS5_ENSA_18_Mod_range_hashingENSA_20_Default_ranged_hashENSA_20_Prime_rehash_policyENSA_17_Hashtable_traitsILb1ELb0ELb1EEEE22__small_size_thresholdEv' type='func-type' binding='weak-binding' visibility='default-visibility' is-defined='yes'/>
    <elf-symbol name='_ZNSt10_HashtableINSt7__cxx1112basic_stringIcSt11char_traitsIcESaIcEEESt4pairIKS5_S5_ESaIS8_ENSt8__detail10_Select1stESt8equal_toIS5_ESt4hashIS5_ENSA_18_Mod_range_hashingENSA_20_Default_ranged_hashENSA_20_Prime_rehash_policyENSA_17_Hashtable_traitsILb1ELb0ELb1EEEE5clearEv' type='func-type' binding='weak-binding' visibility='default-visibility' is-defined='yes'/>
    <elf-symbol name='_ZNSt10_HashtableINSt7__cxx1112basic_stringIcSt11char_traitsIcESaIcEEESt4pairIKS5_S5_ESaIS8_ENSt8__detail10_Select1stESt8equal_toIS5_ESt4hashIS5_ENSA_18_Mod_range_hashingENSA_20_Default_ranged_hashENSA_20_Prime_rehash_policyENSA_17_Hashtable_traitsILb1ELb0ELb1EEEE7emplaceIJRS7_SN_EEES6_INSA_14_Node_iteratorIS8_Lb0ELb1EEEbEDpOT_' type='func-type' binding='weak-binding' visibility='default-visibility' is-defined='yes'/>
    <elf-symbol name='_ZNSt10_HashtableINSt7__cxx1112basic_stringIcSt11char_traitsIcESaIcEEESt4pairIKS5_S5_ESaIS8_ENSt8__detail10_Select1stESt8equal_toIS5_ESt4hashIS5_ENSA_18_Mod_range_hashingENSA_20_Default_ranged_hashENSA_20_Prime_rehash_policyENSA_17_Hashtable_traitsILb1ELb0ELb1EEEE8_M_resetEv' type='func-type' binding='weak-binding' visibility='default-visibility' is-defined='yes'/>
    <elf-symbol name='_ZNSt10_HashtableINSt7__cxx1112basic_stringIcSt11char_traitsIcESaIcEEESt4pairIKS5_S5_ESaIS8_ENSt8__detail10_Select1stESt8equal_toIS5_ESt4hashIS5_ENSA_18_Mod_range_hashingENSA_20_Default_ranged_hashENSA_20_Prime_rehash_policyENSA_17_Hashtable_traitsILb1ELb0ELb1EEEE9_M_rehashEmSt17integral_constantIbLb1EE' type='func-type' binding='weak-binding' visibility='default-visibility' is-defined='yes'/>
    <elf-symbol name='_ZNSt10_HashtableINSt7__cxx1112basic_stringIcSt11char_traitsIcESaIcEEESt4pairIKS5_S5_ESaIS8_ENSt8__detail10_Select1stESt8equal_toIS5_ESt4hashIS5_ENSA_18_Mod_range_hashingENSA_20_Default_ranged_hashENSA_20_Prime_rehash_policyENSA_17_Hashtable_traitsILb1ELb0ELb1EEEEC1EOSL_' type='func-type' binding='weak-binding' visibility='default-visibility' is-defined='yes'/>
    <elf-symbol name='_ZNSt10_HashtableINSt7__cxx1112basic_stringIcSt11char_traitsIcESaIcEEESt4pairIKS5_S5_ESaIS8_ENSt8__detail10_Select1stESt8equal_toIS5_ESt4hashIS5_ENSA_18_Mod_range_hashingENSA_20_Default_ranged_hashENSA_20_Prime_rehash_policyENSA_17_Hashtable_traitsILb1ELb0ELb1EEEEC1EOSL_OSaINSA_10_Hash_nodeIS8_Lb1EEEESt17integral_constantIbLb1EE' type='func-type' binding='weak-binding' visibility='default-visibility' is-defined='yes'/>
    <elf-symbol name='_ZNSt10_HashtableINSt7__cxx1112basic_stringIcSt11char_traitsIcESaIcEEESt4pairIKS5_S5_ESaIS8_ENSt8__detail10_Select1stESt8equal_toIS5_ESt4hashIS5_ENSA_18_Mod_range_hashingENSA_20_Default_ranged_hashENSA_20_Prime_rehash_policyENSA_17_Hashtable_traitsILb1ELb0ELb1EEEEC1Ev' type='func-type' binding='weak-binding' visibility='default-visibility' alias='_ZNSt10_HashtableINSt7__cxx1112basic_stringIcSt11char_traitsIcESaIcEEESt4pairIKS5_S5_ESaIS8_ENSt8__detail10_Select1stESt8equal_toIS5_ESt4hashIS5_ENSA_18_Mod_range_hashingENSA_20_Default_ranged_hashENSA_20_Prime_rehash_policyENSA_17_Hashtable_traitsILb1ELb0ELb1EEEEC2Ev' is-defined='yes'/>
    <elf-symbol name='_ZNSt10_HashtableINSt7__cxx1112basic_stringIcSt11char_traitsIcESaIcEEESt4pairIKS5_S5_ESaIS8_ENSt8__detail10_Select1stESt8equal_toIS5_ESt4hashIS5_ENSA_18_Mod_range_hashingENSA_20_Default_ranged_hashENSA_20_Prime_rehash_policyENSA_17_Hashtable_traitsILb1ELb0ELb1EEEEC2EOSL_' type='func-type' binding='weak-binding' visibility='default-visibility' alias='_ZNSt10_HashtableINSt7__cxx1112basic_stringIcSt11char_traitsIcESaIcEEESt4pairIKS5_S5_ESaIS8_ENSt8__detail10_Select1stESt8equal_toIS5_ESt4hashIS5_ENSA_18_Mod_range_hashingENSA_20_Default_ranged_hashENSA_20_Prime_rehash_policyENSA_17_Hashtable_traitsILb1ELb0ELb1EEEEC1EOSL_' is-defined='yes'/>
    <elf-symbol name='_ZNSt10_HashtableINSt7__cxx1112basic_stringIcSt11char_traitsIcESaIcEEESt4pairIKS5_S5_ESaIS8_ENSt8__detail10_Select1stESt8equal_toIS5_ESt4hashIS5_ENSA_18_Mod_range_hashingENSA_20_Default_ranged_hashENSA_20_Prime_rehash_policyENSA_17_Hashtable_traitsILb1ELb0ELb1EEEEC2EOSL_OSaINSA_10_Hash_nodeIS8_Lb1EEEESt17integral_constantIbLb1EE' type='func-type' binding='weak-binding' visibility='default-visibility' alias='_ZNSt10_HashtableINSt7__cxx1112basic_stringIcSt11char_traitsIcESaIcEEESt4pairIKS5_S5_ESaIS8_ENSt8__detail10_Select1stESt8equal_toIS5_ESt4hashIS5_ENSA_18_Mod_range_hashingENSA_20_Default_ranged_hashENSA_20_Prime_rehash_policyENSA_17_Hashtable_traitsILb1ELb0ELb1EEEEC1EOSL_OSaINSA_10_Hash_nodeIS8_Lb1EEEESt17integral_constantIbLb1EE' is-defined='yes'/>
    <elf-symbol name='_ZNSt10_HashtableINSt7__cxx1112basic_stringIcSt11char_traitsIcESaIcEEESt4pairIKS5_S5_ESaIS8_ENSt8__detail10_Select1stESt8equal_toIS5_ESt4hashIS5_ENSA_18_Mod_range_hashingENSA_20_Default_ranged_hashENSA_20_Prime_rehash_policyENSA_17_Hashtable_traitsILb1ELb0ELb1EEEEC2Ev' type='func-type' binding='weak-binding' visibility='default-visibility' is-defined='yes'/>
    <elf-symbol name='_ZNSt10_HashtableINSt7__cxx1112basic_stringIcSt11char_traitsIcESaIcEEESt4pairIKS5_S5_ESaIS8_ENSt8__detail10_Select1stESt8equal_toIS5_ESt4hashIS5_ENSA_18_Mod_range_hashingENSA_20_Default_ranged_hashENSA_20_Prime_rehash_policyENSA_17_Hashtable_traitsILb1ELb0ELb1EEEED1Ev' type='func-type' binding='weak-binding' visibility='default-visibility' alias='_ZNSt10_HashtableINSt7__cxx1112basic_stringIcSt11char_traitsIcESaIcEEESt4pairIKS5_S5_ESaIS8_ENSt8__detail10_Select1stESt8equal_toIS5_ESt4hashIS5_ENSA_18_Mod_range_hashingENSA_20_Default_ranged_hashENSA_20_Prime_rehash_policyENSA_17_Hashtable_traitsILb1ELb0ELb1EEEED2Ev' is-defined='yes'/>
    <elf-symbol name='_ZNSt10_HashtableINSt7__cxx1112basic_stringIcSt11char_traitsIcESaIcEEESt4pairIKS5_S5_ESaIS8_ENSt8__detail10_Select1stESt8equal_toIS5_ESt4hashIS5_ENSA_18_Mod_range_hashingENSA_20_Default_ranged_hashENSA_20_Prime_rehash_policyENSA_17_Hashtable_traitsILb1ELb0ELb1EEEED2Ev' type='func-type' binding='weak-binding' visibility='default-visibility' is-defined='yes'/>
    <elf-symbol name='_ZNSt10_HashtableIhSt4pairIKhSt6vectorIN8usbguard13USBDescriptorESaIS4_EEESaIS7_ENSt8__detail10_Select1stESt8equal_toIhESt4hashIhENS9_18_Mod_range_hashingENS9_20_Default_ranged_hashENS9_20_Prime_rehash_policyENS9_17_Hashtable_traitsILb0ELb0ELb1EEEE12_Scoped_nodeC1IJRKSt21piecewise_construct_tSt5tupleIJRS1_EESQ_IJEEEEEPNS9_16_Hashtable_allocISaINS9_10_Hash_nodeIS7_Lb0EEEEEEDpOT_' type='func-type' binding='weak-binding' visibility='default-visibility' alias='_ZNSt10_HashtableIhSt4pairIKhSt6vectorIN8usbguard13USBDescriptorESaIS4_EEESaIS7_ENSt8__detail10_Select1stESt8equal_toIhESt4hashIhENS9_18_Mod_range_hashingENS9_20_Default_ranged_hashENS9_20_Prime_rehash_policyENS9_17_Hashtable_traitsILb0ELb0ELb1EEEE12_Scoped_nodeC2IJRKSt21piecewise_construct_tSt5tupleIJRS1_EESQ_IJEEEEEPNS9_16_Hashtable_allocISaINS9_10_Hash_nodeIS7_Lb0EEEEEEDpOT_' is-defined='yes'/>
    <elf-symbol name='_ZNSt10_HashtableIhSt4pairIKhSt6vectorIN8usbguard13USBDescriptorESaIS4_EEESaIS7_ENSt8__detail10_Select1stESt8equal_toIhESt4hashIhENS9_18_Mod_range_hashingENS9_20_Default_ranged_hashENS9_20_Prime_rehash_policyENS9_17_Hashtable_traitsILb0ELb0ELb1EEEE12_Scoped_nodeC2IJRKSt21piecewise_construct_tSt5tupleIJRS1_EESQ_IJEEEEEPNS9_16_Hashtable_allocISaINS9_10_Hash_nodeIS7_Lb0EEEEEEDpOT_' type='func-type' binding='weak-binding' visibility='default-visibility' is-defined='yes'/>
    <elf-symbol name='_ZNSt10_HashtableIhSt4pairIKhSt6vectorIN8usbguard13USBDescriptorESaIS4_EEESaIS7_ENSt8__detail10_Select1stESt8equal_toIhESt4hashIhENS9_18_Mod_range_hashingENS9_20_Default_ranged_hashENS9_20_Prime_rehash_policyENS9_17_Hashtable_traitsILb0ELb0ELb1EEEE12_Scoped_nodeD1Ev' type='func-type' binding='weak-binding' visibility='default-visibility' alias='_ZNSt10_HashtableIhSt4pairIKhSt6vectorIN8usbguard13USBDescriptorESaIS4_EEESaIS7_ENSt8__detail10_Select1stESt8equal_toIhESt4hashIhENS9_18_Mod_range_hashingENS9_20_Default_ranged_hashENS9_20_Prime_rehash_policyENS9_17_Hashtable_traitsILb0ELb0ELb1EEEE12_Scoped_nodeD2Ev' is-defined='yes'/>
    <elf-symbol name='_ZNSt10_HashtableIhSt4pairIKhSt6vectorIN8usbguard13USBDescriptorESaIS4_EEESaIS7_ENSt8__detail10_Select1stESt8equal_toIhESt4hashIhENS9_18_Mod_range_hashingENS9_20_Default_ranged_hashENS9_20_Prime_rehash_policyENS9_17_Hashtable_traitsILb0ELb0ELb1EEEE12_Scoped_nodeD2Ev' type='func-type' binding='weak-binding' visibility='default-visibility' is-defined='yes'/>
    <elf-symbol name='_ZNSt10_HashtableIhSt4pairIKhSt6vectorIN8usbguard13USBDescriptorESaIS4_EEESaIS7_ENSt8__detail10_Select1stESt8equal_toIhESt4hashIhENS9_18_Mod_range_hashingENS9_20_Default_ranged_hashENS9_20_Prime_rehash_policyENS9_17_Hashtable_traitsILb0ELb0ELb1EEEE19_M_allocate_bucketsEm' type='func-type' binding='weak-binding' visibility='default-visibility' is-defined='yes'/>
    <elf-symbol name='_ZNSt10_HashtableIhSt4pairIKhSt6vectorIN8usbguard13USBDescriptorESaIS4_EEESaIS7_ENSt8__detail10_Select1stESt8equal_toIhESt4hashIhENS9_18_Mod_range_hashingENS9_20_Default_ranged_hashENS9_20_Prime_rehash_policyENS9_17_Hashtable_traitsILb0ELb0ELb1EEEE19_M_find_before_nodeERS1_' type='func-type' binding='weak-binding' visibility='default-visibility' is-defined='yes'/>
    <elf-symbol name='_ZNSt10_HashtableIhSt4pairIKhSt6vectorIN8usbguard13USBDescriptorESaIS4_EEESaIS7_ENSt8__detail10_Select1stESt8equal_toIhESt4hashIhENS9_18_Mod_range_hashingENS9_20_Default_ranged_hashENS9_20_Prime_rehash_policyENS9_17_Hashtable_traitsILb0ELb0ELb1EEEE21_M_deallocate_bucketsEPPNS9_15_Hash_node_baseEm' type='func-type' binding='weak-binding' visibility='default-visibility' is-defined='yes'/>
    <elf-symbol name='_ZNSt10_HashtableIhSt4pairIKhSt6vectorIN8usbguard13USBDescriptorESaIS4_EEESaIS7_ENSt8__detail10_Select1stESt8equal_toIhESt4hashIhENS9_18_Mod_range_hashingENS9_20_Default_ranged_hashENS9_20_Prime_rehash_policyENS9_17_Hashtable_traitsILb0ELb0ELb1EEEE21_M_deallocate_bucketsEv' type='func-type' binding='weak-binding' visibility='default-visibility' is-defined='yes'/>
    <elf-symbol name='_ZNSt10_HashtableIhSt4pairIKhSt6vectorIN8usbguard13USBDescriptorESaIS4_EEESaIS7_ENSt8__detail10_Select1stESt8equal_toIhESt4hashIhENS9_18_Mod_range_hashingENS9_20_Default_ranged_hashENS9_20_Prime_rehash_policyENS9_17_Hashtable_traitsILb0ELb0ELb1EEEE21_M_insert_unique_nodeEmmPNS9_10_Hash_nodeIS7_Lb0EEEm' type='func-type' binding='weak-binding' visibility='default-visibility' is-defined='yes'/>
    <elf-symbol name='_ZNSt10_HashtableIhSt4pairIKhSt6vectorIN8usbguard13USBDescriptorESaIS4_EEESaIS7_ENSt8__detail10_Select1stESt8equal_toIhESt4hashIhENS9_18_Mod_range_hashingENS9_20_Default_ranged_hashENS9_20_Prime_rehash_policyENS9_17_Hashtable_traitsILb0ELb0ELb1EEEE22_M_insert_bucket_beginEmPNS9_10_Hash_nodeIS7_Lb0EEE' type='func-type' binding='weak-binding' visibility='default-visibility' is-defined='yes'/>
    <elf-symbol name='_ZNSt10_HashtableIhSt4pairIKhSt6vectorIN8usbguard13USBDescriptorESaIS4_EEESaIS7_ENSt8__detail10_Select1stESt8equal_toIhESt4hashIhENS9_18_Mod_range_hashingENS9_20_Default_ranged_hashENS9_20_Prime_rehash_policyENS9_17_Hashtable_traitsILb0ELb0ELb1EEEE22_M_remove_bucket_beginEmPNS9_10_Hash_nodeIS7_Lb0EEEm' type='func-type' binding='weak-binding' visibility='default-visibility' is-defined='yes'/>
    <elf-symbol name='_ZNSt10_HashtableIhSt4pairIKhSt6vectorIN8usbguard13USBDescriptorESaIS4_EEESaIS7_ENSt8__detail10_Select1stESt8equal_toIhESt4hashIhENS9_18_Mod_range_hashingENS9_20_Default_ranged_hashENS9_20_Prime_rehash_policyENS9_17_Hashtable_traitsILb0ELb0ELb1EEEE22__small_size_thresholdEv' type='func-type' binding='weak-binding' visibility='default-visibility' is-defined='yes'/>
    <elf-symbol name='_ZNSt10_HashtableIhSt4pairIKhSt6vectorIN8usbguard13USBDescriptorESaIS4_EEESaIS7_ENSt8__detail10_Select1stESt8equal_toIhESt4hashIhENS9_18_Mod_range_hashingENS9_20_Default_ranged_hashENS9_20_Prime_rehash_policyENS9_17_Hashtable_traitsILb0ELb0ELb1EEEE5clearEv' type='func-type' binding='weak-binding' visibility='default-visibility' is-defined='yes'/>
    <elf-symbol name='_ZNSt10_HashtableIhSt4pairIKhSt6vectorIN8usbguard13USBDescriptorESaIS4_EEESaIS7_ENSt8__detail10_Select1stESt8equal_toIhESt4hashIhENS9_18_Mod_range_hashingENS9_20_Default_ranged_hashENS9_20_Prime_rehash_policyENS9_17_Hashtable_traitsILb0ELb0ELb1EEEE5eraseERS1_' type='func-type' binding='weak-binding' visibility='default-visibility' is-defined='yes'/>
    <elf-symbol name='_ZNSt10_HashtableIhSt4pairIKhSt6vectorIN8usbguard13USBDescriptorESaIS4_EEESaIS7_ENSt8__detail10_Select1stESt8equal_toIhESt4hashIhENS9_18_Mod_range_hashingENS9_20_Default_ranged_hashENS9_20_Prime_rehash_policyENS9_17_Hashtable_traitsILb0ELb0ELb1EEEE8_M_eraseESt17integral_constantIbLb1EERS1_' type='func-type' binding='weak-binding' visibility='default-visibility' is-defined='yes'/>
    <elf-symbol name='_ZNSt10_HashtableIhSt4pairIKhSt6vectorIN8usbguard13USBDescriptorESaIS4_EEESaIS7_ENSt8__detail10_Select1stESt8equal_toIhESt4hashIhENS9_18_Mod_range_hashingENS9_20_Default_ranged_hashENS9_20_Prime_rehash_policyENS9_17_Hashtable_traitsILb0ELb0ELb1EEEE8_M_eraseEmPNS9_15_Hash_node_baseEPNS9_10_Hash_nodeIS7_Lb0EEE' type='func-type' binding='weak-binding' visibility='default-visibility' is-defined='yes'/>
    <elf-symbol name='_ZNSt10_HashtableIhSt4pairIKhSt6vectorIN8usbguard13USBDescriptorESaIS4_EEESaIS7_ENSt8__detail10_Select1stESt8equal_toIhESt4hashIhENS9_18_Mod_range_hashingENS9_20_Default_ranged_hashENS9_20_Prime_rehash_policyENS9_17_Hashtable_traitsILb0ELb0ELb1EEEE9_M_rehashEmSt17integral_constantIbLb1EE' type='func-type' binding='weak-binding' visibility='default-visibility' is-defined='yes'/>
    <elf-symbol name='_ZNSt10_HashtableIhSt4pairIKhSt6vectorIN8usbguard13USBDescriptorESaIS4_EEESaIS7_ENSt8__detail10_Select1stESt8equal_toIhESt4hashIhENS9_18_Mod_range_hashingENS9_20_Default_ranged_hashENS9_20_Prime_rehash_policyENS9_17_Hashtable_traitsILb0ELb0ELb1EEEEC1Ev' type='func-type' binding='weak-binding' visibility='default-visibility' is-defined='yes'/>
    <elf-symbol name='_ZNSt10_HashtableIhSt4pairIKhSt6vectorIN8usbguard13USBDescriptorESaIS4_EEESaIS7_ENSt8__detail10_Select1stESt8equal_toIhESt4hashIhENS9_18_Mod_range_hashingENS9_20_Default_ranged_hashENS9_20_Prime_rehash_policyENS9_17_Hashtable_traitsILb0ELb0ELb1EEEEC2Ev' type='func-type' binding='weak-binding' visibility='default-visibility' alias='_ZNSt10_HashtableIhSt4pairIKhSt6vectorIN8usbguard13USBDescriptorESaIS4_EEESaIS7_ENSt8__detail10_Select1stESt8equal_toIhESt4hashIhENS9_18_Mod_range_hashingENS9_20_Default_ranged_hashENS9_20_Prime_rehash_policyENS9_17_Hashtable_traitsILb0ELb0ELb1EEEEC1Ev' is-defined='yes'/>
    <elf-symbol name='_ZNSt10_HashtableIhSt4pairIKhSt6vectorIN8usbguard13USBDescriptorESaIS4_EEESaIS7_ENSt8__detail10_Select1stESt8equal_toIhESt4hashIhENS9_18_Mod_range_hashingENS9_20_Default_ranged_hashENS9_20_Prime_rehash_policyENS9_17_Hashtable_traitsILb0ELb0ELb1EEEED1Ev' type='func-type' binding='weak-binding' visibility='default-visibility' alias='_ZNSt10_HashtableIhSt4pairIKhSt6vectorIN8usbguard13USBDescriptorESaIS4_EEESaIS7_ENSt8__detail10_Select1stESt8equal_toIhESt4hashIhENS9_18_Mod_range_hashingENS9_20_Default_ranged_hashENS9_20_Prime_rehash_policyENS9_17_Hashtable_traitsILb0ELb0ELb1EEEED2Ev' is-defined='yes'/>
    <elf-symbol name='_ZNSt10_HashtableIhSt4pairIKhSt6vectorIN8usbguard13USBDescriptorESaIS4_EEESaIS7_ENSt8__detail10_Select1stESt8equal_toIhESt4hashIhENS9_18_Mod_range_hashingENS9_20_Default_ranged_hashENS9_20_Prime_rehash_policyENS9_17_Hashtable_traitsILb0ELb0ELb1EEEED2Ev' type='func-type' binding='weak-binding' visibility='default-visibility' is-defined='yes'/>
    <elf-symbol name='_ZNSt10_HashtableIhSt4pairIKhmESaIS2_ENSt8__detail10_Select1stESt8equal_toIhESt4hashIhENS4_18_Mod_range_hashingENS4_20_Default_ranged_hashENS4_20_Prime_rehash_policyENS4_17_Hashtable_traitsILb0ELb0ELb1EEEE12_Scoped_nodeC1IJRKSt21piecewise_construct_tSt5tupleIJRS1_EESL_IJEEEEEPNS4_16_Hashtable_allocISaINS4_10_Hash_nodeIS2_Lb0EEEEEEDpOT_' type='func-type' binding='weak-binding' visibility='default-visibility' alias='_ZNSt10_HashtableIhSt4pairIKhmESaIS2_ENSt8__detail10_Select1stESt8equal_toIhESt4hashIhENS4_18_Mod_range_hashingENS4_20_Default_ranged_hashENS4_20_Prime_rehash_policyENS4_17_Hashtable_traitsILb0ELb0ELb1EEEE12_Scoped_nodeC2IJRKSt21piecewise_construct_tSt5tupleIJRS1_EESL_IJEEEEEPNS4_16_Hashtable_allocISaINS4_10_Hash_nodeIS2_Lb0EEEEEEDpOT_' is-defined='yes'/>
    <elf-symbol name='_ZNSt10_HashtableIhSt4pairIKhmESaIS2_ENSt8__detail10_Select1stESt8equal_toIhESt4hashIhENS4_18_Mod_range_hashingENS4_20_Default_ranged_hashENS4_20_Prime_rehash_policyENS4_17_Hashtable_traitsILb0ELb0ELb1EEEE12_Scoped_nodeC2IJRKSt21piecewise_construct_tSt5tupleIJRS1_EESL_IJEEEEEPNS4_16_Hashtable_allocISaINS4_10_Hash_nodeIS2_Lb0EEEEEEDpOT_' type='func-type' binding='weak-binding' visibility='default-visibility' is-defined='yes'/>
    <elf-symbol name='_ZNSt10_HashtableIhSt4pairIKhmESaIS2_ENSt8__detail10_Select1stESt8equal_toIhESt4hashIhENS4_18_Mod_range_hashingENS4_20_Default_ranged_hashENS4_20_Prime_rehash_policyENS4_17_Hashtable_traitsILb0ELb0ELb1EEEE12_Scoped_nodeD1Ev' type='func-type' binding='weak-binding' visibility='default-visibility' is-defined='yes'/>
    <elf-symbol name='_ZNSt10_HashtableIhSt4pairIKhmESaIS2_ENSt8__detail10_Select1stESt8equal_toIhESt4hashIhENS4_18_Mod_range_hashingENS4_20_Default_ranged_hashENS4_20_Prime_rehash_policyENS4_17_Hashtable_traitsILb0ELb0ELb1EEEE12_Scoped_nodeD2Ev' type='func-type' binding='weak-binding' visibility='default-visibility' alias='_ZNSt10_HashtableIhSt4pairIKhmESaIS2_ENSt8__detail10_Select1stESt8equal_toIhESt4hashIhENS4_18_Mod_range_hashingENS4_20_Default_ranged_hashENS4_20_Prime_rehash_policyENS4_17_Hashtable_traitsILb0ELb0ELb1EEEE12_Scoped_nodeD1Ev' is-defined='yes'/>
    <elf-symbol name='_ZNSt10_HashtableIhSt4pairIKhmESaIS2_ENSt8__detail10_Select1stESt8equal_toIhESt4hashIhENS4_18_Mod_range_hashingENS4_20_Default_ranged_hashENS4_20_Prime_rehash_policyENS4_17_Hashtable_traitsILb0ELb0ELb1EEEE19_M_allocate_bucketsEm' type='func-type' binding='weak-binding' visibility='default-visibility' is-defined='yes'/>
    <elf-symbol name='_ZNSt10_HashtableIhSt4pairIKhmESaIS2_ENSt8__detail10_Select1stESt8equal_toIhESt4hashIhENS4_18_Mod_range_hashingENS4_20_Default_ranged_hashENS4_20_Prime_rehash_policyENS4_17_Hashtable_traitsILb0ELb0ELb1EEEE21_M_deallocate_bucketsEPPNS4_15_Hash_node_baseEm' type='func-type' binding='weak-binding' visibility='default-visibility' is-defined='yes'/>
    <elf-symbol name='_ZNSt10_HashtableIhSt4pairIKhmESaIS2_ENSt8__detail10_Select1stESt8equal_toIhESt4hashIhENS4_18_Mod_range_hashingENS4_20_Default_ranged_hashENS4_20_Prime_rehash_policyENS4_17_Hashtable_traitsILb0ELb0ELb1EEEE21_M_deallocate_bucketsEv' type='func-type' binding='weak-binding' visibility='default-visibility' is-defined='yes'/>
    <elf-symbol name='_ZNSt10_HashtableIhSt4pairIKhmESaIS2_ENSt8__detail10_Select1stESt8equal_toIhESt4hashIhENS4_18_Mod_range_hashingENS4_20_Default_ranged_hashENS4_20_Prime_rehash_policyENS4_17_Hashtable_traitsILb0ELb0ELb1EEEE21_M_insert_unique_nodeEmmPNS4_10_Hash_nodeIS2_Lb0EEEm' type='func-type' binding='weak-binding' visibility='default-visibility' is-defined='yes'/>
    <elf-symbol name='_ZNSt10_HashtableIhSt4pairIKhmESaIS2_ENSt8__detail10_Select1stESt8equal_toIhESt4hashIhENS4_18_Mod_range_hashingENS4_20_Default_ranged_hashENS4_20_Prime_rehash_policyENS4_17_Hashtable_traitsILb0ELb0ELb1EEEE22_M_insert_bucket_beginEmPNS4_10_Hash_nodeIS2_Lb0EEE' type='func-type' binding='weak-binding' visibility='default-visibility' is-defined='yes'/>
    <elf-symbol name='_ZNSt10_HashtableIhSt4pairIKhmESaIS2_ENSt8__detail10_Select1stESt8equal_toIhESt4hashIhENS4_18_Mod_range_hashingENS4_20_Default_ranged_hashENS4_20_Prime_rehash_policyENS4_17_Hashtable_traitsILb0ELb0ELb1EEEE5clearEv' type='func-type' binding='weak-binding' visibility='default-visibility' is-defined='yes'/>
    <elf-symbol name='_ZNSt10_HashtableIhSt4pairIKhmESaIS2_ENSt8__detail10_Select1stESt8equal_toIhESt4hashIhENS4_18_Mod_range_hashingENS4_20_Default_ranged_hashENS4_20_Prime_rehash_policyENS4_17_Hashtable_traitsILb0ELb0ELb1EEEE9_M_rehashEmSt17integral_constantIbLb1EE' type='func-type' binding='weak-binding' visibility='default-visibility' is-defined='yes'/>
    <elf-symbol name='_ZNSt10_HashtableIhSt4pairIKhmESaIS2_ENSt8__detail10_Select1stESt8equal_toIhESt4hashIhENS4_18_Mod_range_hashingENS4_20_Default_ranged_hashENS4_20_Prime_rehash_policyENS4_17_Hashtable_traitsILb0ELb0ELb1EEEEC1Ev' type='func-type' binding='weak-binding' visibility='default-visibility' alias='_ZNSt10_HashtableIhSt4pairIKhmESaIS2_ENSt8__detail10_Select1stESt8equal_toIhESt4hashIhENS4_18_Mod_range_hashingENS4_20_Default_ranged_hashENS4_20_Prime_rehash_policyENS4_17_Hashtable_traitsILb0ELb0ELb1EEEEC2Ev' is-defined='yes'/>
    <elf-symbol name='_ZNSt10_HashtableIhSt4pairIKhmESaIS2_ENSt8__detail10_Select1stESt8equal_toIhESt4hashIhENS4_18_Mod_range_hashingENS4_20_Default_ranged_hashENS4_20_Prime_rehash_policyENS4_17_Hashtable_traitsILb0ELb0ELb1EEEEC2Ev' type='func-type' binding='weak-binding' visibility='default-visibility' is-defined='yes'/>
    <elf-symbol name='_ZNSt10_HashtableIhSt4pairIKhmESaIS2_ENSt8__detail10_Select1stESt8equal_toIhESt4hashIhENS4_18_Mod_range_hashingENS4_20_Default_ranged_hashENS4_20_Prime_rehash_policyENS4_17_Hashtable_traitsILb0ELb0ELb1EEEED1Ev' type='func-type' binding='weak-binding' visibility='default-visibility' alias='_ZNSt10_HashtableIhSt4pairIKhmESaIS2_ENSt8__detail10_Select1stESt8equal_toIhESt4hashIhENS4_18_Mod_range_hashingENS4_20_Default_ranged_hashENS4_20_Prime_rehash_policyENS4_17_Hashtable_traitsILb0ELb0ELb1EEEED2Ev' is-defined='yes'/>
    <elf-symbol name='_ZNSt10_HashtableIhSt4pairIKhmESaIS2_ENSt8__detail10_Select1stESt8equal_toIhESt4hashIhENS4_18_Mod_range_hashingENS4_20_Default_ranged_hashENS4_20_Prime_rehash_policyENS4_17_Hashtable_traitsILb0ELb0ELb1EEEED2Ev' type='func-type' binding='weak-binding' visibility='default-visibility' is-defined='yes'/>
    <elf-symbol name='_ZNSt10_HashtableIjSt4pairIKjN8usbguard9IPCServer13AccessControlEESaIS5_ENSt8__detail10_Select1stESt8equal_toIjESt4hashIjENS7_18_Mod_range_hashingENS7_20_Default_ranged_hashENS7_20_Prime_rehash_policyENS7_17_Hashtable_traitsILb0ELb0ELb1EEEE10_M_emplaceIJRjRKS4_EEES0_INS7_14_Node_iteratorIS5_Lb0ELb0EEEbESt17integral_constantIbLb1EEDpOT_' type='func-type' binding='weak-binding' visibility='default-visibility' is-defined='yes'/>
    <elf-symbol name='_ZNSt10_HashtableIjSt4pairIKjN8usbguard9IPCServer13AccessControlEESaIS5_ENSt8__detail10_Select1stESt8equal_toIjESt4hashIjENS7_18_Mod_range_hashingENS7_20_Default_ranged_hashENS7_20_Prime_rehash_policyENS7_17_Hashtable_traitsILb0ELb0ELb1EEEE12_Scoped_nodeC1IJRjRKS4_EEEPNS7_16_Hashtable_allocISaINS7_10_Hash_nodeIS5_Lb0EEEEEEDpOT_' type='func-type' binding='weak-binding' visibility='default-visibility' is-defined='yes'/>
    <elf-symbol name='_ZNSt10_HashtableIjSt4pairIKjN8usbguard9IPCServer13AccessControlEESaIS5_ENSt8__detail10_Select1stESt8equal_toIjESt4hashIjENS7_18_Mod_range_hashingENS7_20_Default_ranged_hashENS7_20_Prime_rehash_policyENS7_17_Hashtable_traitsILb0ELb0ELb1EEEE12_Scoped_nodeC2IJRjRKS4_EEEPNS7_16_Hashtable_allocISaINS7_10_Hash_nodeIS5_Lb0EEEEEEDpOT_' type='func-type' binding='weak-binding' visibility='default-visibility' alias='_ZNSt10_HashtableIjSt4pairIKjN8usbguard9IPCServer13AccessControlEESaIS5_ENSt8__detail10_Select1stESt8equal_toIjESt4hashIjENS7_18_Mod_range_hashingENS7_20_Default_ranged_hashENS7_20_Prime_rehash_policyENS7_17_Hashtable_traitsILb0ELb0ELb1EEEE12_Scoped_nodeC1IJRjRKS4_EEEPNS7_16_Hashtable_allocISaINS7_10_Hash_nodeIS5_Lb0EEEEEEDpOT_' is-defined='yes'/>
    <elf-symbol name='_ZNSt10_HashtableIjSt4pairIKjN8usbguard9IPCServer13AccessControlEESaIS5_ENSt8__detail10_Select1stESt8equal_toIjESt4hashIjENS7_18_Mod_range_hashingENS7_20_Default_ranged_hashENS7_20_Prime_rehash_policyENS7_17_Hashtable_traitsILb0ELb0ELb1EEEE12_Scoped_nodeD1Ev' type='func-type' binding='weak-binding' visibility='default-visibility' alias='_ZNSt10_HashtableIjSt4pairIKjN8usbguard9IPCServer13AccessControlEESaIS5_ENSt8__detail10_Select1stESt8equal_toIjESt4hashIjENS7_18_Mod_range_hashingENS7_20_Default_ranged_hashENS7_20_Prime_rehash_policyENS7_17_Hashtable_traitsILb0ELb0ELb1EEEE12_Scoped_nodeD2Ev' is-defined='yes'/>
    <elf-symbol name='_ZNSt10_HashtableIjSt4pairIKjN8usbguard9IPCServer13AccessControlEESaIS5_ENSt8__detail10_Select1stESt8equal_toIjESt4hashIjENS7_18_Mod_range_hashingENS7_20_Default_ranged_hashENS7_20_Prime_rehash_policyENS7_17_Hashtable_traitsILb0ELb0ELb1EEEE12_Scoped_nodeD2Ev' type='func-type' binding='weak-binding' visibility='default-visibility' is-defined='yes'/>
    <elf-symbol name='_ZNSt10_HashtableIjSt4pairIKjN8usbguard9IPCServer13AccessControlEESaIS5_ENSt8__detail10_Select1stESt8equal_toIjESt4hashIjENS7_18_Mod_range_hashingENS7_20_Default_ranged_hashENS7_20_Prime_rehash_policyENS7_17_Hashtable_traitsILb0ELb0ELb1EEEE19_M_allocate_bucketsEm' type='func-type' binding='weak-binding' visibility='default-visibility' is-defined='yes'/>
    <elf-symbol name='_ZNSt10_HashtableIjSt4pairIKjN8usbguard9IPCServer13AccessControlEESaIS5_ENSt8__detail10_Select1stESt8equal_toIjESt4hashIjENS7_18_Mod_range_hashingENS7_20_Default_ranged_hashENS7_20_Prime_rehash_policyENS7_17_Hashtable_traitsILb0ELb0ELb1EEEE21_M_deallocate_bucketsEPPNS7_15_Hash_node_baseEm' type='func-type' binding='weak-binding' visibility='default-visibility' is-defined='yes'/>
    <elf-symbol name='_ZNSt10_HashtableIjSt4pairIKjN8usbguard9IPCServer13AccessControlEESaIS5_ENSt8__detail10_Select1stESt8equal_toIjESt4hashIjENS7_18_Mod_range_hashingENS7_20_Default_ranged_hashENS7_20_Prime_rehash_policyENS7_17_Hashtable_traitsILb0ELb0ELb1EEEE21_M_deallocate_bucketsEv' type='func-type' binding='weak-binding' visibility='default-visibility' is-defined='yes'/>
    <elf-symbol name='_ZNSt10_HashtableIjSt4pairIKjN8usbguard9IPCServer13AccessControlEESaIS5_ENSt8__detail10_Select1stESt8equal_toIjESt4hashIjENS7_18_Mod_range_hashingENS7_20_Default_ranged_hashENS7_20_Prime_rehash_policyENS7_17_Hashtable_traitsILb0ELb0ELb1EEEE21_M_insert_unique_nodeEmmPNS7_10_Hash_nodeIS5_Lb0EEEm' type='func-type' binding='weak-binding' visibility='default-visibility' is-defined='yes'/>
    <elf-symbol name='_ZNSt10_HashtableIjSt4pairIKjN8usbguard9IPCServer13AccessControlEESaIS5_ENSt8__detail10_Select1stESt8equal_toIjESt4hashIjENS7_18_Mod_range_hashingENS7_20_Default_ranged_hashENS7_20_Prime_rehash_policyENS7_17_Hashtable_traitsILb0ELb0ELb1EEEE22_M_insert_bucket_beginEmPNS7_10_Hash_nodeIS5_Lb0EEE' type='func-type' binding='weak-binding' visibility='default-visibility' is-defined='yes'/>
    <elf-symbol name='_ZNSt10_HashtableIjSt4pairIKjN8usbguard9IPCServer13AccessControlEESaIS5_ENSt8__detail10_Select1stESt8equal_toIjESt4hashIjENS7_18_Mod_range_hashingENS7_20_Default_ranged_hashENS7_20_Prime_rehash_policyENS7_17_Hashtable_traitsILb0ELb0ELb1EEEE22__small_size_thresholdEv' type='func-type' binding='weak-binding' visibility='default-visibility' is-defined='yes'/>
    <elf-symbol name='_ZNSt10_HashtableIjSt4pairIKjN8usbguard9IPCServer13AccessControlEESaIS5_ENSt8__detail10_Select1stESt8equal_toIjESt4hashIjENS7_18_Mod_range_hashingENS7_20_Default_ranged_hashENS7_20_Prime_rehash_policyENS7_17_Hashtable_traitsILb0ELb0ELb1EEEE5clearEv' type='func-type' binding='weak-binding' visibility='default-visibility' is-defined='yes'/>
    <elf-symbol name='_ZNSt10_HashtableIjSt4pairIKjN8usbguard9IPCServer13AccessControlEESaIS5_ENSt8__detail10_Select1stESt8equal_toIjESt4hashIjENS7_18_Mod_range_hashingENS7_20_Default_ranged_hashENS7_20_Prime_rehash_policyENS7_17_Hashtable_traitsILb0ELb0ELb1EEEE7emplaceIJRjRKS4_EEES0_INS7_14_Node_iteratorIS5_Lb0ELb0EEEbEDpOT_' type='func-type' binding='weak-binding' visibility='default-visibility' is-defined='yes'/>
    <elf-symbol name='_ZNSt10_HashtableIjSt4pairIKjN8usbguard9IPCServer13AccessControlEESaIS5_ENSt8__detail10_Select1stESt8equal_toIjESt4hashIjENS7_18_Mod_range_hashingENS7_20_Default_ranged_hashENS7_20_Prime_rehash_policyENS7_17_Hashtable_traitsILb0ELb0ELb1EEEE9_M_rehashEmSt17integral_constantIbLb1EE' type='func-type' binding='weak-binding' visibility='default-visibility' is-defined='yes'/>
    <elf-symbol name='_ZNSt10_HashtableIjSt4pairIKjN8usbguard9IPCServer13AccessControlEESaIS5_ENSt8__detail10_Select1stESt8equal_toIjESt4hashIjENS7_18_Mod_range_hashingENS7_20_Default_ranged_hashENS7_20_Prime_rehash_policyENS7_17_Hashtable_traitsILb0ELb0ELb1EEEEC1Ev' type='func-type' binding='weak-binding' visibility='default-visibility' is-defined='yes'/>
    <elf-symbol name='_ZNSt10_HashtableIjSt4pairIKjN8usbguard9IPCServer13AccessControlEESaIS5_ENSt8__detail10_Select1stESt8equal_toIjESt4hashIjENS7_18_Mod_range_hashingENS7_20_Default_ranged_hashENS7_20_Prime_rehash_policyENS7_17_Hashtable_traitsILb0ELb0ELb1EEEEC2Ev' type='func-type' binding='weak-binding' visibility='default-visibility' alias='_ZNSt10_HashtableIjSt4pairIKjN8usbguard9IPCServer13AccessControlEESaIS5_ENSt8__detail10_Select1stESt8equal_toIjESt4hashIjENS7_18_Mod_range_hashingENS7_20_Default_ranged_hashENS7_20_Prime_rehash_policyENS7_17_Hashtable_traitsILb0ELb0ELb1EEEEC1Ev' is-defined='yes'/>
    <elf-symbol name='_ZNSt10_HashtableIjSt4pairIKjN8usbguard9IPCServer13AccessControlEESaIS5_ENSt8__detail10_Select1stESt8equal_toIjESt4hashIjENS7_18_Mod_range_hashingENS7_20_Default_ranged_hashENS7_20_Prime_rehash_policyENS7_17_Hashtable_traitsILb0ELb0ELb1EEEED1Ev' type='func-type' binding='weak-binding' visibility='default-visibility' alias='_ZNSt10_HashtableIjSt4pairIKjN8usbguard9IPCServer13AccessControlEESaIS5_ENSt8__detail10_Select1stESt8equal_toIjESt4hashIjENS7_18_Mod_range_hashingENS7_20_Default_ranged_hashENS7_20_Prime_rehash_policyENS7_17_Hashtable_traitsILb0ELb0ELb1EEEED2Ev' is-defined='yes'/>
    <elf-symbol name='_ZNSt10_HashtableIjSt4pairIKjN8usbguard9IPCServer13AccessControlEESaIS5_ENSt8__detail10_Select1stESt8equal_toIjESt4hashIjENS7_18_Mod_range_hashingENS7_20_Default_ranged_hashENS7_20_Prime_rehash_policyENS7_17_Hashtable_traitsILb0ELb0ELb1EEEED2Ev' type='func-type' binding='weak-binding' visibility='default-visibility' is-defined='yes'/>
    <elf-symbol name='_ZNSt10_Head_baseILm0EONSt7__cxx1112basic_stringIcSt11char_traitsIcESaIcEEELb0EE7_M_headERS7_' type='func-type' binding='weak-binding' visibility='default-visibility' is-defined='yes'/>
    <elf-symbol name='_ZNSt10_Head_baseILm0EONSt7__cxx1112basic_stringIcSt11char_traitsIcESaIcEEELb0EEC1IS5_EEOT_' type='func-type' binding='weak-binding' visibility='default-visibility' is-defined='yes'/>
    <elf-symbol name='_ZNSt10_Head_baseILm0EONSt7__cxx1112basic_stringIcSt11char_traitsIcESaIcEEELb0EEC2IS5_EEOT_' type='func-type' binding='weak-binding' visibility='default-visibility' alias='_ZNSt10_Head_baseILm0EONSt7__cxx1112basic_stringIcSt11char_traitsIcESaIcEEELb0EEC1IS5_EEOT_' is-defined='yes'/>
    <elf-symbol name='_ZNSt10_Head_baseILm0EPN8usbguard12AuditBackendELb0EE7_M_headERKS3_' type='func-type' binding='weak-binding' visibility='default-visibility' is-defined='yes'/>
    <elf-symbol name='_ZNSt10_Head_baseILm0EPN8usbguard12AuditBackendELb0EE7_M_headERS3_' type='func-type' binding='weak-binding' visibility='default-visibility' is-defined='yes'/>
    <elf-symbol name='_ZNSt10_Head_baseILm0EPN8usbguard17RuleConditionBaseELb0EE7_M_headERKS3_' type='func-type' binding='weak-binding' visibility='default-visibility' is-defined='yes'/>
    <elf-symbol name='_ZNSt10_Head_baseILm0EPN8usbguard17RuleConditionBaseELb0EE7_M_headERS3_' type='func-type' binding='weak-binding' visibility='default-visibility' is-defined='yes'/>
    <elf-symbol name='_ZNSt10_Head_baseILm0EPN8usbguard17RuleConditionBaseELb0EEC1Ev' type='func-type' binding='weak-binding' visibility='default-visibility' is-defined='yes'/>
    <elf-symbol name='_ZNSt10_Head_baseILm0EPN8usbguard17RuleConditionBaseELb0EEC2Ev' type='func-type' binding='weak-binding' visibility='default-visibility' alias='_ZNSt10_Head_baseILm0EPN8usbguard17RuleConditionBaseELb0EEC1Ev' is-defined='yes'/>
    <elf-symbol name='_ZNSt10_Head_baseILm0EPN8usbguard7LogSinkELb0EE7_M_headERKS3_' type='func-type' binding='weak-binding' visibility='default-visibility' is-defined='yes'/>
    <elf-symbol name='_ZNSt10_Head_baseILm0EPN8usbguard7LogSinkELb0EE7_M_headERS3_' type='func-type' binding='weak-binding' visibility='default-visibility' is-defined='yes'/>
    <elf-symbol name='_ZNSt10_Head_baseILm0EPN8usbguard7LogSinkELb0EEC1Ev' type='func-type' binding='weak-binding' visibility='default-visibility' is-defined='yes'/>
    <elf-symbol name='_ZNSt10_Head_baseILm0EPN8usbguard7LogSinkELb0EEC2Ev' type='func-type' binding='weak-binding' visibility='default-visibility' alias='_ZNSt10_Head_baseILm0EPN8usbguard7LogSinkELb0EEC1Ev' is-defined='yes'/>
    <elf-symbol name='_ZNSt10_Head_baseILm0EPN9__gnu_cxx13stdio_filebufIcSt11char_traitsIcEEELb0EE7_M_headERKS6_' type='func-type' binding='weak-binding' visibility='default-visibility' is-defined='yes'/>
    <elf-symbol name='_ZNSt10_Head_baseILm0EPN9__gnu_cxx13stdio_filebufIcSt11char_traitsIcEEELb0EE7_M_headERS6_' type='func-type' binding='weak-binding' visibility='default-visibility' is-defined='yes'/>
    <elf-symbol name='_ZNSt10_Head_baseILm0EPN9__gnu_cxx13stdio_filebufIcSt11char_traitsIcEEELb0EEC1Ev' type='func-type' binding='weak-binding' visibility='default-visibility' alias='_ZNSt10_Head_baseILm0EPN9__gnu_cxx13stdio_filebufIcSt11char_traitsIcEEELb0EEC2Ev' is-defined='yes'/>
    <elf-symbol name='_ZNSt10_Head_baseILm0EPN9__gnu_cxx13stdio_filebufIcSt11char_traitsIcEEELb0EEC2Ev' type='func-type' binding='weak-binding' visibility='default-visibility' is-defined='yes'/>
    <elf-symbol name='_ZNSt10_Head_baseILm0EPNSt13__future_base12_Result_baseELb0EE7_M_headERKS3_' type='func-type' binding='weak-binding' visibility='default-visibility' is-defined='yes'/>
    <elf-symbol name='_ZNSt10_Head_baseILm0EPNSt13__future_base12_Result_baseELb0EE7_M_headERS3_' type='func-type' binding='weak-binding' visibility='default-visibility' is-defined='yes'/>
    <elf-symbol name='_ZNSt10_Head_baseILm0EPNSt13__future_base12_Result_baseELb0EEC1Ev' type='func-type' binding='weak-binding' visibility='default-visibility' alias='_ZNSt10_Head_baseILm0EPNSt13__future_base12_Result_baseELb0EEC2Ev' is-defined='yes'/>
    <elf-symbol name='_ZNSt10_Head_baseILm0EPNSt13__future_base12_Result_baseELb0EEC1IRS2_EEOT_' type='func-type' binding='weak-binding' visibility='default-visibility' is-defined='yes'/>
    <elf-symbol name='_ZNSt10_Head_baseILm0EPNSt13__future_base12_Result_baseELb0EEC2Ev' type='func-type' binding='weak-binding' visibility='default-visibility' is-defined='yes'/>
    <elf-symbol name='_ZNSt10_Head_baseILm0EPNSt13__future_base12_Result_baseELb0EEC2IRS2_EEOT_' type='func-type' binding='weak-binding' visibility='default-visibility' alias='_ZNSt10_Head_baseILm0EPNSt13__future_base12_Result_baseELb0EEC1IRS2_EEOT_' is-defined='yes'/>
    <elf-symbol name='_ZNSt10_Head_baseILm0EPNSt13__future_base7_ResultISt10unique_ptrIN6google8protobuf7MessageESt14default_deleteIS5_EEEELb0EE7_M_headERKSB_' type='func-type' binding='weak-binding' visibility='default-visibility' is-defined='yes'/>
    <elf-symbol name='_ZNSt10_Head_baseILm0EPNSt13__future_base7_ResultISt10unique_ptrIN6google8protobuf7MessageESt14default_deleteIS5_EEEELb0EE7_M_headERSB_' type='func-type' binding='weak-binding' visibility='default-visibility' is-defined='yes'/>
    <elf-symbol name='_ZNSt10_Head_baseILm0EPNSt13__future_base7_ResultISt10unique_ptrIN6google8protobuf7MessageESt14default_deleteIS5_EEEELb0EEC1Ev' type='func-type' binding='weak-binding' visibility='default-visibility' is-defined='yes'/>
    <elf-symbol name='_ZNSt10_Head_baseILm0EPNSt13__future_base7_ResultISt10unique_ptrIN6google8protobuf7MessageESt14default_deleteIS5_EEEELb0EEC2Ev' type='func-type' binding='weak-binding' visibility='default-visibility' alias='_ZNSt10_Head_baseILm0EPNSt13__future_base7_ResultISt10unique_ptrIN6google8protobuf7MessageESt14default_deleteIS5_EEEELb0EEC1Ev' is-defined='yes'/>
    <elf-symbol name='_ZNSt10_Head_baseILm0EPNSt6thread6_StateELb0EE7_M_headERS3_' type='func-type' binding='weak-binding' visibility='default-visibility' is-defined='yes'/>
    <elf-symbol name='_ZNSt10_Head_baseILm0EPNSt6thread6_StateELb0EEC1Ev' type='func-type' binding='weak-binding' visibility='default-visibility' alias='_ZNSt10_Head_baseILm0EPNSt6thread6_StateELb0EEC2Ev' is-defined='yes'/>
    <elf-symbol name='_ZNSt10_Head_baseILm0EPNSt6thread6_StateELb0EEC2Ev' type='func-type' binding='weak-binding' visibility='default-visibility' is-defined='yes'/>
    <elf-symbol name='_ZNSt10_Head_baseILm0EPcLb0EE7_M_headERKS1_' type='func-type' binding='weak-binding' visibility='default-visibility' is-defined='yes'/>
    <elf-symbol name='_ZNSt10_Head_baseILm0EPcLb0EE7_M_headERS1_' type='func-type' binding='weak-binding' visibility='default-visibility' is-defined='yes'/>
    <elf-symbol name='_ZNSt10_Head_baseILm0EPcLb0EEC1Ev' type='func-type' binding='weak-binding' visibility='default-visibility' is-defined='yes'/>
    <elf-symbol name='_ZNSt10_Head_baseILm0EPcLb0EEC1IRS0_EEOT_' type='func-type' binding='weak-binding' visibility='default-visibility' alias='_ZNSt10_Head_baseILm0EPcLb0EEC2IRS0_EEOT_' is-defined='yes'/>
    <elf-symbol name='_ZNSt10_Head_baseILm0EPcLb0EEC2Ev' type='func-type' binding='weak-binding' visibility='default-visibility' alias='_ZNSt10_Head_baseILm0EPcLb0EEC1Ev' is-defined='yes'/>
    <elf-symbol name='_ZNSt10_Head_baseILm0EPcLb0EEC2IRS0_EEOT_' type='func-type' binding='weak-binding' visibility='default-visibility' is-defined='yes'/>
    <elf-symbol name='_ZNSt10_Head_baseILm0ERKN8usbguard9IPCServer13AccessControl7SectionELb0EE7_M_headERS6_' type='func-type' binding='weak-binding' visibility='default-visibility' is-defined='yes'/>
    <elf-symbol name='_ZNSt10_Head_baseILm0ERKN8usbguard9IPCServer13AccessControl7SectionELb0EEC1ES5_' type='func-type' binding='weak-binding' visibility='default-visibility' alias='_ZNSt10_Head_baseILm0ERKN8usbguard9IPCServer13AccessControl7SectionELb0EEC2ES5_' is-defined='yes'/>
    <elf-symbol name='_ZNSt10_Head_baseILm0ERKN8usbguard9IPCServer13AccessControl7SectionELb0EEC2ES5_' type='func-type' binding='weak-binding' visibility='default-visibility' is-defined='yes'/>
    <elf-symbol name='_ZNSt10_Head_baseILm0ERKNSt7__cxx1112basic_stringIcSt11char_traitsIcESaIcEEELb0EE7_M_headERS8_' type='func-type' binding='weak-binding' visibility='default-visibility' is-defined='yes'/>
    <elf-symbol name='_ZNSt10_Head_baseILm0ERKNSt7__cxx1112basic_stringIcSt11char_traitsIcESaIcEEELb0EEC1ES7_' type='func-type' binding='weak-binding' visibility='default-visibility' alias='_ZNSt10_Head_baseILm0ERKNSt7__cxx1112basic_stringIcSt11char_traitsIcESaIcEEELb0EEC2ES7_' is-defined='yes'/>
    <elf-symbol name='_ZNSt10_Head_baseILm0ERKNSt7__cxx1112basic_stringIcSt11char_traitsIcESaIcEEELb0EEC2ES7_' type='func-type' binding='weak-binding' visibility='default-visibility' is-defined='yes'/>
    <elf-symbol name='_ZNSt10_Head_baseILm0ERKhLb0EE7_M_headERS2_' type='func-type' binding='weak-binding' visibility='default-visibility' is-defined='yes'/>
    <elf-symbol name='_ZNSt10_Head_baseILm0ERKhLb0EEC1ES1_' type='func-type' binding='weak-binding' visibility='default-visibility' is-defined='yes'/>
    <elf-symbol name='_ZNSt10_Head_baseILm0ERKhLb0EEC2ES1_' type='func-type' binding='weak-binding' visibility='default-visibility' alias='_ZNSt10_Head_baseILm0ERKhLb0EEC1ES1_' is-defined='yes'/>
    <elf-symbol name='_ZNSt10_Head_baseILm0ERKjLb0EE7_M_headERS2_' type='func-type' binding='weak-binding' visibility='default-visibility' is-defined='yes'/>
    <elf-symbol name='_ZNSt10_Head_baseILm0ERKjLb0EEC1ES1_' type='func-type' binding='weak-binding' visibility='default-visibility' is-defined='yes'/>
    <elf-symbol name='_ZNSt10_Head_baseILm0ERKjLb0EEC2ES1_' type='func-type' binding='weak-binding' visibility='default-visibility' alias='_ZNSt10_Head_baseILm0ERKjLb0EEC1ES1_' is-defined='yes'/>
    <elf-symbol name='_ZNSt10_Head_baseILm0ERKmLb0EE7_M_headERS2_' type='func-type' binding='weak-binding' visibility='default-visibility' is-defined='yes'/>
    <elf-symbol name='_ZNSt10_Head_baseILm0ERKmLb0EEC1ES1_' type='func-type' binding='weak-binding' visibility='default-visibility' is-defined='yes'/>
    <elf-symbol name='_ZNSt10_Head_baseILm0ERKmLb0EEC2ES1_' type='func-type' binding='weak-binding' visibility='default-visibility' alias='_ZNSt10_Head_baseILm0ERKmLb0EEC1ES1_' is-defined='yes'/>
    <elf-symbol name='_ZNSt10_Head_baseILm1ENSt13__future_base12_Result_base8_DeleterELb1EE7_M_headERS3_' type='func-type' binding='weak-binding' visibility='default-visibility' is-defined='yes'/>
    <elf-symbol name='_ZNSt10_Head_baseILm1ENSt13__future_base12_Result_base8_DeleterELb1EEC1Ev' type='func-type' binding='weak-binding' visibility='default-visibility' alias='_ZNSt10_Head_baseILm1ENSt13__future_base12_Result_base8_DeleterELb1EEC2Ev' is-defined='yes'/>
    <elf-symbol name='_ZNSt10_Head_baseILm1ENSt13__future_base12_Result_base8_DeleterELb1EEC1IS2_EEOT_' type='func-type' binding='weak-binding' visibility='default-visibility' is-defined='yes'/>
    <elf-symbol name='_ZNSt10_Head_baseILm1ENSt13__future_base12_Result_base8_DeleterELb1EEC2Ev' type='func-type' binding='weak-binding' visibility='default-visibility' is-defined='yes'/>
    <elf-symbol name='_ZNSt10_Head_baseILm1ENSt13__future_base12_Result_base8_DeleterELb1EEC2IS2_EEOT_' type='func-type' binding='weak-binding' visibility='default-visibility' alias='_ZNSt10_Head_baseILm1ENSt13__future_base12_Result_base8_DeleterELb1EEC1IS2_EEOT_' is-defined='yes'/>
    <elf-symbol name='_ZNSt10_Head_baseILm1EPDoFvPvELb0EE7_M_headERS3_' type='func-type' binding='weak-binding' visibility='default-visibility' is-defined='yes'/>
    <elf-symbol name='_ZNSt10_Head_baseILm1EPDoFvPvELb0EEC1IS2_EEOT_' type='func-type' binding='weak-binding' visibility='default-visibility' alias='_ZNSt10_Head_baseILm1EPDoFvPvELb0EEC2IS2_EEOT_' is-defined='yes'/>
    <elf-symbol name='_ZNSt10_Head_baseILm1EPDoFvPvELb0EEC2IS2_EEOT_' type='func-type' binding='weak-binding' visibility='default-visibility' is-defined='yes'/>
    <elf-symbol name='_ZNSt10_Head_baseILm1ERiLb0EE7_M_headERS1_' type='func-type' binding='weak-binding' visibility='default-visibility' is-defined='yes'/>
    <elf-symbol name='_ZNSt10_Head_baseILm1ERiLb0EEC1ES0_' type='func-type' binding='weak-binding' visibility='default-visibility' alias='_ZNSt10_Head_baseILm1ERiLb0EEC2ES0_' is-defined='yes'/>
    <elf-symbol name='_ZNSt10_Head_baseILm1ERiLb0EEC2ES0_' type='func-type' binding='weak-binding' visibility='default-visibility' is-defined='yes'/>
    <elf-symbol name='_ZNSt10_Head_baseILm1ESt14default_deleteIN8usbguard12AuditBackendEELb1EE7_M_headERS4_' type='func-type' binding='weak-binding' visibility='default-visibility' is-defined='yes'/>
    <elf-symbol name='_ZNSt10_Head_baseILm1ESt14default_deleteIN8usbguard17RuleConditionBaseEELb1EE7_M_headERS4_' type='func-type' binding='weak-binding' visibility='default-visibility' is-defined='yes'/>
    <elf-symbol name='_ZNSt10_Head_baseILm1ESt14default_deleteIN8usbguard17RuleConditionBaseEELb1EEC1Ev' type='func-type' binding='weak-binding' visibility='default-visibility' alias='_ZNSt10_Head_baseILm1ESt14default_deleteIN8usbguard17RuleConditionBaseEELb1EEC2Ev' is-defined='yes'/>
    <elf-symbol name='_ZNSt10_Head_baseILm1ESt14default_deleteIN8usbguard17RuleConditionBaseEELb1EEC2Ev' type='func-type' binding='weak-binding' visibility='default-visibility' is-defined='yes'/>
    <elf-symbol name='_ZNSt10_Head_baseILm1ESt14default_deleteIN8usbguard7LogSinkEELb1EE7_M_headERS4_' type='func-type' binding='weak-binding' visibility='default-visibility' is-defined='yes'/>
    <elf-symbol name='_ZNSt10_Head_baseILm1ESt14default_deleteIN8usbguard7LogSinkEELb1EEC1Ev' type='func-type' binding='weak-binding' visibility='default-visibility' alias='_ZNSt10_Head_baseILm1ESt14default_deleteIN8usbguard7LogSinkEELb1EEC2Ev' is-defined='yes'/>
    <elf-symbol name='_ZNSt10_Head_baseILm1ESt14default_deleteIN8usbguard7LogSinkEELb1EEC2Ev' type='func-type' binding='weak-binding' visibility='default-visibility' is-defined='yes'/>
    <elf-symbol name='_ZNSt10_Head_baseILm1ESt14default_deleteIN9__gnu_cxx13stdio_filebufIcSt11char_traitsIcEEEELb1EE7_M_headERS7_' type='func-type' binding='weak-binding' visibility='default-visibility' is-defined='yes'/>
    <elf-symbol name='_ZNSt10_Head_baseILm1ESt14default_deleteIN9__gnu_cxx13stdio_filebufIcSt11char_traitsIcEEEELb1EEC1Ev' type='func-type' binding='weak-binding' visibility='default-visibility' alias='_ZNSt10_Head_baseILm1ESt14default_deleteIN9__gnu_cxx13stdio_filebufIcSt11char_traitsIcEEEELb1EEC2Ev' is-defined='yes'/>
    <elf-symbol name='_ZNSt10_Head_baseILm1ESt14default_deleteIN9__gnu_cxx13stdio_filebufIcSt11char_traitsIcEEEELb1EEC2Ev' type='func-type' binding='weak-binding' visibility='default-visibility' is-defined='yes'/>
    <elf-symbol name='_ZNSt10_Head_baseILm1ESt14default_deleteINSt6thread6_StateEELb1EE7_M_headERS4_' type='func-type' binding='weak-binding' visibility='default-visibility' is-defined='yes'/>
    <elf-symbol name='_ZNSt10_Head_baseILm1ESt14default_deleteINSt6thread6_StateEELb1EEC1Ev' type='func-type' binding='weak-binding' visibility='default-visibility' is-defined='yes'/>
    <elf-symbol name='_ZNSt10_Head_baseILm1ESt14default_deleteINSt6thread6_StateEELb1EEC2Ev' type='func-type' binding='weak-binding' visibility='default-visibility' alias='_ZNSt10_Head_baseILm1ESt14default_deleteINSt6thread6_StateEELb1EEC1Ev' is-defined='yes'/>
    <elf-symbol name='_ZNSt10_Head_baseILm1EiLb0EE7_M_headERKS0_' type='func-type' binding='weak-binding' visibility='default-visibility' is-defined='yes'/>
    <elf-symbol name='_ZNSt10_Head_baseILm1EiLb0EE7_M_headERS0_' type='func-type' binding='weak-binding' visibility='default-visibility' is-defined='yes'/>
    <elf-symbol name='_ZNSt10_Head_baseILm1EiLb0EEC1IRiEEOT_' type='func-type' binding='weak-binding' visibility='default-visibility' is-defined='yes'/>
    <elf-symbol name='_ZNSt10_Head_baseILm1EiLb0EEC2IRiEEOT_' type='func-type' binding='weak-binding' visibility='default-visibility' alias='_ZNSt10_Head_baseILm1EiLb0EEC1IRiEEOT_' is-defined='yes'/>
    <elf-symbol name='_ZNSt10_Head_baseILm2ERiLb0EE7_M_headERS1_' type='func-type' binding='weak-binding' visibility='default-visibility' is-defined='yes'/>
    <elf-symbol name='_ZNSt10_Head_baseILm2ERiLb0EEC1ES0_' type='func-type' binding='weak-binding' visibility='default-visibility' alias='_ZNSt10_Head_baseILm2ERiLb0EEC2ES0_' is-defined='yes'/>
    <elf-symbol name='_ZNSt10_Head_baseILm2ERiLb0EEC2ES0_' type='func-type' binding='weak-binding' visibility='default-visibility' is-defined='yes'/>
    <elf-symbol name='_ZNSt10_Head_baseILm2EiLb0EE7_M_headERKS0_' type='func-type' binding='weak-binding' visibility='default-visibility' is-defined='yes'/>
    <elf-symbol name='_ZNSt10_Head_baseILm2EiLb0EE7_M_headERS0_' type='func-type' binding='weak-binding' visibility='default-visibility' is-defined='yes'/>
    <elf-symbol name='_ZNSt10_Head_baseILm2EiLb0EEC1IRiEEOT_' type='func-type' binding='weak-binding' visibility='default-visibility' is-defined='yes'/>
    <elf-symbol name='_ZNSt10_Head_baseILm2EiLb0EEC2IRiEEOT_' type='func-type' binding='weak-binding' visibility='default-visibility' alias='_ZNSt10_Head_baseILm2EiLb0EEC1IRiEEOT_' is-defined='yes'/>
    <elf-symbol name='_ZNSt10__pair_getILm0EE10__move_getIRKNSt7__cxx1112basic_stringIcSt11char_traitsIcESaIcEEERSt10shared_ptrIN8usbguard24UMockdevDeviceDefinitionEEEEOT_OSt4pairISF_T0_E' type='func-type' binding='weak-binding' visibility='default-visibility' is-defined='yes'/>
    <elf-symbol name='_ZNSt10__pair_getILm0EE10__move_getIRKNSt7__cxx1112basic_stringIcSt11char_traitsIcESaIcEEERSt10unique_ptrIN8usbguard7LogSinkESt14default_deleteISC_EEEEOT_OSt4pairISH_T0_E' type='func-type' binding='weak-binding' visibility='default-visibility' is-defined='yes'/>
    <elf-symbol name='_ZNSt10__pair_getILm0EE10__move_getIRKjRN8usbguard3IPC14MessageHandlerINS4_16IPCClientPrivateEEEEEOT_OSt4pairISA_T0_E' type='func-type' binding='weak-binding' visibility='default-visibility' is-defined='yes'/>
    <elf-symbol name='_ZNSt10__pair_getILm0EE10__move_getIRNSt7__cxx1112basic_stringIcSt11char_traitsIcESaIcEEES8_EEOT_OSt4pairIS9_T0_E' type='func-type' binding='weak-binding' visibility='default-visibility' is-defined='yes'/>
    <elf-symbol name='_ZNSt10__pair_getILm1EE10__move_getIRKNSt7__cxx1112basic_stringIcSt11char_traitsIcESaIcEEERSt10shared_ptrIN8usbguard24UMockdevDeviceDefinitionEEEEOT0_OSt4pairIT_SF_E' type='func-type' binding='weak-binding' visibility='default-visibility' is-defined='yes'/>
    <elf-symbol name='_ZNSt10__pair_getILm1EE10__move_getIRKNSt7__cxx1112basic_stringIcSt11char_traitsIcESaIcEEERSt10unique_ptrIN8usbguard7LogSinkESt14default_deleteISC_EEEEOT0_OSt4pairIT_SH_E' type='func-type' binding='weak-binding' visibility='default-visibility' is-defined='yes'/>
    <elf-symbol name='_ZNSt10__pair_getILm1EE10__move_getIRKjRN8usbguard3IPC14MessageHandlerINS4_16IPCClientPrivateEEEEEOT0_OSt4pairIT_SA_E' type='func-type' binding='weak-binding' visibility='default-visibility' is-defined='yes'/>
    <elf-symbol name='_ZNSt10__pair_getILm1EE10__move_getIRNSt7__cxx1112basic_stringIcSt11char_traitsIcESaIcEEES8_EEOT0_OSt4pairIT_S9_E' type='func-type' binding='weak-binding' visibility='default-visibility' is-defined='yes'/>
    <elf-symbol name='_ZNSt10error_codeC1EiRKNSt3_V214error_categoryE' type='func-type' binding='weak-binding' visibility='default-visibility' is-defined='yes'/>
    <elf-symbol name='_ZNSt10error_codeC2EiRKNSt3_V214error_categoryE' type='func-type' binding='weak-binding' visibility='default-visibility' alias='_ZNSt10error_codeC1EiRKNSt3_V214error_categoryE' is-defined='yes'/>
    <elf-symbol name='_ZNSt10shared_ptrIKN8usbguard4RuleEEC1EOS3_' type='func-type' binding='weak-binding' visibility='default-visibility' is-defined='yes'/>
    <elf-symbol name='_ZNSt10shared_ptrIKN8usbguard4RuleEEC1ERKS3_' type='func-type' binding='weak-binding' visibility='default-visibility' alias='_ZNSt10shared_ptrIKN8usbguard4RuleEEC2ERKS3_' is-defined='yes'/>
    <elf-symbol name='_ZNSt10shared_ptrIKN8usbguard4RuleEEC1IS1_vEEOS_IT_E' type='func-type' binding='weak-binding' visibility='default-visibility' is-defined='yes'/>
    <elf-symbol name='_ZNSt10shared_ptrIKN8usbguard4RuleEEC1IS1_vEERKS_IT_E' type='func-type' binding='weak-binding' visibility='default-visibility' is-defined='yes'/>
    <elf-symbol name='_ZNSt10shared_ptrIKN8usbguard4RuleEEC2EOS3_' type='func-type' binding='weak-binding' visibility='default-visibility' alias='_ZNSt10shared_ptrIKN8usbguard4RuleEEC1EOS3_' is-defined='yes'/>
    <elf-symbol name='_ZNSt10shared_ptrIKN8usbguard4RuleEEC2ERKS3_' type='func-type' binding='weak-binding' visibility='default-visibility' is-defined='yes'/>
    <elf-symbol name='_ZNSt10shared_ptrIKN8usbguard4RuleEEC2IS1_vEEOS_IT_E' type='func-type' binding='weak-binding' visibility='default-visibility' alias='_ZNSt10shared_ptrIKN8usbguard4RuleEEC1IS1_vEEOS_IT_E' is-defined='yes'/>
    <elf-symbol name='_ZNSt10shared_ptrIKN8usbguard4RuleEEC2IS1_vEERKS_IT_E' type='func-type' binding='weak-binding' visibility='default-visibility' alias='_ZNSt10shared_ptrIKN8usbguard4RuleEEC1IS1_vEERKS_IT_E' is-defined='yes'/>
    <elf-symbol name='_ZNSt10shared_ptrIKN8usbguard4RuleEED1Ev' type='func-type' binding='weak-binding' visibility='default-visibility' alias='_ZNSt10shared_ptrIKN8usbguard4RuleEED2Ev' is-defined='yes'/>
    <elf-symbol name='_ZNSt10shared_ptrIKN8usbguard4RuleEED2Ev' type='func-type' binding='weak-binding' visibility='default-visibility' is-defined='yes'/>
    <elf-symbol name='_ZNSt10shared_ptrIN8usbguard12AuditBackendEEC1EOS2_' type='func-type' binding='weak-binding' visibility='default-visibility' alias='_ZNSt10shared_ptrIN8usbguard12AuditBackendEEC2EOS2_' is-defined='yes'/>
    <elf-symbol name='_ZNSt10shared_ptrIN8usbguard12AuditBackendEEC1Ev' type='func-type' binding='weak-binding' visibility='default-visibility' alias='_ZNSt10shared_ptrIN8usbguard12AuditBackendEEC2Ev' is-defined='yes'/>
    <elf-symbol name='_ZNSt10shared_ptrIN8usbguard12AuditBackendEEC1IS1_St14default_deleteIS1_EvEEOSt10unique_ptrIT_T0_E' type='func-type' binding='weak-binding' visibility='default-visibility' is-defined='yes'/>
    <elf-symbol name='_ZNSt10shared_ptrIN8usbguard12AuditBackendEEC2EOS2_' type='func-type' binding='weak-binding' visibility='default-visibility' is-defined='yes'/>
    <elf-symbol name='_ZNSt10shared_ptrIN8usbguard12AuditBackendEEC2Ev' type='func-type' binding='weak-binding' visibility='default-visibility' is-defined='yes'/>
    <elf-symbol name='_ZNSt10shared_ptrIN8usbguard12AuditBackendEEC2IS1_St14default_deleteIS1_EvEEOSt10unique_ptrIT_T0_E' type='func-type' binding='weak-binding' visibility='default-visibility' alias='_ZNSt10shared_ptrIN8usbguard12AuditBackendEEC1IS1_St14default_deleteIS1_EvEEOSt10unique_ptrIT_T0_E' is-defined='yes'/>
    <elf-symbol name='_ZNSt10shared_ptrIN8usbguard12AuditBackendEEaSEOS2_' type='func-type' binding='weak-binding' visibility='default-visibility' is-defined='yes'/>
    <elf-symbol name='_ZNSt10shared_ptrIN8usbguard13DeviceManagerEEC1INS0_19UEventDeviceManagerEvEEOS_IT_E' type='func-type' binding='weak-binding' visibility='default-visibility' is-defined='yes'/>
    <elf-symbol name='_ZNSt10shared_ptrIN8usbguard13DeviceManagerEEC1INS0_21UMockdevDeviceManagerEvEEOS_IT_E' type='func-type' binding='weak-binding' visibility='default-visibility' is-defined='yes'/>
    <elf-symbol name='_ZNSt10shared_ptrIN8usbguard13DeviceManagerEEC2INS0_19UEventDeviceManagerEvEEOS_IT_E' type='func-type' binding='weak-binding' visibility='default-visibility' alias='_ZNSt10shared_ptrIN8usbguard13DeviceManagerEEC1INS0_19UEventDeviceManagerEvEEOS_IT_E' is-defined='yes'/>
    <elf-symbol name='_ZNSt10shared_ptrIN8usbguard13DeviceManagerEEC2INS0_21UMockdevDeviceManagerEvEEOS_IT_E' type='func-type' binding='weak-binding' visibility='default-visibility' alias='_ZNSt10shared_ptrIN8usbguard13DeviceManagerEEC1INS0_21UMockdevDeviceManagerEvEEOS_IT_E' is-defined='yes'/>
    <elf-symbol name='_ZNSt10shared_ptrIN8usbguard4RuleEEC1EOS2_' type='func-type' binding='weak-binding' visibility='default-visibility' alias='_ZNSt10shared_ptrIN8usbguard4RuleEEC2EOS2_' is-defined='yes'/>
    <elf-symbol name='_ZNSt10shared_ptrIN8usbguard4RuleEEC1ERKS2_' type='func-type' binding='weak-binding' visibility='default-visibility' alias='_ZNSt10shared_ptrIN8usbguard4RuleEEC2ERKS2_' is-defined='yes'/>
    <elf-symbol name='_ZNSt10shared_ptrIN8usbguard4RuleEEC1ISaIvEJEEESt20_Sp_alloc_shared_tagIT_EDpOT0_' type='func-type' binding='weak-binding' visibility='default-visibility' alias='_ZNSt10shared_ptrIN8usbguard4RuleEEC2ISaIvEJEEESt20_Sp_alloc_shared_tagIT_EDpOT0_' is-defined='yes'/>
    <elf-symbol name='_ZNSt10shared_ptrIN8usbguard4RuleEEC1ISaIvEJRKS1_EEESt20_Sp_alloc_shared_tagIT_EDpOT0_' type='func-type' binding='weak-binding' visibility='default-visibility' alias='_ZNSt10shared_ptrIN8usbguard4RuleEEC2ISaIvEJRKS1_EEESt20_Sp_alloc_shared_tagIT_EDpOT0_' is-defined='yes'/>
    <elf-symbol name='_ZNSt10shared_ptrIN8usbguard4RuleEEC2EOS2_' type='func-type' binding='weak-binding' visibility='default-visibility' is-defined='yes'/>
    <elf-symbol name='_ZNSt10shared_ptrIN8usbguard4RuleEEC2ERKS2_' type='func-type' binding='weak-binding' visibility='default-visibility' is-defined='yes'/>
    <elf-symbol name='_ZNSt10shared_ptrIN8usbguard4RuleEEC2ISaIvEJEEESt20_Sp_alloc_shared_tagIT_EDpOT0_' type='func-type' binding='weak-binding' visibility='default-visibility' is-defined='yes'/>
    <elf-symbol name='_ZNSt10shared_ptrIN8usbguard4RuleEEC2ISaIvEJRKS1_EEESt20_Sp_alloc_shared_tagIT_EDpOT0_' type='func-type' binding='weak-binding' visibility='default-visibility' is-defined='yes'/>
    <elf-symbol name='_ZNSt10shared_ptrIN8usbguard4RuleEED1Ev' type='func-type' binding='weak-binding' visibility='default-visibility' is-defined='yes'/>
    <elf-symbol name='_ZNSt10shared_ptrIN8usbguard4RuleEED2Ev' type='func-type' binding='weak-binding' visibility='default-visibility' alias='_ZNSt10shared_ptrIN8usbguard4RuleEED1Ev' is-defined='yes'/>
    <elf-symbol name='_ZNSt10shared_ptrIN8usbguard4RuleEEaSEOS2_' type='func-type' binding='weak-binding' visibility='default-visibility' is-defined='yes'/>
    <elf-symbol name='_ZNSt10shared_ptrIN8usbguard4RuleEEaSERKS2_' type='func-type' binding='weak-binding' visibility='default-visibility' is-defined='yes'/>
    <elf-symbol name='_ZNSt10shared_ptrIN8usbguard6DeviceEEC1EOS2_' type='func-type' binding='weak-binding' visibility='default-visibility' alias='_ZNSt10shared_ptrIN8usbguard6DeviceEEC2EOS2_' is-defined='yes'/>
    <elf-symbol name='_ZNSt10shared_ptrIN8usbguard6DeviceEEC1ERKS2_' type='func-type' binding='weak-binding' visibility='default-visibility' alias='_ZNSt10shared_ptrIN8usbguard6DeviceEEC2ERKS2_' is-defined='yes'/>
    <elf-symbol name='_ZNSt10shared_ptrIN8usbguard6DeviceEEC1Ev' type='func-type' binding='weak-binding' visibility='default-visibility' alias='_ZNSt10shared_ptrIN8usbguard6DeviceEEC2Ev' is-defined='yes'/>
    <elf-symbol name='_ZNSt10shared_ptrIN8usbguard6DeviceEEC1INS0_10DeviceBaseEEERKS_IT_EPS1_' type='func-type' binding='weak-binding' visibility='default-visibility' alias='_ZNSt10shared_ptrIN8usbguard6DeviceEEC2INS0_10DeviceBaseEEERKS_IT_EPS1_' is-defined='yes'/>
    <elf-symbol name='_ZNSt10shared_ptrIN8usbguard6DeviceEEC1INS0_10DeviceBaseEvEEOS_IT_E' type='func-type' binding='weak-binding' visibility='default-visibility' alias='_ZNSt10shared_ptrIN8usbguard6DeviceEEC2INS0_10DeviceBaseEvEEOS_IT_E' is-defined='yes'/>
    <elf-symbol name='_ZNSt10shared_ptrIN8usbguard6DeviceEEC1INS0_10DeviceBaseEvEERKS_IT_E' type='func-type' binding='weak-binding' visibility='default-visibility' alias='_ZNSt10shared_ptrIN8usbguard6DeviceEEC2INS0_10DeviceBaseEvEERKS_IT_E' is-defined='yes'/>
    <elf-symbol name='_ZNSt10shared_ptrIN8usbguard6DeviceEEC2EOS2_' type='func-type' binding='weak-binding' visibility='default-visibility' is-defined='yes'/>
    <elf-symbol name='_ZNSt10shared_ptrIN8usbguard6DeviceEEC2ERKS2_' type='func-type' binding='weak-binding' visibility='default-visibility' is-defined='yes'/>
    <elf-symbol name='_ZNSt10shared_ptrIN8usbguard6DeviceEEC2Ev' type='func-type' binding='weak-binding' visibility='default-visibility' is-defined='yes'/>
    <elf-symbol name='_ZNSt10shared_ptrIN8usbguard6DeviceEEC2INS0_10DeviceBaseEEERKS_IT_EPS1_' type='func-type' binding='weak-binding' visibility='default-visibility' is-defined='yes'/>
    <elf-symbol name='_ZNSt10shared_ptrIN8usbguard6DeviceEEC2INS0_10DeviceBaseEvEEOS_IT_E' type='func-type' binding='weak-binding' visibility='default-visibility' is-defined='yes'/>
    <elf-symbol name='_ZNSt10shared_ptrIN8usbguard6DeviceEEC2INS0_10DeviceBaseEvEERKS_IT_E' type='func-type' binding='weak-binding' visibility='default-visibility' is-defined='yes'/>
    <elf-symbol name='_ZNSt10shared_ptrIN8usbguard6DeviceEED1Ev' type='func-type' binding='weak-binding' visibility='default-visibility' is-defined='yes'/>
    <elf-symbol name='_ZNSt10shared_ptrIN8usbguard6DeviceEED2Ev' type='func-type' binding='weak-binding' visibility='default-visibility' alias='_ZNSt10shared_ptrIN8usbguard6DeviceEED1Ev' is-defined='yes'/>
    <elf-symbol name='_ZNSt10shared_ptrIN8usbguard6DeviceEEaSERKS2_' type='func-type' binding='weak-binding' visibility='default-visibility' is-defined='yes'/>
    <elf-symbol name='_ZNSt10shared_ptrIN8usbguard7RuleSetEEC1ERKS2_' type='func-type' binding='weak-binding' visibility='default-visibility' alias='_ZNSt10shared_ptrIN8usbguard7RuleSetEEC2ERKS2_' is-defined='yes'/>
    <elf-symbol name='_ZNSt10shared_ptrIN8usbguard7RuleSetEEC2ERKS2_' type='func-type' binding='weak-binding' visibility='default-visibility' is-defined='yes'/>
    <elf-symbol name='_ZNSt10shared_ptrIN8usbguard7RuleSetEED1Ev' type='func-type' binding='weak-binding' visibility='default-visibility' alias='_ZNSt10shared_ptrIN8usbguard7RuleSetEED2Ev' is-defined='yes'/>
    <elf-symbol name='_ZNSt10shared_ptrIN8usbguard7RuleSetEED2Ev' type='func-type' binding='weak-binding' visibility='default-visibility' is-defined='yes'/>
    <elf-symbol name='_ZNSt10shared_ptrIN8usbguard7RuleSetEEaSERKS2_' type='func-type' binding='weak-binding' visibility='default-visibility' is-defined='yes'/>
    <elf-symbol name='_ZNSt10shared_ptrINSt13__future_base13_State_baseV2EEC1ERKS2_' type='func-type' binding='weak-binding' visibility='default-visibility' is-defined='yes'/>
    <elf-symbol name='_ZNSt10shared_ptrINSt13__future_base13_State_baseV2EEC1ISaIvEJEEESt20_Sp_alloc_shared_tagIT_EDpOT0_' type='func-type' binding='weak-binding' visibility='default-visibility' alias='_ZNSt10shared_ptrINSt13__future_base13_State_baseV2EEC2ISaIvEJEEESt20_Sp_alloc_shared_tagIT_EDpOT0_' is-defined='yes'/>
    <elf-symbol name='_ZNSt10shared_ptrINSt13__future_base13_State_baseV2EEC2ERKS2_' type='func-type' binding='weak-binding' visibility='default-visibility' alias='_ZNSt10shared_ptrINSt13__future_base13_State_baseV2EEC1ERKS2_' is-defined='yes'/>
    <elf-symbol name='_ZNSt10shared_ptrINSt13__future_base13_State_baseV2EEC2ISaIvEJEEESt20_Sp_alloc_shared_tagIT_EDpOT0_' type='func-type' binding='weak-binding' visibility='default-visibility' is-defined='yes'/>
    <elf-symbol name='_ZNSt10shared_ptrINSt13__future_base13_State_baseV2EED1Ev' type='func-type' binding='weak-binding' visibility='default-visibility' alias='_ZNSt10shared_ptrINSt13__future_base13_State_baseV2EED2Ev' is-defined='yes'/>
    <elf-symbol name='_ZNSt10shared_ptrINSt13__future_base13_State_baseV2EED2Ev' type='func-type' binding='weak-binding' visibility='default-visibility' is-defined='yes'/>
    <elf-symbol name='_ZNSt10unique_ptrIN8usbguard12AuditBackendESt14default_deleteIS1_EE11get_deleterEv' type='func-type' binding='weak-binding' visibility='default-visibility' is-defined='yes'/>
    <elf-symbol name='_ZNSt10unique_ptrIN8usbguard12AuditBackendESt14default_deleteIS1_EE7releaseEv' type='func-type' binding='weak-binding' visibility='default-visibility' is-defined='yes'/>
    <elf-symbol name='_ZNSt10unique_ptrIN8usbguard17RuleConditionBaseESt14default_deleteIS1_EE11get_deleterEv' type='func-type' binding='weak-binding' visibility='default-visibility' is-defined='yes'/>
    <elf-symbol name='_ZNSt10unique_ptrIN8usbguard17RuleConditionBaseESt14default_deleteIS1_EE5resetEPS1_' type='func-type' binding='weak-binding' visibility='default-visibility' is-defined='yes'/>
    <elf-symbol name='_ZNSt10unique_ptrIN8usbguard17RuleConditionBaseESt14default_deleteIS1_EEC1EOS4_' type='func-type' binding='weak-binding' visibility='default-visibility' is-defined='yes'/>
    <elf-symbol name='_ZNSt10unique_ptrIN8usbguard17RuleConditionBaseESt14default_deleteIS1_EEC1IS3_vEEPS1_' type='func-type' binding='weak-binding' visibility='default-visibility' alias='_ZNSt10unique_ptrIN8usbguard17RuleConditionBaseESt14default_deleteIS1_EEC2IS3_vEEPS1_' is-defined='yes'/>
    <elf-symbol name='_ZNSt10unique_ptrIN8usbguard17RuleConditionBaseESt14default_deleteIS1_EEC1IS3_vEEv' type='func-type' binding='weak-binding' visibility='default-visibility' is-defined='yes'/>
    <elf-symbol name='_ZNSt10unique_ptrIN8usbguard17RuleConditionBaseESt14default_deleteIS1_EEC2EOS4_' type='func-type' binding='weak-binding' visibility='default-visibility' alias='_ZNSt10unique_ptrIN8usbguard17RuleConditionBaseESt14default_deleteIS1_EEC1EOS4_' is-defined='yes'/>
    <elf-symbol name='_ZNSt10unique_ptrIN8usbguard17RuleConditionBaseESt14default_deleteIS1_EEC2IS3_vEEPS1_' type='func-type' binding='weak-binding' visibility='default-visibility' is-defined='yes'/>
    <elf-symbol name='_ZNSt10unique_ptrIN8usbguard17RuleConditionBaseESt14default_deleteIS1_EEC2IS3_vEEv' type='func-type' binding='weak-binding' visibility='default-visibility' alias='_ZNSt10unique_ptrIN8usbguard17RuleConditionBaseESt14default_deleteIS1_EEC1IS3_vEEv' is-defined='yes'/>
    <elf-symbol name='_ZNSt10unique_ptrIN8usbguard17RuleConditionBaseESt14default_deleteIS1_EED1Ev' type='func-type' binding='weak-binding' visibility='default-visibility' alias='_ZNSt10unique_ptrIN8usbguard17RuleConditionBaseESt14default_deleteIS1_EED2Ev' is-defined='yes'/>
    <elf-symbol name='_ZNSt10unique_ptrIN8usbguard17RuleConditionBaseESt14default_deleteIS1_EED2Ev' type='func-type' binding='weak-binding' visibility='default-visibility' is-defined='yes'/>
    <elf-symbol name='_ZNSt10unique_ptrIN8usbguard17RuleConditionBaseESt14default_deleteIS1_EEaSEOS4_' type='func-type' binding='weak-binding' visibility='default-visibility' is-defined='yes'/>
    <elf-symbol name='_ZNSt10unique_ptrIN8usbguard7LogSinkESt14default_deleteIS1_EE11get_deleterEv' type='func-type' binding='weak-binding' visibility='default-visibility' is-defined='yes'/>
    <elf-symbol name='_ZNSt10unique_ptrIN8usbguard7LogSinkESt14default_deleteIS1_EEC1EOS4_' type='func-type' binding='weak-binding' visibility='default-visibility' alias='_ZNSt10unique_ptrIN8usbguard7LogSinkESt14default_deleteIS1_EEC2EOS4_' is-defined='yes'/>
    <elf-symbol name='_ZNSt10unique_ptrIN8usbguard7LogSinkESt14default_deleteIS1_EEC1IS3_vEEPS1_' type='func-type' binding='weak-binding' visibility='default-visibility' alias='_ZNSt10unique_ptrIN8usbguard7LogSinkESt14default_deleteIS1_EEC2IS3_vEEPS1_' is-defined='yes'/>
    <elf-symbol name='_ZNSt10unique_ptrIN8usbguard7LogSinkESt14default_deleteIS1_EEC2EOS4_' type='func-type' binding='weak-binding' visibility='default-visibility' is-defined='yes'/>
    <elf-symbol name='_ZNSt10unique_ptrIN8usbguard7LogSinkESt14default_deleteIS1_EEC2IS3_vEEPS1_' type='func-type' binding='weak-binding' visibility='default-visibility' is-defined='yes'/>
    <elf-symbol name='_ZNSt10unique_ptrIN8usbguard7LogSinkESt14default_deleteIS1_EED1Ev' type='func-type' binding='weak-binding' visibility='default-visibility' alias='_ZNSt10unique_ptrIN8usbguard7LogSinkESt14default_deleteIS1_EED2Ev' is-defined='yes'/>
    <elf-symbol name='_ZNSt10unique_ptrIN8usbguard7LogSinkESt14default_deleteIS1_EED2Ev' type='func-type' binding='weak-binding' visibility='default-visibility' is-defined='yes'/>
    <elf-symbol name='_ZNSt10unique_ptrIN9__gnu_cxx13stdio_filebufIcSt11char_traitsIcEEESt14default_deleteIS4_EE11get_deleterEv' type='func-type' binding='weak-binding' visibility='default-visibility' is-defined='yes'/>
    <elf-symbol name='_ZNSt10unique_ptrIN9__gnu_cxx13stdio_filebufIcSt11char_traitsIcEEESt14default_deleteIS4_EEC1IS6_vEEPS4_' type='func-type' binding='weak-binding' visibility='default-visibility' alias='_ZNSt10unique_ptrIN9__gnu_cxx13stdio_filebufIcSt11char_traitsIcEEESt14default_deleteIS4_EEC2IS6_vEEPS4_' is-defined='yes'/>
    <elf-symbol name='_ZNSt10unique_ptrIN9__gnu_cxx13stdio_filebufIcSt11char_traitsIcEEESt14default_deleteIS4_EEC2IS6_vEEPS4_' type='func-type' binding='weak-binding' visibility='default-visibility' is-defined='yes'/>
    <elf-symbol name='_ZNSt10unique_ptrIN9__gnu_cxx13stdio_filebufIcSt11char_traitsIcEEESt14default_deleteIS4_EED1Ev' type='func-type' binding='weak-binding' visibility='default-visibility' alias='_ZNSt10unique_ptrIN9__gnu_cxx13stdio_filebufIcSt11char_traitsIcEEESt14default_deleteIS4_EED2Ev' is-defined='yes'/>
    <elf-symbol name='_ZNSt10unique_ptrIN9__gnu_cxx13stdio_filebufIcSt11char_traitsIcEEESt14default_deleteIS4_EED2Ev' type='func-type' binding='weak-binding' visibility='default-visibility' is-defined='yes'/>
    <elf-symbol name='_ZNSt10unique_ptrINSt13__future_base12_Result_baseENS1_8_DeleterEE11get_deleterEv' type='func-type' binding='weak-binding' visibility='default-visibility' is-defined='yes'/>
    <elf-symbol name='_ZNSt10unique_ptrINSt13__future_base12_Result_baseENS1_8_DeleterEE4swapERS3_' type='func-type' binding='weak-binding' visibility='default-visibility' is-defined='yes'/>
    <elf-symbol name='_ZNSt10unique_ptrINSt13__future_base12_Result_baseENS1_8_DeleterEEC1INS0_7_ResultIS_IN6google8protobuf7MessageESt14default_deleteIS8_EEEES2_vEEOS_IT_T0_E' type='func-type' binding='weak-binding' visibility='default-visibility' alias='_ZNSt10unique_ptrINSt13__future_base12_Result_baseENS1_8_DeleterEEC2INS0_7_ResultIS_IN6google8protobuf7MessageESt14default_deleteIS8_EEEES2_vEEOS_IT_T0_E' is-defined='yes'/>
    <elf-symbol name='_ZNSt10unique_ptrINSt13__future_base12_Result_baseENS1_8_DeleterEEC1IS2_vEEv' type='func-type' binding='weak-binding' visibility='default-visibility' alias='_ZNSt10unique_ptrINSt13__future_base12_Result_baseENS1_8_DeleterEEC2IS2_vEEv' is-defined='yes'/>
    <elf-symbol name='_ZNSt10unique_ptrINSt13__future_base12_Result_baseENS1_8_DeleterEEC2INS0_7_ResultIS_IN6google8protobuf7MessageESt14default_deleteIS8_EEEES2_vEEOS_IT_T0_E' type='func-type' binding='weak-binding' visibility='default-visibility' is-defined='yes'/>
    <elf-symbol name='_ZNSt10unique_ptrINSt13__future_base12_Result_baseENS1_8_DeleterEEC2IS2_vEEv' type='func-type' binding='weak-binding' visibility='default-visibility' is-defined='yes'/>
    <elf-symbol name='_ZNSt10unique_ptrINSt13__future_base12_Result_baseENS1_8_DeleterEED1Ev' type='func-type' binding='weak-binding' visibility='default-visibility' is-defined='yes'/>
    <elf-symbol name='_ZNSt10unique_ptrINSt13__future_base12_Result_baseENS1_8_DeleterEED2Ev' type='func-type' binding='weak-binding' visibility='default-visibility' alias='_ZNSt10unique_ptrINSt13__future_base12_Result_baseENS1_8_DeleterEED1Ev' is-defined='yes'/>
    <elf-symbol name='_ZNSt10unique_ptrINSt13__future_base7_ResultIS_IN6google8protobuf7MessageESt14default_deleteIS4_EEEENS0_12_Result_base8_DeleterEE11get_deleterEv' type='func-type' binding='weak-binding' visibility='default-visibility' is-defined='yes'/>
    <elf-symbol name='_ZNSt10unique_ptrINSt13__future_base7_ResultIS_IN6google8protobuf7MessageESt14default_deleteIS4_EEEENS0_12_Result_base8_DeleterEE7releaseEv' type='func-type' binding='weak-binding' visibility='default-visibility' is-defined='yes'/>
    <elf-symbol name='_ZNSt10unique_ptrINSt13__future_base7_ResultIS_IN6google8protobuf7MessageESt14default_deleteIS4_EEEENS0_12_Result_base8_DeleterEEC1EOSB_' type='func-type' binding='weak-binding' visibility='default-visibility' is-defined='yes'/>
    <elf-symbol name='_ZNSt10unique_ptrINSt13__future_base7_ResultIS_IN6google8protobuf7MessageESt14default_deleteIS4_EEEENS0_12_Result_base8_DeleterEEC1ISA_vEEPS8_' type='func-type' binding='weak-binding' visibility='default-visibility' alias='_ZNSt10unique_ptrINSt13__future_base7_ResultIS_IN6google8protobuf7MessageESt14default_deleteIS4_EEEENS0_12_Result_base8_DeleterEEC2ISA_vEEPS8_' is-defined='yes'/>
    <elf-symbol name='_ZNSt10unique_ptrINSt13__future_base7_ResultIS_IN6google8protobuf7MessageESt14default_deleteIS4_EEEENS0_12_Result_base8_DeleterEEC2EOSB_' type='func-type' binding='weak-binding' visibility='default-visibility' alias='_ZNSt10unique_ptrINSt13__future_base7_ResultIS_IN6google8protobuf7MessageESt14default_deleteIS4_EEEENS0_12_Result_base8_DeleterEEC1EOSB_' is-defined='yes'/>
    <elf-symbol name='_ZNSt10unique_ptrINSt13__future_base7_ResultIS_IN6google8protobuf7MessageESt14default_deleteIS4_EEEENS0_12_Result_base8_DeleterEEC2ISA_vEEPS8_' type='func-type' binding='weak-binding' visibility='default-visibility' is-defined='yes'/>
    <elf-symbol name='_ZNSt10unique_ptrINSt13__future_base7_ResultIS_IN6google8protobuf7MessageESt14default_deleteIS4_EEEENS0_12_Result_base8_DeleterEED1Ev' type='func-type' binding='weak-binding' visibility='default-visibility' alias='_ZNSt10unique_ptrINSt13__future_base7_ResultIS_IN6google8protobuf7MessageESt14default_deleteIS4_EEEENS0_12_Result_base8_DeleterEED2Ev' is-defined='yes'/>
    <elf-symbol name='_ZNSt10unique_ptrINSt13__future_base7_ResultIS_IN6google8protobuf7MessageESt14default_deleteIS4_EEEENS0_12_Result_base8_DeleterEED2Ev' type='func-type' binding='weak-binding' visibility='default-visibility' is-defined='yes'/>
    <elf-symbol name='_ZNSt10unique_ptrINSt6thread6_StateESt14default_deleteIS1_EE11get_deleterEv' type='func-type' binding='weak-binding' visibility='default-visibility' is-defined='yes'/>
    <elf-symbol name='_ZNSt10unique_ptrINSt6thread6_StateESt14default_deleteIS1_EEC1IS3_vEEPS1_' type='func-type' binding='weak-binding' visibility='default-visibility' alias='_ZNSt10unique_ptrINSt6thread6_StateESt14default_deleteIS1_EEC2IS3_vEEPS1_' is-defined='yes'/>
    <elf-symbol name='_ZNSt10unique_ptrINSt6thread6_StateESt14default_deleteIS1_EEC2IS3_vEEPS1_' type='func-type' binding='weak-binding' visibility='default-visibility' is-defined='yes'/>
    <elf-symbol name='_ZNSt10unique_ptrINSt6thread6_StateESt14default_deleteIS1_EED1Ev' type='func-type' binding='weak-binding' visibility='default-visibility' alias='_ZNSt10unique_ptrINSt6thread6_StateESt14default_deleteIS1_EED2Ev' is-defined='yes'/>
    <elf-symbol name='_ZNSt10unique_ptrINSt6thread6_StateESt14default_deleteIS1_EED2Ev' type='func-type' binding='weak-binding' visibility='default-visibility' is-defined='yes'/>
    <elf-symbol name='_ZNSt10unique_ptrIcPDoFvPvEE11get_deleterEv' type='func-type' binding='weak-binding' visibility='default-visibility' is-defined='yes'/>
    <elf-symbol name='_ZNSt10unique_ptrIcPDoFvPvEEC1IS2_vEEPcNSt9enable_ifIXntsrSt19is_lvalue_referenceIT_E5valueEOS8_E4typeE' type='func-type' binding='weak-binding' visibility='default-visibility' alias='_ZNSt10unique_ptrIcPDoFvPvEEC2IS2_vEEPcNSt9enable_ifIXntsrSt19is_lvalue_referenceIT_E5valueEOS8_E4typeE' is-defined='yes'/>
    <elf-symbol name='_ZNSt10unique_ptrIcPDoFvPvEEC2IS2_vEEPcNSt9enable_ifIXntsrSt19is_lvalue_referenceIT_E5valueEOS8_E4typeE' type='func-type' binding='weak-binding' visibility='default-visibility' is-defined='yes'/>
    <elf-symbol name='_ZNSt10unique_ptrIcPDoFvPvEED1Ev' type='func-type' binding='weak-binding' visibility='default-visibility' alias='_ZNSt10unique_ptrIcPDoFvPvEED2Ev' is-defined='yes'/>
    <elf-symbol name='_ZNSt10unique_ptrIcPDoFvPvEED2Ev' type='func-type' binding='weak-binding' visibility='default-visibility' is-defined='yes'/>
    <elf-symbol name='_ZNSt11_Tuple_implILm0EJONSt7__cxx1112basic_stringIcSt11char_traitsIcESaIcEEEEE7_M_headERS7_' type='func-type' binding='weak-binding' visibility='default-visibility' is-defined='yes'/>
    <elf-symbol name='_ZNSt11_Tuple_implILm0EJONSt7__cxx1112basic_stringIcSt11char_traitsIcESaIcEEEEEC1EOS7_' type='func-type' binding='weak-binding' visibility='default-visibility' alias='_ZNSt11_Tuple_implILm0EJONSt7__cxx1112basic_stringIcSt11char_traitsIcESaIcEEEEEC2EOS7_' is-defined='yes'/>
    <elf-symbol name='_ZNSt11_Tuple_implILm0EJONSt7__cxx1112basic_stringIcSt11char_traitsIcESaIcEEEEEC1IS5_EEOT_' type='func-type' binding='weak-binding' visibility='default-visibility' is-defined='yes'/>
    <elf-symbol name='_ZNSt11_Tuple_implILm0EJONSt7__cxx1112basic_stringIcSt11char_traitsIcESaIcEEEEEC2EOS7_' type='func-type' binding='weak-binding' visibility='default-visibility' is-defined='yes'/>
    <elf-symbol name='_ZNSt11_Tuple_implILm0EJONSt7__cxx1112basic_stringIcSt11char_traitsIcESaIcEEEEEC2IS5_EEOT_' type='func-type' binding='weak-binding' visibility='default-visibility' alias='_ZNSt11_Tuple_implILm0EJONSt7__cxx1112basic_stringIcSt11char_traitsIcESaIcEEEEEC1IS5_EEOT_' is-defined='yes'/>
    <elf-symbol name='_ZNSt11_Tuple_implILm0EJPN8usbguard12AuditBackendESt14default_deleteIS1_EEE7_M_headERKS5_' type='func-type' binding='weak-binding' visibility='default-visibility' is-defined='yes'/>
    <elf-symbol name='_ZNSt11_Tuple_implILm0EJPN8usbguard12AuditBackendESt14default_deleteIS1_EEE7_M_headERS5_' type='func-type' binding='weak-binding' visibility='default-visibility' is-defined='yes'/>
    <elf-symbol name='_ZNSt11_Tuple_implILm0EJPN8usbguard17RuleConditionBaseESt14default_deleteIS1_EEE7_M_headERKS5_' type='func-type' binding='weak-binding' visibility='default-visibility' is-defined='yes'/>
    <elf-symbol name='_ZNSt11_Tuple_implILm0EJPN8usbguard17RuleConditionBaseESt14default_deleteIS1_EEE7_M_headERS5_' type='func-type' binding='weak-binding' visibility='default-visibility' is-defined='yes'/>
    <elf-symbol name='_ZNSt11_Tuple_implILm0EJPN8usbguard17RuleConditionBaseESt14default_deleteIS1_EEEC1EOS5_' type='func-type' binding='weak-binding' visibility='default-visibility' is-defined='yes'/>
    <elf-symbol name='_ZNSt11_Tuple_implILm0EJPN8usbguard17RuleConditionBaseESt14default_deleteIS1_EEEC1Ev' type='func-type' binding='weak-binding' visibility='default-visibility' alias='_ZNSt11_Tuple_implILm0EJPN8usbguard17RuleConditionBaseESt14default_deleteIS1_EEEC2Ev' is-defined='yes'/>
    <elf-symbol name='_ZNSt11_Tuple_implILm0EJPN8usbguard17RuleConditionBaseESt14default_deleteIS1_EEEC2EOS5_' type='func-type' binding='weak-binding' visibility='default-visibility' alias='_ZNSt11_Tuple_implILm0EJPN8usbguard17RuleConditionBaseESt14default_deleteIS1_EEEC1EOS5_' is-defined='yes'/>
    <elf-symbol name='_ZNSt11_Tuple_implILm0EJPN8usbguard17RuleConditionBaseESt14default_deleteIS1_EEEC2Ev' type='func-type' binding='weak-binding' visibility='default-visibility' is-defined='yes'/>
    <elf-symbol name='_ZNSt11_Tuple_implILm0EJPN8usbguard7LogSinkESt14default_deleteIS1_EEE7_M_headERKS5_' type='func-type' binding='weak-binding' visibility='default-visibility' is-defined='yes'/>
    <elf-symbol name='_ZNSt11_Tuple_implILm0EJPN8usbguard7LogSinkESt14default_deleteIS1_EEE7_M_headERS5_' type='func-type' binding='weak-binding' visibility='default-visibility' is-defined='yes'/>
    <elf-symbol name='_ZNSt11_Tuple_implILm0EJPN8usbguard7LogSinkESt14default_deleteIS1_EEEC1EOS5_' type='func-type' binding='weak-binding' visibility='default-visibility' is-defined='yes'/>
    <elf-symbol name='_ZNSt11_Tuple_implILm0EJPN8usbguard7LogSinkESt14default_deleteIS1_EEEC1Ev' type='func-type' binding='weak-binding' visibility='default-visibility' alias='_ZNSt11_Tuple_implILm0EJPN8usbguard7LogSinkESt14default_deleteIS1_EEEC2Ev' is-defined='yes'/>
    <elf-symbol name='_ZNSt11_Tuple_implILm0EJPN8usbguard7LogSinkESt14default_deleteIS1_EEEC2EOS5_' type='func-type' binding='weak-binding' visibility='default-visibility' alias='_ZNSt11_Tuple_implILm0EJPN8usbguard7LogSinkESt14default_deleteIS1_EEEC1EOS5_' is-defined='yes'/>
    <elf-symbol name='_ZNSt11_Tuple_implILm0EJPN8usbguard7LogSinkESt14default_deleteIS1_EEEC2Ev' type='func-type' binding='weak-binding' visibility='default-visibility' is-defined='yes'/>
    <elf-symbol name='_ZNSt11_Tuple_implILm0EJPN9__gnu_cxx13stdio_filebufIcSt11char_traitsIcEEESt14default_deleteIS4_EEE7_M_headERKS8_' type='func-type' binding='weak-binding' visibility='default-visibility' is-defined='yes'/>
    <elf-symbol name='_ZNSt11_Tuple_implILm0EJPN9__gnu_cxx13stdio_filebufIcSt11char_traitsIcEEESt14default_deleteIS4_EEE7_M_headERS8_' type='func-type' binding='weak-binding' visibility='default-visibility' is-defined='yes'/>
    <elf-symbol name='_ZNSt11_Tuple_implILm0EJPN9__gnu_cxx13stdio_filebufIcSt11char_traitsIcEEESt14default_deleteIS4_EEEC1Ev' type='func-type' binding='weak-binding' visibility='default-visibility' is-defined='yes'/>
    <elf-symbol name='_ZNSt11_Tuple_implILm0EJPN9__gnu_cxx13stdio_filebufIcSt11char_traitsIcEEESt14default_deleteIS4_EEEC2Ev' type='func-type' binding='weak-binding' visibility='default-visibility' alias='_ZNSt11_Tuple_implILm0EJPN9__gnu_cxx13stdio_filebufIcSt11char_traitsIcEEESt14default_deleteIS4_EEEC1Ev' is-defined='yes'/>
    <elf-symbol name='_ZNSt11_Tuple_implILm0EJPNSt13__future_base12_Result_baseENS1_8_DeleterEEE7_M_headERKS4_' type='func-type' binding='weak-binding' visibility='default-visibility' is-defined='yes'/>
    <elf-symbol name='_ZNSt11_Tuple_implILm0EJPNSt13__future_base12_Result_baseENS1_8_DeleterEEE7_M_headERS4_' type='func-type' binding='weak-binding' visibility='default-visibility' is-defined='yes'/>
    <elf-symbol name='_ZNSt11_Tuple_implILm0EJPNSt13__future_base12_Result_baseENS1_8_DeleterEEEC1Ev' type='func-type' binding='weak-binding' visibility='default-visibility' alias='_ZNSt11_Tuple_implILm0EJPNSt13__future_base12_Result_baseENS1_8_DeleterEEEC2Ev' is-defined='yes'/>
    <elf-symbol name='_ZNSt11_Tuple_implILm0EJPNSt13__future_base12_Result_baseENS1_8_DeleterEEEC1IRS2_JS3_EvEEOT_DpOT0_' type='func-type' binding='weak-binding' visibility='default-visibility' is-defined='yes'/>
    <elf-symbol name='_ZNSt11_Tuple_implILm0EJPNSt13__future_base12_Result_baseENS1_8_DeleterEEEC2Ev' type='func-type' binding='weak-binding' visibility='default-visibility' is-defined='yes'/>
    <elf-symbol name='_ZNSt11_Tuple_implILm0EJPNSt13__future_base12_Result_baseENS1_8_DeleterEEEC2IRS2_JS3_EvEEOT_DpOT0_' type='func-type' binding='weak-binding' visibility='default-visibility' alias='_ZNSt11_Tuple_implILm0EJPNSt13__future_base12_Result_baseENS1_8_DeleterEEEC1IRS2_JS3_EvEEOT_DpOT0_' is-defined='yes'/>
    <elf-symbol name='_ZNSt11_Tuple_implILm0EJPNSt13__future_base7_ResultISt10unique_ptrIN6google8protobuf7MessageESt14default_deleteIS5_EEEENS0_12_Result_base8_DeleterEEE7_M_headERKSD_' type='func-type' binding='weak-binding' visibility='default-visibility' is-defined='yes'/>
    <elf-symbol name='_ZNSt11_Tuple_implILm0EJPNSt13__future_base7_ResultISt10unique_ptrIN6google8protobuf7MessageESt14default_deleteIS5_EEEENS0_12_Result_base8_DeleterEEE7_M_headERSD_' type='func-type' binding='weak-binding' visibility='default-visibility' is-defined='yes'/>
    <elf-symbol name='_ZNSt11_Tuple_implILm0EJPNSt13__future_base7_ResultISt10unique_ptrIN6google8protobuf7MessageESt14default_deleteIS5_EEEENS0_12_Result_base8_DeleterEEEC1EOSD_' type='func-type' binding='weak-binding' visibility='default-visibility' alias='_ZNSt11_Tuple_implILm0EJPNSt13__future_base7_ResultISt10unique_ptrIN6google8protobuf7MessageESt14default_deleteIS5_EEEENS0_12_Result_base8_DeleterEEEC2EOSD_' is-defined='yes'/>
    <elf-symbol name='_ZNSt11_Tuple_implILm0EJPNSt13__future_base7_ResultISt10unique_ptrIN6google8protobuf7MessageESt14default_deleteIS5_EEEENS0_12_Result_base8_DeleterEEEC1Ev' type='func-type' binding='weak-binding' visibility='default-visibility' alias='_ZNSt11_Tuple_implILm0EJPNSt13__future_base7_ResultISt10unique_ptrIN6google8protobuf7MessageESt14default_deleteIS5_EEEENS0_12_Result_base8_DeleterEEEC2Ev' is-defined='yes'/>
    <elf-symbol name='_ZNSt11_Tuple_implILm0EJPNSt13__future_base7_ResultISt10unique_ptrIN6google8protobuf7MessageESt14default_deleteIS5_EEEENS0_12_Result_base8_DeleterEEEC2EOSD_' type='func-type' binding='weak-binding' visibility='default-visibility' is-defined='yes'/>
    <elf-symbol name='_ZNSt11_Tuple_implILm0EJPNSt13__future_base7_ResultISt10unique_ptrIN6google8protobuf7MessageESt14default_deleteIS5_EEEENS0_12_Result_base8_DeleterEEEC2Ev' type='func-type' binding='weak-binding' visibility='default-visibility' is-defined='yes'/>
    <elf-symbol name='_ZNSt11_Tuple_implILm0EJPNSt6thread6_StateESt14default_deleteIS1_EEE7_M_headERS5_' type='func-type' binding='weak-binding' visibility='default-visibility' is-defined='yes'/>
    <elf-symbol name='_ZNSt11_Tuple_implILm0EJPNSt6thread6_StateESt14default_deleteIS1_EEEC1Ev' type='func-type' binding='weak-binding' visibility='default-visibility' alias='_ZNSt11_Tuple_implILm0EJPNSt6thread6_StateESt14default_deleteIS1_EEEC2Ev' is-defined='yes'/>
    <elf-symbol name='_ZNSt11_Tuple_implILm0EJPNSt6thread6_StateESt14default_deleteIS1_EEEC2Ev' type='func-type' binding='weak-binding' visibility='default-visibility' is-defined='yes'/>
    <elf-symbol name='_ZNSt11_Tuple_implILm0EJPcPDoFvPvEEE7_M_headERKS4_' type='func-type' binding='weak-binding' visibility='default-visibility' is-defined='yes'/>
    <elf-symbol name='_ZNSt11_Tuple_implILm0EJPcPDoFvPvEEE7_M_headERS4_' type='func-type' binding='weak-binding' visibility='default-visibility' is-defined='yes'/>
    <elf-symbol name='_ZNSt11_Tuple_implILm0EJPcPDoFvPvEEEC1IRS0_JS3_EvEEOT_DpOT0_' type='func-type' binding='weak-binding' visibility='default-visibility' alias='_ZNSt11_Tuple_implILm0EJPcPDoFvPvEEEC2IRS0_JS3_EvEEOT_DpOT0_' is-defined='yes'/>
    <elf-symbol name='_ZNSt11_Tuple_implILm0EJPcPDoFvPvEEEC2IRS0_JS3_EvEEOT_DpOT0_' type='func-type' binding='weak-binding' visibility='default-visibility' is-defined='yes'/>
    <elf-symbol name='_ZNSt11_Tuple_implILm0EJRKN8usbguard9IPCServer13AccessControl7SectionEEE7_M_headERS6_' type='func-type' binding='weak-binding' visibility='default-visibility' is-defined='yes'/>
    <elf-symbol name='_ZNSt11_Tuple_implILm0EJRKN8usbguard9IPCServer13AccessControl7SectionEEEC1EOS6_' type='func-type' binding='weak-binding' visibility='default-visibility' alias='_ZNSt11_Tuple_implILm0EJRKN8usbguard9IPCServer13AccessControl7SectionEEEC2EOS6_' is-defined='yes'/>
    <elf-symbol name='_ZNSt11_Tuple_implILm0EJRKN8usbguard9IPCServer13AccessControl7SectionEEEC1ES5_' type='func-type' binding='weak-binding' visibility='default-visibility' is-defined='yes'/>
    <elf-symbol name='_ZNSt11_Tuple_implILm0EJRKN8usbguard9IPCServer13AccessControl7SectionEEEC2EOS6_' type='func-type' binding='weak-binding' visibility='default-visibility' is-defined='yes'/>
    <elf-symbol name='_ZNSt11_Tuple_implILm0EJRKN8usbguard9IPCServer13AccessControl7SectionEEEC2ES5_' type='func-type' binding='weak-binding' visibility='default-visibility' alias='_ZNSt11_Tuple_implILm0EJRKN8usbguard9IPCServer13AccessControl7SectionEEEC1ES5_' is-defined='yes'/>
    <elf-symbol name='_ZNSt11_Tuple_implILm0EJRKNSt7__cxx1112basic_stringIcSt11char_traitsIcESaIcEEEEE7_M_headERS8_' type='func-type' binding='weak-binding' visibility='default-visibility' is-defined='yes'/>
    <elf-symbol name='_ZNSt11_Tuple_implILm0EJRKNSt7__cxx1112basic_stringIcSt11char_traitsIcESaIcEEEEEC1EOS8_' type='func-type' binding='weak-binding' visibility='default-visibility' is-defined='yes'/>
    <elf-symbol name='_ZNSt11_Tuple_implILm0EJRKNSt7__cxx1112basic_stringIcSt11char_traitsIcESaIcEEEEEC1ES7_' type='func-type' binding='weak-binding' visibility='default-visibility' alias='_ZNSt11_Tuple_implILm0EJRKNSt7__cxx1112basic_stringIcSt11char_traitsIcESaIcEEEEEC2ES7_' is-defined='yes'/>
    <elf-symbol name='_ZNSt11_Tuple_implILm0EJRKNSt7__cxx1112basic_stringIcSt11char_traitsIcESaIcEEEEEC2EOS8_' type='func-type' binding='weak-binding' visibility='default-visibility' alias='_ZNSt11_Tuple_implILm0EJRKNSt7__cxx1112basic_stringIcSt11char_traitsIcESaIcEEEEEC1EOS8_' is-defined='yes'/>
    <elf-symbol name='_ZNSt11_Tuple_implILm0EJRKNSt7__cxx1112basic_stringIcSt11char_traitsIcESaIcEEEEEC2ES7_' type='func-type' binding='weak-binding' visibility='default-visibility' is-defined='yes'/>
    <elf-symbol name='_ZNSt11_Tuple_implILm0EJRKhEE7_M_headERS2_' type='func-type' binding='weak-binding' visibility='default-visibility' is-defined='yes'/>
    <elf-symbol name='_ZNSt11_Tuple_implILm0EJRKhEEC1EOS2_' type='func-type' binding='weak-binding' visibility='default-visibility' alias='_ZNSt11_Tuple_implILm0EJRKhEEC2EOS2_' is-defined='yes'/>
    <elf-symbol name='_ZNSt11_Tuple_implILm0EJRKhEEC1ES1_' type='func-type' binding='weak-binding' visibility='default-visibility' alias='_ZNSt11_Tuple_implILm0EJRKhEEC2ES1_' is-defined='yes'/>
    <elf-symbol name='_ZNSt11_Tuple_implILm0EJRKhEEC2EOS2_' type='func-type' binding='weak-binding' visibility='default-visibility' is-defined='yes'/>
    <elf-symbol name='_ZNSt11_Tuple_implILm0EJRKhEEC2ES1_' type='func-type' binding='weak-binding' visibility='default-visibility' is-defined='yes'/>
    <elf-symbol name='_ZNSt11_Tuple_implILm0EJRKjEE7_M_headERS2_' type='func-type' binding='weak-binding' visibility='default-visibility' is-defined='yes'/>
    <elf-symbol name='_ZNSt11_Tuple_implILm0EJRKjEEC1EOS2_' type='func-type' binding='weak-binding' visibility='default-visibility' alias='_ZNSt11_Tuple_implILm0EJRKjEEC2EOS2_' is-defined='yes'/>
    <elf-symbol name='_ZNSt11_Tuple_implILm0EJRKjEEC1ES1_' type='func-type' binding='weak-binding' visibility='default-visibility' is-defined='yes'/>
    <elf-symbol name='_ZNSt11_Tuple_implILm0EJRKjEEC2EOS2_' type='func-type' binding='weak-binding' visibility='default-visibility' is-defined='yes'/>
    <elf-symbol name='_ZNSt11_Tuple_implILm0EJRKjEEC2ES1_' type='func-type' binding='weak-binding' visibility='default-visibility' alias='_ZNSt11_Tuple_implILm0EJRKjEEC1ES1_' is-defined='yes'/>
    <elf-symbol name='_ZNSt11_Tuple_implILm0EJRKmEE7_M_headERS2_' type='func-type' binding='weak-binding' visibility='default-visibility' is-defined='yes'/>
    <elf-symbol name='_ZNSt11_Tuple_implILm0EJRKmEEC1EOS2_' type='func-type' binding='weak-binding' visibility='default-visibility' is-defined='yes'/>
    <elf-symbol name='_ZNSt11_Tuple_implILm0EJRKmEEC1ES1_' type='func-type' binding='weak-binding' visibility='default-visibility' is-defined='yes'/>
    <elf-symbol name='_ZNSt11_Tuple_implILm0EJRKmEEC2EOS2_' type='func-type' binding='weak-binding' visibility='default-visibility' alias='_ZNSt11_Tuple_implILm0EJRKmEEC1EOS2_' is-defined='yes'/>
    <elf-symbol name='_ZNSt11_Tuple_implILm0EJRKmEEC2ES1_' type='func-type' binding='weak-binding' visibility='default-visibility' alias='_ZNSt11_Tuple_implILm0EJRKmEEC1ES1_' is-defined='yes'/>
    <elf-symbol name='_ZNSt11_Tuple_implILm1EJNSt13__future_base12_Result_base8_DeleterEEE7_M_headERS3_' type='func-type' binding='weak-binding' visibility='default-visibility' is-defined='yes'/>
    <elf-symbol name='_ZNSt11_Tuple_implILm1EJNSt13__future_base12_Result_base8_DeleterEEEC1EOS3_' type='func-type' binding='weak-binding' visibility='default-visibility' is-defined='yes'/>
    <elf-symbol name='_ZNSt11_Tuple_implILm1EJNSt13__future_base12_Result_base8_DeleterEEEC1Ev' type='func-type' binding='weak-binding' visibility='default-visibility' is-defined='yes'/>
    <elf-symbol name='_ZNSt11_Tuple_implILm1EJNSt13__future_base12_Result_base8_DeleterEEEC1IS2_EEOT_' type='func-type' binding='weak-binding' visibility='default-visibility' is-defined='yes'/>
    <elf-symbol name='_ZNSt11_Tuple_implILm1EJNSt13__future_base12_Result_base8_DeleterEEEC2EOS3_' type='func-type' binding='weak-binding' visibility='default-visibility' alias='_ZNSt11_Tuple_implILm1EJNSt13__future_base12_Result_base8_DeleterEEEC1EOS3_' is-defined='yes'/>
    <elf-symbol name='_ZNSt11_Tuple_implILm1EJNSt13__future_base12_Result_base8_DeleterEEEC2Ev' type='func-type' binding='weak-binding' visibility='default-visibility' alias='_ZNSt11_Tuple_implILm1EJNSt13__future_base12_Result_base8_DeleterEEEC1Ev' is-defined='yes'/>
    <elf-symbol name='_ZNSt11_Tuple_implILm1EJNSt13__future_base12_Result_base8_DeleterEEEC2IS2_EEOT_' type='func-type' binding='weak-binding' visibility='default-visibility' alias='_ZNSt11_Tuple_implILm1EJNSt13__future_base12_Result_base8_DeleterEEEC1IS2_EEOT_' is-defined='yes'/>
    <elf-symbol name='_ZNSt11_Tuple_implILm1EJPDoFvPvEEE7_M_headERS3_' type='func-type' binding='weak-binding' visibility='default-visibility' is-defined='yes'/>
    <elf-symbol name='_ZNSt11_Tuple_implILm1EJPDoFvPvEEEC1IS2_EEOT_' type='func-type' binding='weak-binding' visibility='default-visibility' is-defined='yes'/>
    <elf-symbol name='_ZNSt11_Tuple_implILm1EJPDoFvPvEEEC2IS2_EEOT_' type='func-type' binding='weak-binding' visibility='default-visibility' alias='_ZNSt11_Tuple_implILm1EJPDoFvPvEEEC1IS2_EEOT_' is-defined='yes'/>
    <elf-symbol name='_ZNSt11_Tuple_implILm1EJSt14default_deleteIN8usbguard12AuditBackendEEEE7_M_headERS4_' type='func-type' binding='weak-binding' visibility='default-visibility' is-defined='yes'/>
    <elf-symbol name='_ZNSt11_Tuple_implILm1EJSt14default_deleteIN8usbguard17RuleConditionBaseEEEE7_M_headERS4_' type='func-type' binding='weak-binding' visibility='default-visibility' is-defined='yes'/>
    <elf-symbol name='_ZNSt11_Tuple_implILm1EJSt14default_deleteIN8usbguard17RuleConditionBaseEEEEC1EOS4_' type='func-type' binding='weak-binding' visibility='default-visibility' is-defined='yes'/>
    <elf-symbol name='_ZNSt11_Tuple_implILm1EJSt14default_deleteIN8usbguard17RuleConditionBaseEEEEC1Ev' type='func-type' binding='weak-binding' visibility='default-visibility' alias='_ZNSt11_Tuple_implILm1EJSt14default_deleteIN8usbguard17RuleConditionBaseEEEEC2Ev' is-defined='yes'/>
    <elf-symbol name='_ZNSt11_Tuple_implILm1EJSt14default_deleteIN8usbguard17RuleConditionBaseEEEEC2EOS4_' type='func-type' binding='weak-binding' visibility='default-visibility' alias='_ZNSt11_Tuple_implILm1EJSt14default_deleteIN8usbguard17RuleConditionBaseEEEEC1EOS4_' is-defined='yes'/>
    <elf-symbol name='_ZNSt11_Tuple_implILm1EJSt14default_deleteIN8usbguard17RuleConditionBaseEEEEC2Ev' type='func-type' binding='weak-binding' visibility='default-visibility' is-defined='yes'/>
    <elf-symbol name='_ZNSt11_Tuple_implILm1EJSt14default_deleteIN8usbguard7LogSinkEEEE7_M_headERS4_' type='func-type' binding='weak-binding' visibility='default-visibility' is-defined='yes'/>
    <elf-symbol name='_ZNSt11_Tuple_implILm1EJSt14default_deleteIN8usbguard7LogSinkEEEEC1EOS4_' type='func-type' binding='weak-binding' visibility='default-visibility' is-defined='yes'/>
    <elf-symbol name='_ZNSt11_Tuple_implILm1EJSt14default_deleteIN8usbguard7LogSinkEEEEC1Ev' type='func-type' binding='weak-binding' visibility='default-visibility' alias='_ZNSt11_Tuple_implILm1EJSt14default_deleteIN8usbguard7LogSinkEEEEC2Ev' is-defined='yes'/>
    <elf-symbol name='_ZNSt11_Tuple_implILm1EJSt14default_deleteIN8usbguard7LogSinkEEEEC2EOS4_' type='func-type' binding='weak-binding' visibility='default-visibility' alias='_ZNSt11_Tuple_implILm1EJSt14default_deleteIN8usbguard7LogSinkEEEEC1EOS4_' is-defined='yes'/>
    <elf-symbol name='_ZNSt11_Tuple_implILm1EJSt14default_deleteIN8usbguard7LogSinkEEEEC2Ev' type='func-type' binding='weak-binding' visibility='default-visibility' is-defined='yes'/>
    <elf-symbol name='_ZNSt11_Tuple_implILm1EJSt14default_deleteIN9__gnu_cxx13stdio_filebufIcSt11char_traitsIcEEEEEE7_M_headERS7_' type='func-type' binding='weak-binding' visibility='default-visibility' is-defined='yes'/>
    <elf-symbol name='_ZNSt11_Tuple_implILm1EJSt14default_deleteIN9__gnu_cxx13stdio_filebufIcSt11char_traitsIcEEEEEEC1Ev' type='func-type' binding='weak-binding' visibility='default-visibility' is-defined='yes'/>
    <elf-symbol name='_ZNSt11_Tuple_implILm1EJSt14default_deleteIN9__gnu_cxx13stdio_filebufIcSt11char_traitsIcEEEEEEC2Ev' type='func-type' binding='weak-binding' visibility='default-visibility' alias='_ZNSt11_Tuple_implILm1EJSt14default_deleteIN9__gnu_cxx13stdio_filebufIcSt11char_traitsIcEEEEEEC1Ev' is-defined='yes'/>
    <elf-symbol name='_ZNSt11_Tuple_implILm1EJSt14default_deleteINSt6thread6_StateEEEE7_M_headERS4_' type='func-type' binding='weak-binding' visibility='default-visibility' is-defined='yes'/>
    <elf-symbol name='_ZNSt11_Tuple_implILm1EJSt14default_deleteINSt6thread6_StateEEEEC1Ev' type='func-type' binding='weak-binding' visibility='default-visibility' alias='_ZNSt11_Tuple_implILm1EJSt14default_deleteINSt6thread6_StateEEEEC2Ev' is-defined='yes'/>
    <elf-symbol name='_ZNSt11_Tuple_implILm1EJSt14default_deleteINSt6thread6_StateEEEEC2Ev' type='func-type' binding='weak-binding' visibility='default-visibility' is-defined='yes'/>
    <elf-symbol name='_ZNSt11__copy_moveILb0ELb0ESt26random_access_iterator_tagE12__assign_oneIN8usbguard16USBInterfaceTypeEKS4_EEvPT_PT0_' type='func-type' binding='weak-binding' visibility='default-visibility' is-defined='yes'/>
    <elf-symbol name='_ZNSt11__copy_moveILb0ELb0ESt26random_access_iterator_tagE12__assign_oneIN8usbguard16USBInterfaceTypeES4_EEvPT_PT0_' type='func-type' binding='weak-binding' visibility='default-visibility' is-defined='yes'/>
    <elf-symbol name='_ZNSt11__copy_moveILb0ELb0ESt26random_access_iterator_tagE8__copy_mIPKN8usbguard11USBDeviceIDEPS4_EET0_T_S9_S8_' type='func-type' binding='weak-binding' visibility='default-visibility' is-defined='yes'/>
    <elf-symbol name='_ZNSt11__copy_moveILb0ELb0ESt26random_access_iterator_tagE8__copy_mIPKN8usbguard13RuleConditionEPS4_EET0_T_S9_S8_' type='func-type' binding='weak-binding' visibility='default-visibility' is-defined='yes'/>
    <elf-symbol name='_ZNSt11__copy_moveILb0ELb0ESt26random_access_iterator_tagE8__copy_mIPKNSt7__cxx1112basic_stringIcSt11char_traitsIcESaIcEEEPS8_EET0_T_SD_SC_' type='func-type' binding='weak-binding' visibility='default-visibility' is-defined='yes'/>
    <elf-symbol name='_ZNSt11__copy_moveILb0ELb0ESt26random_access_iterator_tagE8__copy_mIPKSt10shared_ptrIN8usbguard4RuleEEPS6_EET0_T_SB_SA_' type='func-type' binding='weak-binding' visibility='default-visibility' is-defined='yes'/>
    <elf-symbol name='_ZNSt11__copy_moveILb0ELb0ESt26random_access_iterator_tagE8__copy_mIPKSt10shared_ptrIN8usbguard7RuleSetEEPS6_EET0_T_SB_SA_' type='func-type' binding='weak-binding' visibility='default-visibility' is-defined='yes'/>
    <elf-symbol name='_ZNSt11__copy_moveILb0ELb0ESt26random_access_iterator_tagE8__copy_mIPN8usbguard11USBDeviceIDES5_EET0_T_S7_S6_' type='func-type' binding='weak-binding' visibility='default-visibility' is-defined='yes'/>
    <elf-symbol name='_ZNSt11__copy_moveILb0ELb0ESt26random_access_iterator_tagE8__copy_mIPN8usbguard13RuleConditionES5_EET0_T_S7_S6_' type='func-type' binding='weak-binding' visibility='default-visibility' is-defined='yes'/>
    <elf-symbol name='_ZNSt11__copy_moveILb0ELb0ESt26random_access_iterator_tagE8__copy_mIPNSt7__cxx1112basic_stringIcSt11char_traitsIcESaIcEEES9_EET0_T_SB_SA_' type='func-type' binding='weak-binding' visibility='default-visibility' is-defined='yes'/>
    <elf-symbol name='_ZNSt11__copy_moveILb0ELb0ESt26random_access_iterator_tagE8__copy_mIPSt10shared_ptrIKN8usbguard4RuleEESt20back_insert_iteratorISt6vectorIS7_SaIS7_EEEEET0_T_SF_SE_' type='func-type' binding='weak-binding' visibility='default-visibility' is-defined='yes'/>
    <elf-symbol name='_ZNSt11__copy_moveILb0ELb0ESt26random_access_iterator_tagE8__copy_mIPSt10shared_ptrIN8usbguard4RuleEES7_EET0_T_S9_S8_' type='func-type' binding='weak-binding' visibility='default-visibility' is-defined='yes'/>
    <elf-symbol name='_ZNSt11__copy_moveILb0ELb0ESt26random_access_iterator_tagE8__copy_mIPSt10shared_ptrIN8usbguard4RuleEESt20back_insert_iteratorISt6vectorIS3_IKS5_ESaISB_EEEEET0_T_SG_SF_' type='func-type' binding='weak-binding' visibility='default-visibility' is-defined='yes'/>
    <elf-symbol name='_ZNSt11__copy_moveILb0ELb0ESt26random_access_iterator_tagE8__copy_mIPSt10shared_ptrIN8usbguard7RuleSetEES7_EET0_T_S9_S8_' type='func-type' binding='weak-binding' visibility='default-visibility' is-defined='yes'/>
    <elf-symbol name='_ZNSt11__copy_moveILb0ELb1ESt26random_access_iterator_tagE8__copy_mIKN8usbguard16USBInterfaceTypeES4_EEPT0_PT_S9_S7_' type='func-type' binding='weak-binding' visibility='default-visibility' is-defined='yes'/>
    <elf-symbol name='_ZNSt11__copy_moveILb0ELb1ESt26random_access_iterator_tagE8__copy_mIN8usbguard16USBInterfaceTypeES4_EEPT0_PT_S8_S6_' type='func-type' binding='weak-binding' visibility='default-visibility' is-defined='yes'/>
    <elf-symbol name='_ZNSt11__copy_moveILb1ELb0ESt26random_access_iterator_tagE8__copy_mIPNSt7__cxx1112basic_stringIcSt11char_traitsIcESaIcEEES9_EET0_T_SB_SA_' type='func-type' binding='weak-binding' visibility='default-visibility' is-defined='yes'/>
    <elf-symbol name='_ZNSt11__copy_moveILb1ELb0ESt26random_access_iterator_tagE8__copy_mIPSt10shared_ptrIN8usbguard4RuleEES7_EET0_T_S9_S8_' type='func-type' binding='weak-binding' visibility='default-visibility' is-defined='yes'/>
    <elf-symbol name='_ZNSt11atomic_flag7_S_initEb' type='func-type' binding='weak-binding' visibility='default-visibility' is-defined='yes'/>
    <elf-symbol name='_ZNSt11atomic_flagC1Eb' type='func-type' binding='weak-binding' visibility='default-visibility' is-defined='yes'/>
    <elf-symbol name='_ZNSt11atomic_flagC2Eb' type='func-type' binding='weak-binding' visibility='default-visibility' alias='_ZNSt11atomic_flagC1Eb' is-defined='yes'/>
    <elf-symbol name='_ZNSt11char_traitsIcE2ltERKcS2_' type='func-type' binding='weak-binding' visibility='default-visibility' is-defined='yes'/>
    <elf-symbol name='_ZNSt11char_traitsIcE6lengthEPKc' type='func-type' binding='weak-binding' visibility='default-visibility' is-defined='yes'/>
    <elf-symbol name='_ZNSt11char_traitsIcE7compareEPKcS2_m' type='func-type' binding='weak-binding' visibility='default-visibility' is-defined='yes'/>
    <elf-symbol name='_ZNSt11unique_lockISt5mutexE4lockEv' type='func-type' binding='weak-binding' visibility='default-visibility' is-defined='yes'/>
    <elf-symbol name='_ZNSt11unique_lockISt5mutexE6unlockEv' type='func-type' binding='weak-binding' visibility='default-visibility' is-defined='yes'/>
    <elf-symbol name='_ZNSt11unique_lockISt5mutexEC1ERS0_' type='func-type' binding='weak-binding' visibility='default-visibility' alias='_ZNSt11unique_lockISt5mutexEC2ERS0_' is-defined='yes'/>
    <elf-symbol name='_ZNSt11unique_lockISt5mutexEC1ERS0_St12defer_lock_t' type='func-type' binding='weak-binding' visibility='default-visibility' is-defined='yes'/>
    <elf-symbol name='_ZNSt11unique_lockISt5mutexEC2ERS0_' type='func-type' binding='weak-binding' visibility='default-visibility' is-defined='yes'/>
    <elf-symbol name='_ZNSt11unique_lockISt5mutexEC2ERS0_St12defer_lock_t' type='func-type' binding='weak-binding' visibility='default-visibility' alias='_ZNSt11unique_lockISt5mutexEC1ERS0_St12defer_lock_t' is-defined='yes'/>
    <elf-symbol name='_ZNSt11unique_lockISt5mutexED1Ev' type='func-type' binding='weak-binding' visibility='default-visibility' alias='_ZNSt11unique_lockISt5mutexED2Ev' is-defined='yes'/>
    <elf-symbol name='_ZNSt11unique_lockISt5mutexED2Ev' type='func-type' binding='weak-binding' visibility='default-visibility' is-defined='yes'/>
    <elf-symbol name='_ZNSt12_Destroy_auxILb0EE9__destroyIN9__gnu_cxx17__normal_iteratorIPN8usbguard11USBDeviceIDESt6vectorIS5_SaIS5_EEEEEEvT_SB_' type='func-type' binding='weak-binding' visibility='default-visibility' is-defined='yes'/>
    <elf-symbol name='_ZNSt12_Destroy_auxILb0EE9__destroyIN9__gnu_cxx17__normal_iteratorIPN8usbguard13RuleConditionESt6vectorIS5_SaIS5_EEEEEEvT_SB_' type='func-type' binding='weak-binding' visibility='default-visibility' is-defined='yes'/>
    <elf-symbol name='_ZNSt12_Destroy_auxILb0EE9__destroyIN9__gnu_cxx17__normal_iteratorIPNSt7__cxx1112basic_stringIcSt11char_traitsIcESaIcEEESt6vectorIS9_SaIS9_EEEEEEvT_SF_' type='func-type' binding='weak-binding' visibility='default-visibility' is-defined='yes'/>
    <elf-symbol name='_ZNSt12_Destroy_auxILb0EE9__destroyIN9__gnu_cxx17__normal_iteratorIPSt10shared_ptrIN8usbguard4RuleEESt6vectorIS7_SaIS7_EEEEEEvT_SD_' type='func-type' binding='weak-binding' visibility='default-visibility' is-defined='yes'/>
    <elf-symbol name='_ZNSt12_Destroy_auxILb0EE9__destroyIN9__gnu_cxx17__normal_iteratorIPSt10shared_ptrIN8usbguard7RuleSetEESt6vectorIS7_SaIS7_EEEEEEvT_SD_' type='func-type' binding='weak-binding' visibility='default-visibility' is-defined='yes'/>
    <elf-symbol name='_ZNSt12_Destroy_auxILb0EE9__destroyIPN3tao5pegtl8positionEEEvT_S6_' type='func-type' binding='weak-binding' visibility='default-visibility' is-defined='yes'/>
    <elf-symbol name='_ZNSt12_Destroy_auxILb0EE9__destroyIPN8usbguard11USBDeviceIDEEEvT_S5_' type='func-type' binding='weak-binding' visibility='default-visibility' is-defined='yes'/>
    <elf-symbol name='_ZNSt12_Destroy_auxILb0EE9__destroyIPN8usbguard13RuleConditionEEEvT_S5_' type='func-type' binding='weak-binding' visibility='default-visibility' is-defined='yes'/>
    <elf-symbol name='_ZNSt12_Destroy_auxILb0EE9__destroyIPN8usbguard4RuleEEEvT_S5_' type='func-type' binding='weak-binding' visibility='default-visibility' is-defined='yes'/>
    <elf-symbol name='_ZNSt12_Destroy_auxILb0EE9__destroyIPN8usbguard6UEventEEEvT_S5_' type='func-type' binding='weak-binding' visibility='default-visibility' is-defined='yes'/>
    <elf-symbol name='_ZNSt12_Destroy_auxILb0EE9__destroyIPNSt7__cxx1112basic_stringIcSt11char_traitsIcESaIcEEEEEvT_S9_' type='func-type' binding='weak-binding' visibility='default-visibility' is-defined='yes'/>
    <elf-symbol name='_ZNSt12_Destroy_auxILb0EE9__destroyIPSt10shared_ptrIKN8usbguard4RuleEEEEvT_S8_' type='func-type' binding='weak-binding' visibility='default-visibility' is-defined='yes'/>
    <elf-symbol name='_ZNSt12_Destroy_auxILb0EE9__destroyIPSt10shared_ptrIN8usbguard4RuleEEEEvT_S7_' type='func-type' binding='weak-binding' visibility='default-visibility' is-defined='yes'/>
    <elf-symbol name='_ZNSt12_Destroy_auxILb0EE9__destroyIPSt10shared_ptrIN8usbguard6DeviceEEEEvT_S7_' type='func-type' binding='weak-binding' visibility='default-visibility' is-defined='yes'/>
    <elf-symbol name='_ZNSt12_Destroy_auxILb0EE9__destroyIPSt10shared_ptrIN8usbguard7RuleSetEEEEvT_S7_' type='func-type' binding='weak-binding' visibility='default-visibility' is-defined='yes'/>
    <elf-symbol name='_ZNSt12_Destroy_auxILb0EE9__destroyIPSt10unique_ptrIN8usbguard24UMockdevDeviceDefinitionESt14default_deleteIS4_EEEEvT_S9_' type='func-type' binding='weak-binding' visibility='default-visibility' is-defined='yes'/>
    <elf-symbol name='_ZNSt12_Destroy_auxILb0EE9__destroyIPSt4pairINSt7__cxx1112basic_stringIcSt11char_traitsIcESaIcEEEN8usbguard13DeviceManager21AuthorizedDefaultTypeEEEEvT_SE_' type='func-type' binding='weak-binding' visibility='default-visibility' is-defined='yes'/>
    <elf-symbol name='_ZNSt12_Destroy_auxILb0EE9__destroyIPSt4pairINSt7__cxx1112basic_stringIcSt11char_traitsIcESaIcEEEN8usbguard4Rule11SetOperatorEEEEvT_SE_' type='func-type' binding='weak-binding' visibility='default-visibility' is-defined='yes'/>
    <elf-symbol name='_ZNSt12_Destroy_auxILb0EE9__destroyIPSt4pairINSt7__cxx1112basic_stringIcSt11char_traitsIcESaIcEEEN8usbguard4Rule6TargetEEEEvT_SE_' type='func-type' binding='weak-binding' visibility='default-visibility' is-defined='yes'/>
    <elf-symbol name='_ZNSt12_Destroy_auxILb0EE9__destroyIPSt4pairINSt7__cxx1112basic_stringIcSt11char_traitsIcESaIcEEEN8usbguard9IPCServer13AccessControl7SectionEEEEvT_SF_' type='func-type' binding='weak-binding' visibility='default-visibility' is-defined='yes'/>
    <elf-symbol name='_ZNSt12_Destroy_auxILb0EE9__destroyIPSt4pairINSt7__cxx1112basic_stringIcSt11char_traitsIcESaIcEEEN8usbguard9IPCServer13AccessControl9PrivilegeEEEEvT_SF_' type='func-type' binding='weak-binding' visibility='default-visibility' is-defined='yes'/>
    <elf-symbol name='_ZNSt12_Destroy_auxILb0EE9__destroyIPSt4pairINSt7__cxx1112basic_stringIcSt11char_traitsIcESaIcEEES8_EEEvT_SB_' type='func-type' binding='weak-binding' visibility='default-visibility' is-defined='yes'/>
    <elf-symbol name='_ZNSt12_Destroy_auxILb0EE9__destroyIPSt4pairIjNSt7__cxx1112basic_stringIcSt11char_traitsIcESaIcEEEEEEvT_SB_' type='func-type' binding='weak-binding' visibility='default-visibility' is-defined='yes'/>
    <elf-symbol name='_ZNSt12_Destroy_auxILb1EE9__destroyIN9__gnu_cxx17__normal_iteratorIPN8usbguard16USBInterfaceTypeESt6vectorIS5_SaIS5_EEEEEEvT_SB_' type='func-type' binding='weak-binding' visibility='default-visibility' is-defined='yes'/>
    <elf-symbol name='_ZNSt12_Destroy_auxILb1EE9__destroyIPN6google8protobuf12UnknownFieldEEEvT_S6_' type='func-type' binding='weak-binding' visibility='default-visibility' is-defined='yes'/>
    <elf-symbol name='_ZNSt12_Destroy_auxILb1EE9__destroyIPN8usbguard13USBDescriptorEEEvT_S5_' type='func-type' binding='weak-binding' visibility='default-visibility' is-defined='yes'/>
    <elf-symbol name='_ZNSt12_Destroy_auxILb1EE9__destroyIPN8usbguard16USBInterfaceTypeEEEvT_S5_' type='func-type' binding='weak-binding' visibility='default-visibility' is-defined='yes'/>
    <elf-symbol name='_ZNSt12_Destroy_auxILb1EE9__destroyIPSt4pairIhmEEEvT_S5_' type='func-type' binding='weak-binding' visibility='default-visibility' is-defined='yes'/>
    <elf-symbol name='_ZNSt12_Vector_baseIN8usbguard11USBDeviceIDESaIS1_EE11_M_allocateEm' type='func-type' binding='weak-binding' visibility='default-visibility' is-defined='yes'/>
    <elf-symbol name='_ZNSt12_Vector_baseIN8usbguard11USBDeviceIDESaIS1_EE12_Vector_implC1Ev' type='func-type' binding='weak-binding' visibility='default-visibility' alias='_ZNSt12_Vector_baseIN8usbguard11USBDeviceIDESaIS1_EE12_Vector_implC2Ev' is-defined='yes'/>
    <elf-symbol name='_ZNSt12_Vector_baseIN8usbguard11USBDeviceIDESaIS1_EE12_Vector_implC2Ev' type='func-type' binding='weak-binding' visibility='default-visibility' is-defined='yes'/>
    <elf-symbol name='_ZNSt12_Vector_baseIN8usbguard11USBDeviceIDESaIS1_EE12_Vector_implD1Ev' type='func-type' binding='weak-binding' visibility='default-visibility' alias='_ZNSt12_Vector_baseIN8usbguard11USBDeviceIDESaIS1_EE12_Vector_implD2Ev' is-defined='yes'/>
    <elf-symbol name='_ZNSt12_Vector_baseIN8usbguard11USBDeviceIDESaIS1_EE12_Vector_implD2Ev' type='func-type' binding='weak-binding' visibility='default-visibility' is-defined='yes'/>
    <elf-symbol name='_ZNSt12_Vector_baseIN8usbguard11USBDeviceIDESaIS1_EE13_M_deallocateEPS1_m' type='func-type' binding='weak-binding' visibility='default-visibility' is-defined='yes'/>
    <elf-symbol name='_ZNSt12_Vector_baseIN8usbguard11USBDeviceIDESaIS1_EE17_Vector_impl_dataC1Ev' type='func-type' binding='weak-binding' visibility='default-visibility' alias='_ZNSt12_Vector_baseIN8usbguard11USBDeviceIDESaIS1_EE17_Vector_impl_dataC2Ev' is-defined='yes'/>
    <elf-symbol name='_ZNSt12_Vector_baseIN8usbguard11USBDeviceIDESaIS1_EE17_Vector_impl_dataC2Ev' type='func-type' binding='weak-binding' visibility='default-visibility' is-defined='yes'/>
    <elf-symbol name='_ZNSt12_Vector_baseIN8usbguard11USBDeviceIDESaIS1_EE19_M_get_Tp_allocatorEv' type='func-type' binding='weak-binding' visibility='default-visibility' is-defined='yes'/>
    <elf-symbol name='_ZNSt12_Vector_baseIN8usbguard11USBDeviceIDESaIS1_EEC1Ev' type='func-type' binding='weak-binding' visibility='default-visibility' alias='_ZNSt12_Vector_baseIN8usbguard11USBDeviceIDESaIS1_EEC2Ev' is-defined='yes'/>
    <elf-symbol name='_ZNSt12_Vector_baseIN8usbguard11USBDeviceIDESaIS1_EEC2Ev' type='func-type' binding='weak-binding' visibility='default-visibility' is-defined='yes'/>
    <elf-symbol name='_ZNSt12_Vector_baseIN8usbguard11USBDeviceIDESaIS1_EED1Ev' type='func-type' binding='weak-binding' visibility='default-visibility' alias='_ZNSt12_Vector_baseIN8usbguard11USBDeviceIDESaIS1_EED2Ev' is-defined='yes'/>
    <elf-symbol name='_ZNSt12_Vector_baseIN8usbguard11USBDeviceIDESaIS1_EED2Ev' type='func-type' binding='weak-binding' visibility='default-visibility' is-defined='yes'/>
    <elf-symbol name='_ZNSt12_Vector_baseIN8usbguard13RuleConditionESaIS1_EE11_M_allocateEm' type='func-type' binding='weak-binding' visibility='default-visibility' is-defined='yes'/>
    <elf-symbol name='_ZNSt12_Vector_baseIN8usbguard13RuleConditionESaIS1_EE12_Vector_implC1Ev' type='func-type' binding='weak-binding' visibility='default-visibility' alias='_ZNSt12_Vector_baseIN8usbguard13RuleConditionESaIS1_EE12_Vector_implC2Ev' is-defined='yes'/>
    <elf-symbol name='_ZNSt12_Vector_baseIN8usbguard13RuleConditionESaIS1_EE12_Vector_implC2Ev' type='func-type' binding='weak-binding' visibility='default-visibility' is-defined='yes'/>
    <elf-symbol name='_ZNSt12_Vector_baseIN8usbguard13RuleConditionESaIS1_EE12_Vector_implD1Ev' type='func-type' binding='weak-binding' visibility='default-visibility' is-defined='yes'/>
    <elf-symbol name='_ZNSt12_Vector_baseIN8usbguard13RuleConditionESaIS1_EE12_Vector_implD2Ev' type='func-type' binding='weak-binding' visibility='default-visibility' alias='_ZNSt12_Vector_baseIN8usbguard13RuleConditionESaIS1_EE12_Vector_implD1Ev' is-defined='yes'/>
    <elf-symbol name='_ZNSt12_Vector_baseIN8usbguard13RuleConditionESaIS1_EE13_M_deallocateEPS1_m' type='func-type' binding='weak-binding' visibility='default-visibility' is-defined='yes'/>
    <elf-symbol name='_ZNSt12_Vector_baseIN8usbguard13RuleConditionESaIS1_EE17_Vector_impl_dataC1Ev' type='func-type' binding='weak-binding' visibility='default-visibility' is-defined='yes'/>
    <elf-symbol name='_ZNSt12_Vector_baseIN8usbguard13RuleConditionESaIS1_EE17_Vector_impl_dataC2Ev' type='func-type' binding='weak-binding' visibility='default-visibility' alias='_ZNSt12_Vector_baseIN8usbguard13RuleConditionESaIS1_EE17_Vector_impl_dataC1Ev' is-defined='yes'/>
    <elf-symbol name='_ZNSt12_Vector_baseIN8usbguard13RuleConditionESaIS1_EE19_M_get_Tp_allocatorEv' type='func-type' binding='weak-binding' visibility='default-visibility' is-defined='yes'/>
    <elf-symbol name='_ZNSt12_Vector_baseIN8usbguard13RuleConditionESaIS1_EEC1Ev' type='func-type' binding='weak-binding' visibility='default-visibility' is-defined='yes'/>
    <elf-symbol name='_ZNSt12_Vector_baseIN8usbguard13RuleConditionESaIS1_EEC2Ev' type='func-type' binding='weak-binding' visibility='default-visibility' alias='_ZNSt12_Vector_baseIN8usbguard13RuleConditionESaIS1_EEC1Ev' is-defined='yes'/>
    <elf-symbol name='_ZNSt12_Vector_baseIN8usbguard13RuleConditionESaIS1_EED1Ev' type='func-type' binding='weak-binding' visibility='default-visibility' alias='_ZNSt12_Vector_baseIN8usbguard13RuleConditionESaIS1_EED2Ev' is-defined='yes'/>
    <elf-symbol name='_ZNSt12_Vector_baseIN8usbguard13RuleConditionESaIS1_EED2Ev' type='func-type' binding='weak-binding' visibility='default-visibility' is-defined='yes'/>
    <elf-symbol name='_ZNSt12_Vector_baseIN8usbguard13USBDescriptorESaIS1_EE11_M_allocateEm' type='func-type' binding='weak-binding' visibility='default-visibility' is-defined='yes'/>
    <elf-symbol name='_ZNSt12_Vector_baseIN8usbguard13USBDescriptorESaIS1_EE12_Vector_implC1Ev' type='func-type' binding='weak-binding' visibility='default-visibility' alias='_ZNSt12_Vector_baseIN8usbguard13USBDescriptorESaIS1_EE12_Vector_implC2Ev' is-defined='yes'/>
    <elf-symbol name='_ZNSt12_Vector_baseIN8usbguard13USBDescriptorESaIS1_EE12_Vector_implC2Ev' type='func-type' binding='weak-binding' visibility='default-visibility' is-defined='yes'/>
    <elf-symbol name='_ZNSt12_Vector_baseIN8usbguard13USBDescriptorESaIS1_EE12_Vector_implD1Ev' type='func-type' binding='weak-binding' visibility='default-visibility' is-defined='yes'/>
    <elf-symbol name='_ZNSt12_Vector_baseIN8usbguard13USBDescriptorESaIS1_EE12_Vector_implD2Ev' type='func-type' binding='weak-binding' visibility='default-visibility' alias='_ZNSt12_Vector_baseIN8usbguard13USBDescriptorESaIS1_EE12_Vector_implD1Ev' is-defined='yes'/>
    <elf-symbol name='_ZNSt12_Vector_baseIN8usbguard13USBDescriptorESaIS1_EE13_M_deallocateEPS1_m' type='func-type' binding='weak-binding' visibility='default-visibility' is-defined='yes'/>
    <elf-symbol name='_ZNSt12_Vector_baseIN8usbguard13USBDescriptorESaIS1_EE17_Vector_impl_dataC1Ev' type='func-type' binding='weak-binding' visibility='default-visibility' alias='_ZNSt12_Vector_baseIN8usbguard13USBDescriptorESaIS1_EE17_Vector_impl_dataC2Ev' is-defined='yes'/>
    <elf-symbol name='_ZNSt12_Vector_baseIN8usbguard13USBDescriptorESaIS1_EE17_Vector_impl_dataC2Ev' type='func-type' binding='weak-binding' visibility='default-visibility' is-defined='yes'/>
    <elf-symbol name='_ZNSt12_Vector_baseIN8usbguard13USBDescriptorESaIS1_EE19_M_get_Tp_allocatorEv' type='func-type' binding='weak-binding' visibility='default-visibility' is-defined='yes'/>
    <elf-symbol name='_ZNSt12_Vector_baseIN8usbguard13USBDescriptorESaIS1_EEC1Ev' type='func-type' binding='weak-binding' visibility='default-visibility' alias='_ZNSt12_Vector_baseIN8usbguard13USBDescriptorESaIS1_EEC2Ev' is-defined='yes'/>
    <elf-symbol name='_ZNSt12_Vector_baseIN8usbguard13USBDescriptorESaIS1_EEC2Ev' type='func-type' binding='weak-binding' visibility='default-visibility' is-defined='yes'/>
    <elf-symbol name='_ZNSt12_Vector_baseIN8usbguard13USBDescriptorESaIS1_EED1Ev' type='func-type' binding='weak-binding' visibility='default-visibility' alias='_ZNSt12_Vector_baseIN8usbguard13USBDescriptorESaIS1_EED2Ev' is-defined='yes'/>
    <elf-symbol name='_ZNSt12_Vector_baseIN8usbguard13USBDescriptorESaIS1_EED2Ev' type='func-type' binding='weak-binding' visibility='default-visibility' is-defined='yes'/>
    <elf-symbol name='_ZNSt12_Vector_baseIN8usbguard16USBInterfaceTypeESaIS1_EE11_M_allocateEm' type='func-type' binding='weak-binding' visibility='default-visibility' is-defined='yes'/>
    <elf-symbol name='_ZNSt12_Vector_baseIN8usbguard16USBInterfaceTypeESaIS1_EE12_Vector_implC1Ev' type='func-type' binding='weak-binding' visibility='default-visibility' is-defined='yes'/>
    <elf-symbol name='_ZNSt12_Vector_baseIN8usbguard16USBInterfaceTypeESaIS1_EE12_Vector_implC2Ev' type='func-type' binding='weak-binding' visibility='default-visibility' alias='_ZNSt12_Vector_baseIN8usbguard16USBInterfaceTypeESaIS1_EE12_Vector_implC1Ev' is-defined='yes'/>
    <elf-symbol name='_ZNSt12_Vector_baseIN8usbguard16USBInterfaceTypeESaIS1_EE12_Vector_implD1Ev' type='func-type' binding='weak-binding' visibility='default-visibility' alias='_ZNSt12_Vector_baseIN8usbguard16USBInterfaceTypeESaIS1_EE12_Vector_implD2Ev' is-defined='yes'/>
    <elf-symbol name='_ZNSt12_Vector_baseIN8usbguard16USBInterfaceTypeESaIS1_EE12_Vector_implD2Ev' type='func-type' binding='weak-binding' visibility='default-visibility' is-defined='yes'/>
    <elf-symbol name='_ZNSt12_Vector_baseIN8usbguard16USBInterfaceTypeESaIS1_EE13_M_deallocateEPS1_m' type='func-type' binding='weak-binding' visibility='default-visibility' is-defined='yes'/>
    <elf-symbol name='_ZNSt12_Vector_baseIN8usbguard16USBInterfaceTypeESaIS1_EE17_Vector_impl_dataC1Ev' type='func-type' binding='weak-binding' visibility='default-visibility' alias='_ZNSt12_Vector_baseIN8usbguard16USBInterfaceTypeESaIS1_EE17_Vector_impl_dataC2Ev' is-defined='yes'/>
    <elf-symbol name='_ZNSt12_Vector_baseIN8usbguard16USBInterfaceTypeESaIS1_EE17_Vector_impl_dataC2Ev' type='func-type' binding='weak-binding' visibility='default-visibility' is-defined='yes'/>
    <elf-symbol name='_ZNSt12_Vector_baseIN8usbguard16USBInterfaceTypeESaIS1_EE19_M_get_Tp_allocatorEv' type='func-type' binding='weak-binding' visibility='default-visibility' is-defined='yes'/>
    <elf-symbol name='_ZNSt12_Vector_baseIN8usbguard16USBInterfaceTypeESaIS1_EEC1Ev' type='func-type' binding='weak-binding' visibility='default-visibility' is-defined='yes'/>
    <elf-symbol name='_ZNSt12_Vector_baseIN8usbguard16USBInterfaceTypeESaIS1_EEC2Ev' type='func-type' binding='weak-binding' visibility='default-visibility' alias='_ZNSt12_Vector_baseIN8usbguard16USBInterfaceTypeESaIS1_EEC1Ev' is-defined='yes'/>
    <elf-symbol name='_ZNSt12_Vector_baseIN8usbguard16USBInterfaceTypeESaIS1_EED1Ev' type='func-type' binding='weak-binding' visibility='default-visibility' alias='_ZNSt12_Vector_baseIN8usbguard16USBInterfaceTypeESaIS1_EED2Ev' is-defined='yes'/>
    <elf-symbol name='_ZNSt12_Vector_baseIN8usbguard16USBInterfaceTypeESaIS1_EED2Ev' type='func-type' binding='weak-binding' visibility='default-visibility' is-defined='yes'/>
    <elf-symbol name='_ZNSt12_Vector_baseIN8usbguard4RuleESaIS1_EE11_M_allocateEm' type='func-type' binding='weak-binding' visibility='default-visibility' is-defined='yes'/>
    <elf-symbol name='_ZNSt12_Vector_baseIN8usbguard4RuleESaIS1_EE12_Vector_implC1Ev' type='func-type' binding='weak-binding' visibility='default-visibility' is-defined='yes'/>
    <elf-symbol name='_ZNSt12_Vector_baseIN8usbguard4RuleESaIS1_EE12_Vector_implC2Ev' type='func-type' binding='weak-binding' visibility='default-visibility' alias='_ZNSt12_Vector_baseIN8usbguard4RuleESaIS1_EE12_Vector_implC1Ev' is-defined='yes'/>
    <elf-symbol name='_ZNSt12_Vector_baseIN8usbguard4RuleESaIS1_EE12_Vector_implD1Ev' type='func-type' binding='weak-binding' visibility='default-visibility' alias='_ZNSt12_Vector_baseIN8usbguard4RuleESaIS1_EE12_Vector_implD2Ev' is-defined='yes'/>
    <elf-symbol name='_ZNSt12_Vector_baseIN8usbguard4RuleESaIS1_EE12_Vector_implD2Ev' type='func-type' binding='weak-binding' visibility='default-visibility' is-defined='yes'/>
    <elf-symbol name='_ZNSt12_Vector_baseIN8usbguard4RuleESaIS1_EE13_M_deallocateEPS1_m' type='func-type' binding='weak-binding' visibility='default-visibility' is-defined='yes'/>
    <elf-symbol name='_ZNSt12_Vector_baseIN8usbguard4RuleESaIS1_EE17_Vector_impl_dataC1Ev' type='func-type' binding='weak-binding' visibility='default-visibility' is-defined='yes'/>
    <elf-symbol name='_ZNSt12_Vector_baseIN8usbguard4RuleESaIS1_EE17_Vector_impl_dataC2Ev' type='func-type' binding='weak-binding' visibility='default-visibility' alias='_ZNSt12_Vector_baseIN8usbguard4RuleESaIS1_EE17_Vector_impl_dataC1Ev' is-defined='yes'/>
    <elf-symbol name='_ZNSt12_Vector_baseIN8usbguard4RuleESaIS1_EE19_M_get_Tp_allocatorEv' type='func-type' binding='weak-binding' visibility='default-visibility' is-defined='yes'/>
    <elf-symbol name='_ZNSt12_Vector_baseIN8usbguard4RuleESaIS1_EEC1Ev' type='func-type' binding='weak-binding' visibility='default-visibility' is-defined='yes'/>
    <elf-symbol name='_ZNSt12_Vector_baseIN8usbguard4RuleESaIS1_EEC2Ev' type='func-type' binding='weak-binding' visibility='default-visibility' alias='_ZNSt12_Vector_baseIN8usbguard4RuleESaIS1_EEC1Ev' is-defined='yes'/>
    <elf-symbol name='_ZNSt12_Vector_baseIN8usbguard4RuleESaIS1_EED1Ev' type='func-type' binding='weak-binding' visibility='default-visibility' alias='_ZNSt12_Vector_baseIN8usbguard4RuleESaIS1_EED2Ev' is-defined='yes'/>
    <elf-symbol name='_ZNSt12_Vector_baseIN8usbguard4RuleESaIS1_EED2Ev' type='func-type' binding='weak-binding' visibility='default-visibility' is-defined='yes'/>
    <elf-symbol name='_ZNSt12_Vector_baseINSt7__cxx1112basic_stringIcSt11char_traitsIcESaIcEEESaIS5_EE11_M_allocateEm' type='func-type' binding='weak-binding' visibility='default-visibility' is-defined='yes'/>
    <elf-symbol name='_ZNSt12_Vector_baseINSt7__cxx1112basic_stringIcSt11char_traitsIcESaIcEEESaIS5_EE12_Vector_implC1EOS8_' type='func-type' binding='weak-binding' visibility='default-visibility' is-defined='yes'/>
    <elf-symbol name='_ZNSt12_Vector_baseINSt7__cxx1112basic_stringIcSt11char_traitsIcESaIcEEESaIS5_EE12_Vector_implC1ERKS6_' type='func-type' binding='weak-binding' visibility='default-visibility' alias='_ZNSt12_Vector_baseINSt7__cxx1112basic_stringIcSt11char_traitsIcESaIcEEESaIS5_EE12_Vector_implC2ERKS6_' is-defined='yes'/>
    <elf-symbol name='_ZNSt12_Vector_baseINSt7__cxx1112basic_stringIcSt11char_traitsIcESaIcEEESaIS5_EE12_Vector_implC1Ev' type='func-type' binding='weak-binding' visibility='default-visibility' alias='_ZNSt12_Vector_baseINSt7__cxx1112basic_stringIcSt11char_traitsIcESaIcEEESaIS5_EE12_Vector_implC2Ev' is-defined='yes'/>
    <elf-symbol name='_ZNSt12_Vector_baseINSt7__cxx1112basic_stringIcSt11char_traitsIcESaIcEEESaIS5_EE12_Vector_implC2EOS8_' type='func-type' binding='weak-binding' visibility='default-visibility' alias='_ZNSt12_Vector_baseINSt7__cxx1112basic_stringIcSt11char_traitsIcESaIcEEESaIS5_EE12_Vector_implC1EOS8_' is-defined='yes'/>
    <elf-symbol name='_ZNSt12_Vector_baseINSt7__cxx1112basic_stringIcSt11char_traitsIcESaIcEEESaIS5_EE12_Vector_implC2ERKS6_' type='func-type' binding='weak-binding' visibility='default-visibility' is-defined='yes'/>
    <elf-symbol name='_ZNSt12_Vector_baseINSt7__cxx1112basic_stringIcSt11char_traitsIcESaIcEEESaIS5_EE12_Vector_implC2Ev' type='func-type' binding='weak-binding' visibility='default-visibility' is-defined='yes'/>
    <elf-symbol name='_ZNSt12_Vector_baseINSt7__cxx1112basic_stringIcSt11char_traitsIcESaIcEEESaIS5_EE12_Vector_implD1Ev' type='func-type' binding='weak-binding' visibility='default-visibility' alias='_ZNSt12_Vector_baseINSt7__cxx1112basic_stringIcSt11char_traitsIcESaIcEEESaIS5_EE12_Vector_implD2Ev' is-defined='yes'/>
    <elf-symbol name='_ZNSt12_Vector_baseINSt7__cxx1112basic_stringIcSt11char_traitsIcESaIcEEESaIS5_EE12_Vector_implD2Ev' type='func-type' binding='weak-binding' visibility='default-visibility' is-defined='yes'/>
    <elf-symbol name='_ZNSt12_Vector_baseINSt7__cxx1112basic_stringIcSt11char_traitsIcESaIcEEESaIS5_EE13_M_deallocateEPS5_m' type='func-type' binding='weak-binding' visibility='default-visibility' is-defined='yes'/>
    <elf-symbol name='_ZNSt12_Vector_baseINSt7__cxx1112basic_stringIcSt11char_traitsIcESaIcEEESaIS5_EE17_M_create_storageEm' type='func-type' binding='weak-binding' visibility='default-visibility' is-defined='yes'/>
    <elf-symbol name='_ZNSt12_Vector_baseINSt7__cxx1112basic_stringIcSt11char_traitsIcESaIcEEESaIS5_EE17_Vector_impl_dataC1EOS8_' type='func-type' binding='weak-binding' visibility='default-visibility' alias='_ZNSt12_Vector_baseINSt7__cxx1112basic_stringIcSt11char_traitsIcESaIcEEESaIS5_EE17_Vector_impl_dataC2EOS8_' is-defined='yes'/>
    <elf-symbol name='_ZNSt12_Vector_baseINSt7__cxx1112basic_stringIcSt11char_traitsIcESaIcEEESaIS5_EE17_Vector_impl_dataC1Ev' type='func-type' binding='weak-binding' visibility='default-visibility' is-defined='yes'/>
    <elf-symbol name='_ZNSt12_Vector_baseINSt7__cxx1112basic_stringIcSt11char_traitsIcESaIcEEESaIS5_EE17_Vector_impl_dataC2EOS8_' type='func-type' binding='weak-binding' visibility='default-visibility' is-defined='yes'/>
    <elf-symbol name='_ZNSt12_Vector_baseINSt7__cxx1112basic_stringIcSt11char_traitsIcESaIcEEESaIS5_EE17_Vector_impl_dataC2Ev' type='func-type' binding='weak-binding' visibility='default-visibility' alias='_ZNSt12_Vector_baseINSt7__cxx1112basic_stringIcSt11char_traitsIcESaIcEEESaIS5_EE17_Vector_impl_dataC1Ev' is-defined='yes'/>
    <elf-symbol name='_ZNSt12_Vector_baseINSt7__cxx1112basic_stringIcSt11char_traitsIcESaIcEEESaIS5_EE19_M_get_Tp_allocatorEv' type='func-type' binding='weak-binding' visibility='default-visibility' is-defined='yes'/>
    <elf-symbol name='_ZNSt12_Vector_baseINSt7__cxx1112basic_stringIcSt11char_traitsIcESaIcEEESaIS5_EEC1EOS7_' type='func-type' binding='weak-binding' visibility='default-visibility' alias='_ZNSt12_Vector_baseINSt7__cxx1112basic_stringIcSt11char_traitsIcESaIcEEESaIS5_EEC2EOS7_' is-defined='yes'/>
    <elf-symbol name='_ZNSt12_Vector_baseINSt7__cxx1112basic_stringIcSt11char_traitsIcESaIcEEESaIS5_EEC1ERKS6_' type='func-type' binding='weak-binding' visibility='default-visibility' alias='_ZNSt12_Vector_baseINSt7__cxx1112basic_stringIcSt11char_traitsIcESaIcEEESaIS5_EEC2ERKS6_' is-defined='yes'/>
    <elf-symbol name='_ZNSt12_Vector_baseINSt7__cxx1112basic_stringIcSt11char_traitsIcESaIcEEESaIS5_EEC1EmRKS6_' type='func-type' binding='weak-binding' visibility='default-visibility' is-defined='yes'/>
    <elf-symbol name='_ZNSt12_Vector_baseINSt7__cxx1112basic_stringIcSt11char_traitsIcESaIcEEESaIS5_EEC1Ev' type='func-type' binding='weak-binding' visibility='default-visibility' is-defined='yes'/>
    <elf-symbol name='_ZNSt12_Vector_baseINSt7__cxx1112basic_stringIcSt11char_traitsIcESaIcEEESaIS5_EEC2EOS7_' type='func-type' binding='weak-binding' visibility='default-visibility' is-defined='yes'/>
    <elf-symbol name='_ZNSt12_Vector_baseINSt7__cxx1112basic_stringIcSt11char_traitsIcESaIcEEESaIS5_EEC2ERKS6_' type='func-type' binding='weak-binding' visibility='default-visibility' is-defined='yes'/>
    <elf-symbol name='_ZNSt12_Vector_baseINSt7__cxx1112basic_stringIcSt11char_traitsIcESaIcEEESaIS5_EEC2EmRKS6_' type='func-type' binding='weak-binding' visibility='default-visibility' alias='_ZNSt12_Vector_baseINSt7__cxx1112basic_stringIcSt11char_traitsIcESaIcEEESaIS5_EEC1EmRKS6_' is-defined='yes'/>
    <elf-symbol name='_ZNSt12_Vector_baseINSt7__cxx1112basic_stringIcSt11char_traitsIcESaIcEEESaIS5_EEC2Ev' type='func-type' binding='weak-binding' visibility='default-visibility' alias='_ZNSt12_Vector_baseINSt7__cxx1112basic_stringIcSt11char_traitsIcESaIcEEESaIS5_EEC1Ev' is-defined='yes'/>
    <elf-symbol name='_ZNSt12_Vector_baseINSt7__cxx1112basic_stringIcSt11char_traitsIcESaIcEEESaIS5_EED1Ev' type='func-type' binding='weak-binding' visibility='default-visibility' alias='_ZNSt12_Vector_baseINSt7__cxx1112basic_stringIcSt11char_traitsIcESaIcEEESaIS5_EED2Ev' is-defined='yes'/>
    <elf-symbol name='_ZNSt12_Vector_baseINSt7__cxx1112basic_stringIcSt11char_traitsIcESaIcEEESaIS5_EED2Ev' type='func-type' binding='weak-binding' visibility='default-visibility' is-defined='yes'/>
    <elf-symbol name='_ZNSt12_Vector_baseISt10shared_ptrIKN8usbguard4RuleEESaIS4_EE11_M_allocateEm' type='func-type' binding='weak-binding' visibility='default-visibility' is-defined='yes'/>
    <elf-symbol name='_ZNSt12_Vector_baseISt10shared_ptrIKN8usbguard4RuleEESaIS4_EE12_Vector_implC1Ev' type='func-type' binding='weak-binding' visibility='default-visibility' alias='_ZNSt12_Vector_baseISt10shared_ptrIKN8usbguard4RuleEESaIS4_EE12_Vector_implC2Ev' is-defined='yes'/>
    <elf-symbol name='_ZNSt12_Vector_baseISt10shared_ptrIKN8usbguard4RuleEESaIS4_EE12_Vector_implC2Ev' type='func-type' binding='weak-binding' visibility='default-visibility' is-defined='yes'/>
    <elf-symbol name='_ZNSt12_Vector_baseISt10shared_ptrIKN8usbguard4RuleEESaIS4_EE12_Vector_implD1Ev' type='func-type' binding='weak-binding' visibility='default-visibility' alias='_ZNSt12_Vector_baseISt10shared_ptrIKN8usbguard4RuleEESaIS4_EE12_Vector_implD2Ev' is-defined='yes'/>
    <elf-symbol name='_ZNSt12_Vector_baseISt10shared_ptrIKN8usbguard4RuleEESaIS4_EE12_Vector_implD2Ev' type='func-type' binding='weak-binding' visibility='default-visibility' is-defined='yes'/>
    <elf-symbol name='_ZNSt12_Vector_baseISt10shared_ptrIKN8usbguard4RuleEESaIS4_EE13_M_deallocateEPS4_m' type='func-type' binding='weak-binding' visibility='default-visibility' is-defined='yes'/>
    <elf-symbol name='_ZNSt12_Vector_baseISt10shared_ptrIKN8usbguard4RuleEESaIS4_EE17_Vector_impl_dataC1Ev' type='func-type' binding='weak-binding' visibility='default-visibility' alias='_ZNSt12_Vector_baseISt10shared_ptrIKN8usbguard4RuleEESaIS4_EE17_Vector_impl_dataC2Ev' is-defined='yes'/>
    <elf-symbol name='_ZNSt12_Vector_baseISt10shared_ptrIKN8usbguard4RuleEESaIS4_EE17_Vector_impl_dataC2Ev' type='func-type' binding='weak-binding' visibility='default-visibility' is-defined='yes'/>
    <elf-symbol name='_ZNSt12_Vector_baseISt10shared_ptrIKN8usbguard4RuleEESaIS4_EE19_M_get_Tp_allocatorEv' type='func-type' binding='weak-binding' visibility='default-visibility' is-defined='yes'/>
    <elf-symbol name='_ZNSt12_Vector_baseISt10shared_ptrIKN8usbguard4RuleEESaIS4_EEC1Ev' type='func-type' binding='weak-binding' visibility='default-visibility' alias='_ZNSt12_Vector_baseISt10shared_ptrIKN8usbguard4RuleEESaIS4_EEC2Ev' is-defined='yes'/>
    <elf-symbol name='_ZNSt12_Vector_baseISt10shared_ptrIKN8usbguard4RuleEESaIS4_EEC2Ev' type='func-type' binding='weak-binding' visibility='default-visibility' is-defined='yes'/>
    <elf-symbol name='_ZNSt12_Vector_baseISt10shared_ptrIKN8usbguard4RuleEESaIS4_EED1Ev' type='func-type' binding='weak-binding' visibility='default-visibility' alias='_ZNSt12_Vector_baseISt10shared_ptrIKN8usbguard4RuleEESaIS4_EED2Ev' is-defined='yes'/>
    <elf-symbol name='_ZNSt12_Vector_baseISt10shared_ptrIKN8usbguard4RuleEESaIS4_EED2Ev' type='func-type' binding='weak-binding' visibility='default-visibility' is-defined='yes'/>
    <elf-symbol name='_ZNSt12_Vector_baseISt10shared_ptrIN8usbguard4RuleEESaIS3_EE11_M_allocateEm' type='func-type' binding='weak-binding' visibility='default-visibility' is-defined='yes'/>
    <elf-symbol name='_ZNSt12_Vector_baseISt10shared_ptrIN8usbguard4RuleEESaIS3_EE12_Vector_implC1Ev' type='func-type' binding='weak-binding' visibility='default-visibility' alias='_ZNSt12_Vector_baseISt10shared_ptrIN8usbguard4RuleEESaIS3_EE12_Vector_implC2Ev' is-defined='yes'/>
    <elf-symbol name='_ZNSt12_Vector_baseISt10shared_ptrIN8usbguard4RuleEESaIS3_EE12_Vector_implC2Ev' type='func-type' binding='weak-binding' visibility='default-visibility' is-defined='yes'/>
    <elf-symbol name='_ZNSt12_Vector_baseISt10shared_ptrIN8usbguard4RuleEESaIS3_EE12_Vector_implD1Ev' type='func-type' binding='weak-binding' visibility='default-visibility' alias='_ZNSt12_Vector_baseISt10shared_ptrIN8usbguard4RuleEESaIS3_EE12_Vector_implD2Ev' is-defined='yes'/>
    <elf-symbol name='_ZNSt12_Vector_baseISt10shared_ptrIN8usbguard4RuleEESaIS3_EE12_Vector_implD2Ev' type='func-type' binding='weak-binding' visibility='default-visibility' is-defined='yes'/>
    <elf-symbol name='_ZNSt12_Vector_baseISt10shared_ptrIN8usbguard4RuleEESaIS3_EE13_M_deallocateEPS3_m' type='func-type' binding='weak-binding' visibility='default-visibility' is-defined='yes'/>
    <elf-symbol name='_ZNSt12_Vector_baseISt10shared_ptrIN8usbguard4RuleEESaIS3_EE17_Vector_impl_dataC1Ev' type='func-type' binding='weak-binding' visibility='default-visibility' alias='_ZNSt12_Vector_baseISt10shared_ptrIN8usbguard4RuleEESaIS3_EE17_Vector_impl_dataC2Ev' is-defined='yes'/>
    <elf-symbol name='_ZNSt12_Vector_baseISt10shared_ptrIN8usbguard4RuleEESaIS3_EE17_Vector_impl_dataC2Ev' type='func-type' binding='weak-binding' visibility='default-visibility' is-defined='yes'/>
    <elf-symbol name='_ZNSt12_Vector_baseISt10shared_ptrIN8usbguard4RuleEESaIS3_EE19_M_get_Tp_allocatorEv' type='func-type' binding='weak-binding' visibility='default-visibility' is-defined='yes'/>
    <elf-symbol name='_ZNSt12_Vector_baseISt10shared_ptrIN8usbguard4RuleEESaIS3_EEC1Ev' type='func-type' binding='weak-binding' visibility='default-visibility' alias='_ZNSt12_Vector_baseISt10shared_ptrIN8usbguard4RuleEESaIS3_EEC2Ev' is-defined='yes'/>
    <elf-symbol name='_ZNSt12_Vector_baseISt10shared_ptrIN8usbguard4RuleEESaIS3_EEC2Ev' type='func-type' binding='weak-binding' visibility='default-visibility' is-defined='yes'/>
    <elf-symbol name='_ZNSt12_Vector_baseISt10shared_ptrIN8usbguard4RuleEESaIS3_EED1Ev' type='func-type' binding='weak-binding' visibility='default-visibility' is-defined='yes'/>
    <elf-symbol name='_ZNSt12_Vector_baseISt10shared_ptrIN8usbguard4RuleEESaIS3_EED2Ev' type='func-type' binding='weak-binding' visibility='default-visibility' alias='_ZNSt12_Vector_baseISt10shared_ptrIN8usbguard4RuleEESaIS3_EED1Ev' is-defined='yes'/>
    <elf-symbol name='_ZNSt12_Vector_baseISt10shared_ptrIN8usbguard6DeviceEESaIS3_EE11_M_allocateEm' type='func-type' binding='weak-binding' visibility='default-visibility' is-defined='yes'/>
    <elf-symbol name='_ZNSt12_Vector_baseISt10shared_ptrIN8usbguard6DeviceEESaIS3_EE12_Vector_implC1Ev' type='func-type' binding='weak-binding' visibility='default-visibility' alias='_ZNSt12_Vector_baseISt10shared_ptrIN8usbguard6DeviceEESaIS3_EE12_Vector_implC2Ev' is-defined='yes'/>
    <elf-symbol name='_ZNSt12_Vector_baseISt10shared_ptrIN8usbguard6DeviceEESaIS3_EE12_Vector_implC2Ev' type='func-type' binding='weak-binding' visibility='default-visibility' is-defined='yes'/>
    <elf-symbol name='_ZNSt12_Vector_baseISt10shared_ptrIN8usbguard6DeviceEESaIS3_EE12_Vector_implD1Ev' type='func-type' binding='weak-binding' visibility='default-visibility' alias='_ZNSt12_Vector_baseISt10shared_ptrIN8usbguard6DeviceEESaIS3_EE12_Vector_implD2Ev' is-defined='yes'/>
    <elf-symbol name='_ZNSt12_Vector_baseISt10shared_ptrIN8usbguard6DeviceEESaIS3_EE12_Vector_implD2Ev' type='func-type' binding='weak-binding' visibility='default-visibility' is-defined='yes'/>
    <elf-symbol name='_ZNSt12_Vector_baseISt10shared_ptrIN8usbguard6DeviceEESaIS3_EE13_M_deallocateEPS3_m' type='func-type' binding='weak-binding' visibility='default-visibility' is-defined='yes'/>
    <elf-symbol name='_ZNSt12_Vector_baseISt10shared_ptrIN8usbguard6DeviceEESaIS3_EE17_Vector_impl_dataC1Ev' type='func-type' binding='weak-binding' visibility='default-visibility' is-defined='yes'/>
    <elf-symbol name='_ZNSt12_Vector_baseISt10shared_ptrIN8usbguard6DeviceEESaIS3_EE17_Vector_impl_dataC2Ev' type='func-type' binding='weak-binding' visibility='default-visibility' alias='_ZNSt12_Vector_baseISt10shared_ptrIN8usbguard6DeviceEESaIS3_EE17_Vector_impl_dataC1Ev' is-defined='yes'/>
    <elf-symbol name='_ZNSt12_Vector_baseISt10shared_ptrIN8usbguard6DeviceEESaIS3_EE19_M_get_Tp_allocatorEv' type='func-type' binding='weak-binding' visibility='default-visibility' is-defined='yes'/>
    <elf-symbol name='_ZNSt12_Vector_baseISt10shared_ptrIN8usbguard6DeviceEESaIS3_EEC1Ev' type='func-type' binding='weak-binding' visibility='default-visibility' alias='_ZNSt12_Vector_baseISt10shared_ptrIN8usbguard6DeviceEESaIS3_EEC2Ev' is-defined='yes'/>
    <elf-symbol name='_ZNSt12_Vector_baseISt10shared_ptrIN8usbguard6DeviceEESaIS3_EEC2Ev' type='func-type' binding='weak-binding' visibility='default-visibility' is-defined='yes'/>
    <elf-symbol name='_ZNSt12_Vector_baseISt10shared_ptrIN8usbguard6DeviceEESaIS3_EED1Ev' type='func-type' binding='weak-binding' visibility='default-visibility' alias='_ZNSt12_Vector_baseISt10shared_ptrIN8usbguard6DeviceEESaIS3_EED2Ev' is-defined='yes'/>
    <elf-symbol name='_ZNSt12_Vector_baseISt10shared_ptrIN8usbguard6DeviceEESaIS3_EED2Ev' type='func-type' binding='weak-binding' visibility='default-visibility' is-defined='yes'/>
    <elf-symbol name='_ZNSt12_Vector_baseISt10shared_ptrIN8usbguard7RuleSetEESaIS3_EE11_M_allocateEm' type='func-type' binding='weak-binding' visibility='default-visibility' is-defined='yes'/>
    <elf-symbol name='_ZNSt12_Vector_baseISt10shared_ptrIN8usbguard7RuleSetEESaIS3_EE12_Vector_implC1ERKS4_' type='func-type' binding='weak-binding' visibility='default-visibility' alias='_ZNSt12_Vector_baseISt10shared_ptrIN8usbguard7RuleSetEESaIS3_EE12_Vector_implC2ERKS4_' is-defined='yes'/>
    <elf-symbol name='_ZNSt12_Vector_baseISt10shared_ptrIN8usbguard7RuleSetEESaIS3_EE12_Vector_implC1Ev' type='func-type' binding='weak-binding' visibility='default-visibility' is-defined='yes'/>
    <elf-symbol name='_ZNSt12_Vector_baseISt10shared_ptrIN8usbguard7RuleSetEESaIS3_EE12_Vector_implC2ERKS4_' type='func-type' binding='weak-binding' visibility='default-visibility' is-defined='yes'/>
    <elf-symbol name='_ZNSt12_Vector_baseISt10shared_ptrIN8usbguard7RuleSetEESaIS3_EE12_Vector_implC2Ev' type='func-type' binding='weak-binding' visibility='default-visibility' alias='_ZNSt12_Vector_baseISt10shared_ptrIN8usbguard7RuleSetEESaIS3_EE12_Vector_implC1Ev' is-defined='yes'/>
    <elf-symbol name='_ZNSt12_Vector_baseISt10shared_ptrIN8usbguard7RuleSetEESaIS3_EE12_Vector_implD1Ev' type='func-type' binding='weak-binding' visibility='default-visibility' alias='_ZNSt12_Vector_baseISt10shared_ptrIN8usbguard7RuleSetEESaIS3_EE12_Vector_implD2Ev' is-defined='yes'/>
    <elf-symbol name='_ZNSt12_Vector_baseISt10shared_ptrIN8usbguard7RuleSetEESaIS3_EE12_Vector_implD2Ev' type='func-type' binding='weak-binding' visibility='default-visibility' is-defined='yes'/>
    <elf-symbol name='_ZNSt12_Vector_baseISt10shared_ptrIN8usbguard7RuleSetEESaIS3_EE13_M_deallocateEPS3_m' type='func-type' binding='weak-binding' visibility='default-visibility' is-defined='yes'/>
    <elf-symbol name='_ZNSt12_Vector_baseISt10shared_ptrIN8usbguard7RuleSetEESaIS3_EE17_M_create_storageEm' type='func-type' binding='weak-binding' visibility='default-visibility' is-defined='yes'/>
    <elf-symbol name='_ZNSt12_Vector_baseISt10shared_ptrIN8usbguard7RuleSetEESaIS3_EE17_Vector_impl_data12_M_copy_dataERKS6_' type='func-type' binding='weak-binding' visibility='default-visibility' is-defined='yes'/>
    <elf-symbol name='_ZNSt12_Vector_baseISt10shared_ptrIN8usbguard7RuleSetEESaIS3_EE17_Vector_impl_data12_M_swap_dataERS6_' type='func-type' binding='weak-binding' visibility='default-visibility' is-defined='yes'/>
    <elf-symbol name='_ZNSt12_Vector_baseISt10shared_ptrIN8usbguard7RuleSetEESaIS3_EE17_Vector_impl_dataC1Ev' type='func-type' binding='weak-binding' visibility='default-visibility' alias='_ZNSt12_Vector_baseISt10shared_ptrIN8usbguard7RuleSetEESaIS3_EE17_Vector_impl_dataC2Ev' is-defined='yes'/>
    <elf-symbol name='_ZNSt12_Vector_baseISt10shared_ptrIN8usbguard7RuleSetEESaIS3_EE17_Vector_impl_dataC2Ev' type='func-type' binding='weak-binding' visibility='default-visibility' is-defined='yes'/>
    <elf-symbol name='_ZNSt12_Vector_baseISt10shared_ptrIN8usbguard7RuleSetEESaIS3_EE19_M_get_Tp_allocatorEv' type='func-type' binding='weak-binding' visibility='default-visibility' is-defined='yes'/>
    <elf-symbol name='_ZNSt12_Vector_baseISt10shared_ptrIN8usbguard7RuleSetEESaIS3_EEC1ERKS4_' type='func-type' binding='weak-binding' visibility='default-visibility' is-defined='yes'/>
    <elf-symbol name='_ZNSt12_Vector_baseISt10shared_ptrIN8usbguard7RuleSetEESaIS3_EEC1EmRKS4_' type='func-type' binding='weak-binding' visibility='default-visibility' alias='_ZNSt12_Vector_baseISt10shared_ptrIN8usbguard7RuleSetEESaIS3_EEC2EmRKS4_' is-defined='yes'/>
    <elf-symbol name='_ZNSt12_Vector_baseISt10shared_ptrIN8usbguard7RuleSetEESaIS3_EEC1Ev' type='func-type' binding='weak-binding' visibility='default-visibility' alias='_ZNSt12_Vector_baseISt10shared_ptrIN8usbguard7RuleSetEESaIS3_EEC2Ev' is-defined='yes'/>
    <elf-symbol name='_ZNSt12_Vector_baseISt10shared_ptrIN8usbguard7RuleSetEESaIS3_EEC2ERKS4_' type='func-type' binding='weak-binding' visibility='default-visibility' alias='_ZNSt12_Vector_baseISt10shared_ptrIN8usbguard7RuleSetEESaIS3_EEC1ERKS4_' is-defined='yes'/>
    <elf-symbol name='_ZNSt12_Vector_baseISt10shared_ptrIN8usbguard7RuleSetEESaIS3_EEC2EmRKS4_' type='func-type' binding='weak-binding' visibility='default-visibility' is-defined='yes'/>
    <elf-symbol name='_ZNSt12_Vector_baseISt10shared_ptrIN8usbguard7RuleSetEESaIS3_EEC2Ev' type='func-type' binding='weak-binding' visibility='default-visibility' is-defined='yes'/>
    <elf-symbol name='_ZNSt12_Vector_baseISt10shared_ptrIN8usbguard7RuleSetEESaIS3_EED1Ev' type='func-type' binding='weak-binding' visibility='default-visibility' alias='_ZNSt12_Vector_baseISt10shared_ptrIN8usbguard7RuleSetEESaIS3_EED2Ev' is-defined='yes'/>
    <elf-symbol name='_ZNSt12_Vector_baseISt10shared_ptrIN8usbguard7RuleSetEESaIS3_EED2Ev' type='func-type' binding='weak-binding' visibility='default-visibility' is-defined='yes'/>
    <elf-symbol name='_ZNSt12_Vector_baseISt4pairINSt7__cxx1112basic_stringIcSt11char_traitsIcESaIcEEEN8usbguard13DeviceManager21AuthorizedDefaultTypeEESaISA_EE11_M_allocateEm' type='func-type' binding='weak-binding' visibility='default-visibility' is-defined='yes'/>
    <elf-symbol name='_ZNSt12_Vector_baseISt4pairINSt7__cxx1112basic_stringIcSt11char_traitsIcESaIcEEEN8usbguard13DeviceManager21AuthorizedDefaultTypeEESaISA_EE12_Vector_implC1ERKSB_' type='func-type' binding='weak-binding' visibility='default-visibility' alias='_ZNSt12_Vector_baseISt4pairINSt7__cxx1112basic_stringIcSt11char_traitsIcESaIcEEEN8usbguard13DeviceManager21AuthorizedDefaultTypeEESaISA_EE12_Vector_implC2ERKSB_' is-defined='yes'/>
    <elf-symbol name='_ZNSt12_Vector_baseISt4pairINSt7__cxx1112basic_stringIcSt11char_traitsIcESaIcEEEN8usbguard13DeviceManager21AuthorizedDefaultTypeEESaISA_EE12_Vector_implC2ERKSB_' type='func-type' binding='weak-binding' visibility='default-visibility' is-defined='yes'/>
    <elf-symbol name='_ZNSt12_Vector_baseISt4pairINSt7__cxx1112basic_stringIcSt11char_traitsIcESaIcEEEN8usbguard13DeviceManager21AuthorizedDefaultTypeEESaISA_EE12_Vector_implD1Ev' type='func-type' binding='weak-binding' visibility='default-visibility' is-defined='yes'/>
    <elf-symbol name='_ZNSt12_Vector_baseISt4pairINSt7__cxx1112basic_stringIcSt11char_traitsIcESaIcEEEN8usbguard13DeviceManager21AuthorizedDefaultTypeEESaISA_EE12_Vector_implD2Ev' type='func-type' binding='weak-binding' visibility='default-visibility' alias='_ZNSt12_Vector_baseISt4pairINSt7__cxx1112basic_stringIcSt11char_traitsIcESaIcEEEN8usbguard13DeviceManager21AuthorizedDefaultTypeEESaISA_EE12_Vector_implD1Ev' is-defined='yes'/>
    <elf-symbol name='_ZNSt12_Vector_baseISt4pairINSt7__cxx1112basic_stringIcSt11char_traitsIcESaIcEEEN8usbguard13DeviceManager21AuthorizedDefaultTypeEESaISA_EE13_M_deallocateEPSA_m' type='func-type' binding='weak-binding' visibility='default-visibility' is-defined='yes'/>
    <elf-symbol name='_ZNSt12_Vector_baseISt4pairINSt7__cxx1112basic_stringIcSt11char_traitsIcESaIcEEEN8usbguard13DeviceManager21AuthorizedDefaultTypeEESaISA_EE17_Vector_impl_dataC1Ev' type='func-type' binding='weak-binding' visibility='default-visibility' alias='_ZNSt12_Vector_baseISt4pairINSt7__cxx1112basic_stringIcSt11char_traitsIcESaIcEEEN8usbguard13DeviceManager21AuthorizedDefaultTypeEESaISA_EE17_Vector_impl_dataC2Ev' is-defined='yes'/>
    <elf-symbol name='_ZNSt12_Vector_baseISt4pairINSt7__cxx1112basic_stringIcSt11char_traitsIcESaIcEEEN8usbguard13DeviceManager21AuthorizedDefaultTypeEESaISA_EE17_Vector_impl_dataC2Ev' type='func-type' binding='weak-binding' visibility='default-visibility' is-defined='yes'/>
    <elf-symbol name='_ZNSt12_Vector_baseISt4pairINSt7__cxx1112basic_stringIcSt11char_traitsIcESaIcEEEN8usbguard13DeviceManager21AuthorizedDefaultTypeEESaISA_EE19_M_get_Tp_allocatorEv' type='func-type' binding='weak-binding' visibility='default-visibility' is-defined='yes'/>
    <elf-symbol name='_ZNSt12_Vector_baseISt4pairINSt7__cxx1112basic_stringIcSt11char_traitsIcESaIcEEEN8usbguard13DeviceManager21AuthorizedDefaultTypeEESaISA_EEC1ERKSB_' type='func-type' binding='weak-binding' visibility='default-visibility' alias='_ZNSt12_Vector_baseISt4pairINSt7__cxx1112basic_stringIcSt11char_traitsIcESaIcEEEN8usbguard13DeviceManager21AuthorizedDefaultTypeEESaISA_EEC2ERKSB_' is-defined='yes'/>
    <elf-symbol name='_ZNSt12_Vector_baseISt4pairINSt7__cxx1112basic_stringIcSt11char_traitsIcESaIcEEEN8usbguard13DeviceManager21AuthorizedDefaultTypeEESaISA_EEC2ERKSB_' type='func-type' binding='weak-binding' visibility='default-visibility' is-defined='yes'/>
    <elf-symbol name='_ZNSt12_Vector_baseISt4pairINSt7__cxx1112basic_stringIcSt11char_traitsIcESaIcEEEN8usbguard13DeviceManager21AuthorizedDefaultTypeEESaISA_EED1Ev' type='func-type' binding='weak-binding' visibility='default-visibility' alias='_ZNSt12_Vector_baseISt4pairINSt7__cxx1112basic_stringIcSt11char_traitsIcESaIcEEEN8usbguard13DeviceManager21AuthorizedDefaultTypeEESaISA_EED2Ev' is-defined='yes'/>
    <elf-symbol name='_ZNSt12_Vector_baseISt4pairINSt7__cxx1112basic_stringIcSt11char_traitsIcESaIcEEEN8usbguard13DeviceManager21AuthorizedDefaultTypeEESaISA_EED2Ev' type='func-type' binding='weak-binding' visibility='default-visibility' is-defined='yes'/>
    <elf-symbol name='_ZNSt12_Vector_baseISt4pairINSt7__cxx1112basic_stringIcSt11char_traitsIcESaIcEEEN8usbguard4Rule11SetOperatorEESaISA_EE11_M_allocateEm' type='func-type' binding='weak-binding' visibility='default-visibility' is-defined='yes'/>
    <elf-symbol name='_ZNSt12_Vector_baseISt4pairINSt7__cxx1112basic_stringIcSt11char_traitsIcESaIcEEEN8usbguard4Rule11SetOperatorEESaISA_EE12_Vector_implC1ERKSB_' type='func-type' binding='weak-binding' visibility='default-visibility' alias='_ZNSt12_Vector_baseISt4pairINSt7__cxx1112basic_stringIcSt11char_traitsIcESaIcEEEN8usbguard4Rule11SetOperatorEESaISA_EE12_Vector_implC2ERKSB_' is-defined='yes'/>
    <elf-symbol name='_ZNSt12_Vector_baseISt4pairINSt7__cxx1112basic_stringIcSt11char_traitsIcESaIcEEEN8usbguard4Rule11SetOperatorEESaISA_EE12_Vector_implC2ERKSB_' type='func-type' binding='weak-binding' visibility='default-visibility' is-defined='yes'/>
    <elf-symbol name='_ZNSt12_Vector_baseISt4pairINSt7__cxx1112basic_stringIcSt11char_traitsIcESaIcEEEN8usbguard4Rule11SetOperatorEESaISA_EE12_Vector_implD1Ev' type='func-type' binding='weak-binding' visibility='default-visibility' alias='_ZNSt12_Vector_baseISt4pairINSt7__cxx1112basic_stringIcSt11char_traitsIcESaIcEEEN8usbguard4Rule11SetOperatorEESaISA_EE12_Vector_implD2Ev' is-defined='yes'/>
    <elf-symbol name='_ZNSt12_Vector_baseISt4pairINSt7__cxx1112basic_stringIcSt11char_traitsIcESaIcEEEN8usbguard4Rule11SetOperatorEESaISA_EE12_Vector_implD2Ev' type='func-type' binding='weak-binding' visibility='default-visibility' is-defined='yes'/>
    <elf-symbol name='_ZNSt12_Vector_baseISt4pairINSt7__cxx1112basic_stringIcSt11char_traitsIcESaIcEEEN8usbguard4Rule11SetOperatorEESaISA_EE13_M_deallocateEPSA_m' type='func-type' binding='weak-binding' visibility='default-visibility' is-defined='yes'/>
    <elf-symbol name='_ZNSt12_Vector_baseISt4pairINSt7__cxx1112basic_stringIcSt11char_traitsIcESaIcEEEN8usbguard4Rule11SetOperatorEESaISA_EE17_Vector_impl_dataC1Ev' type='func-type' binding='weak-binding' visibility='default-visibility' alias='_ZNSt12_Vector_baseISt4pairINSt7__cxx1112basic_stringIcSt11char_traitsIcESaIcEEEN8usbguard4Rule11SetOperatorEESaISA_EE17_Vector_impl_dataC2Ev' is-defined='yes'/>
    <elf-symbol name='_ZNSt12_Vector_baseISt4pairINSt7__cxx1112basic_stringIcSt11char_traitsIcESaIcEEEN8usbguard4Rule11SetOperatorEESaISA_EE17_Vector_impl_dataC2Ev' type='func-type' binding='weak-binding' visibility='default-visibility' is-defined='yes'/>
    <elf-symbol name='_ZNSt12_Vector_baseISt4pairINSt7__cxx1112basic_stringIcSt11char_traitsIcESaIcEEEN8usbguard4Rule11SetOperatorEESaISA_EE19_M_get_Tp_allocatorEv' type='func-type' binding='weak-binding' visibility='default-visibility' is-defined='yes'/>
    <elf-symbol name='_ZNSt12_Vector_baseISt4pairINSt7__cxx1112basic_stringIcSt11char_traitsIcESaIcEEEN8usbguard4Rule11SetOperatorEESaISA_EEC1ERKSB_' type='func-type' binding='weak-binding' visibility='default-visibility' alias='_ZNSt12_Vector_baseISt4pairINSt7__cxx1112basic_stringIcSt11char_traitsIcESaIcEEEN8usbguard4Rule11SetOperatorEESaISA_EEC2ERKSB_' is-defined='yes'/>
    <elf-symbol name='_ZNSt12_Vector_baseISt4pairINSt7__cxx1112basic_stringIcSt11char_traitsIcESaIcEEEN8usbguard4Rule11SetOperatorEESaISA_EEC2ERKSB_' type='func-type' binding='weak-binding' visibility='default-visibility' is-defined='yes'/>
    <elf-symbol name='_ZNSt12_Vector_baseISt4pairINSt7__cxx1112basic_stringIcSt11char_traitsIcESaIcEEEN8usbguard4Rule11SetOperatorEESaISA_EED1Ev' type='func-type' binding='weak-binding' visibility='default-visibility' alias='_ZNSt12_Vector_baseISt4pairINSt7__cxx1112basic_stringIcSt11char_traitsIcESaIcEEEN8usbguard4Rule11SetOperatorEESaISA_EED2Ev' is-defined='yes'/>
    <elf-symbol name='_ZNSt12_Vector_baseISt4pairINSt7__cxx1112basic_stringIcSt11char_traitsIcESaIcEEEN8usbguard4Rule11SetOperatorEESaISA_EED2Ev' type='func-type' binding='weak-binding' visibility='default-visibility' is-defined='yes'/>
    <elf-symbol name='_ZNSt12_Vector_baseISt4pairINSt7__cxx1112basic_stringIcSt11char_traitsIcESaIcEEEN8usbguard4Rule6TargetEESaISA_EE11_M_allocateEm' type='func-type' binding='weak-binding' visibility='default-visibility' is-defined='yes'/>
    <elf-symbol name='_ZNSt12_Vector_baseISt4pairINSt7__cxx1112basic_stringIcSt11char_traitsIcESaIcEEEN8usbguard4Rule6TargetEESaISA_EE12_Vector_implC1ERKSB_' type='func-type' binding='weak-binding' visibility='default-visibility' alias='_ZNSt12_Vector_baseISt4pairINSt7__cxx1112basic_stringIcSt11char_traitsIcESaIcEEEN8usbguard4Rule6TargetEESaISA_EE12_Vector_implC2ERKSB_' is-defined='yes'/>
    <elf-symbol name='_ZNSt12_Vector_baseISt4pairINSt7__cxx1112basic_stringIcSt11char_traitsIcESaIcEEEN8usbguard4Rule6TargetEESaISA_EE12_Vector_implC2ERKSB_' type='func-type' binding='weak-binding' visibility='default-visibility' is-defined='yes'/>
    <elf-symbol name='_ZNSt12_Vector_baseISt4pairINSt7__cxx1112basic_stringIcSt11char_traitsIcESaIcEEEN8usbguard4Rule6TargetEESaISA_EE12_Vector_implD1Ev' type='func-type' binding='weak-binding' visibility='default-visibility' alias='_ZNSt12_Vector_baseISt4pairINSt7__cxx1112basic_stringIcSt11char_traitsIcESaIcEEEN8usbguard4Rule6TargetEESaISA_EE12_Vector_implD2Ev' is-defined='yes'/>
    <elf-symbol name='_ZNSt12_Vector_baseISt4pairINSt7__cxx1112basic_stringIcSt11char_traitsIcESaIcEEEN8usbguard4Rule6TargetEESaISA_EE12_Vector_implD2Ev' type='func-type' binding='weak-binding' visibility='default-visibility' is-defined='yes'/>
    <elf-symbol name='_ZNSt12_Vector_baseISt4pairINSt7__cxx1112basic_stringIcSt11char_traitsIcESaIcEEEN8usbguard4Rule6TargetEESaISA_EE13_M_deallocateEPSA_m' type='func-type' binding='weak-binding' visibility='default-visibility' is-defined='yes'/>
    <elf-symbol name='_ZNSt12_Vector_baseISt4pairINSt7__cxx1112basic_stringIcSt11char_traitsIcESaIcEEEN8usbguard4Rule6TargetEESaISA_EE17_Vector_impl_dataC1Ev' type='func-type' binding='weak-binding' visibility='default-visibility' alias='_ZNSt12_Vector_baseISt4pairINSt7__cxx1112basic_stringIcSt11char_traitsIcESaIcEEEN8usbguard4Rule6TargetEESaISA_EE17_Vector_impl_dataC2Ev' is-defined='yes'/>
    <elf-symbol name='_ZNSt12_Vector_baseISt4pairINSt7__cxx1112basic_stringIcSt11char_traitsIcESaIcEEEN8usbguard4Rule6TargetEESaISA_EE17_Vector_impl_dataC2Ev' type='func-type' binding='weak-binding' visibility='default-visibility' is-defined='yes'/>
    <elf-symbol name='_ZNSt12_Vector_baseISt4pairINSt7__cxx1112basic_stringIcSt11char_traitsIcESaIcEEEN8usbguard4Rule6TargetEESaISA_EE19_M_get_Tp_allocatorEv' type='func-type' binding='weak-binding' visibility='default-visibility' is-defined='yes'/>
    <elf-symbol name='_ZNSt12_Vector_baseISt4pairINSt7__cxx1112basic_stringIcSt11char_traitsIcESaIcEEEN8usbguard4Rule6TargetEESaISA_EEC1ERKSB_' type='func-type' binding='weak-binding' visibility='default-visibility' alias='_ZNSt12_Vector_baseISt4pairINSt7__cxx1112basic_stringIcSt11char_traitsIcESaIcEEEN8usbguard4Rule6TargetEESaISA_EEC2ERKSB_' is-defined='yes'/>
    <elf-symbol name='_ZNSt12_Vector_baseISt4pairINSt7__cxx1112basic_stringIcSt11char_traitsIcESaIcEEEN8usbguard4Rule6TargetEESaISA_EEC2ERKSB_' type='func-type' binding='weak-binding' visibility='default-visibility' is-defined='yes'/>
    <elf-symbol name='_ZNSt12_Vector_baseISt4pairINSt7__cxx1112basic_stringIcSt11char_traitsIcESaIcEEEN8usbguard4Rule6TargetEESaISA_EED1Ev' type='func-type' binding='weak-binding' visibility='default-visibility' is-defined='yes'/>
    <elf-symbol name='_ZNSt12_Vector_baseISt4pairINSt7__cxx1112basic_stringIcSt11char_traitsIcESaIcEEEN8usbguard4Rule6TargetEESaISA_EED2Ev' type='func-type' binding='weak-binding' visibility='default-visibility' alias='_ZNSt12_Vector_baseISt4pairINSt7__cxx1112basic_stringIcSt11char_traitsIcESaIcEEEN8usbguard4Rule6TargetEESaISA_EED1Ev' is-defined='yes'/>
    <elf-symbol name='_ZNSt12_Vector_baseISt4pairINSt7__cxx1112basic_stringIcSt11char_traitsIcESaIcEEEN8usbguard9IPCServer13AccessControl7SectionEESaISB_EE11_M_allocateEm' type='func-type' binding='weak-binding' visibility='default-visibility' is-defined='yes'/>
    <elf-symbol name='_ZNSt12_Vector_baseISt4pairINSt7__cxx1112basic_stringIcSt11char_traitsIcESaIcEEEN8usbguard9IPCServer13AccessControl7SectionEESaISB_EE12_Vector_implC1ERKSC_' type='func-type' binding='weak-binding' visibility='default-visibility' is-defined='yes'/>
    <elf-symbol name='_ZNSt12_Vector_baseISt4pairINSt7__cxx1112basic_stringIcSt11char_traitsIcESaIcEEEN8usbguard9IPCServer13AccessControl7SectionEESaISB_EE12_Vector_implC2ERKSC_' type='func-type' binding='weak-binding' visibility='default-visibility' alias='_ZNSt12_Vector_baseISt4pairINSt7__cxx1112basic_stringIcSt11char_traitsIcESaIcEEEN8usbguard9IPCServer13AccessControl7SectionEESaISB_EE12_Vector_implC1ERKSC_' is-defined='yes'/>
    <elf-symbol name='_ZNSt12_Vector_baseISt4pairINSt7__cxx1112basic_stringIcSt11char_traitsIcESaIcEEEN8usbguard9IPCServer13AccessControl7SectionEESaISB_EE12_Vector_implD1Ev' type='func-type' binding='weak-binding' visibility='default-visibility' alias='_ZNSt12_Vector_baseISt4pairINSt7__cxx1112basic_stringIcSt11char_traitsIcESaIcEEEN8usbguard9IPCServer13AccessControl7SectionEESaISB_EE12_Vector_implD2Ev' is-defined='yes'/>
    <elf-symbol name='_ZNSt12_Vector_baseISt4pairINSt7__cxx1112basic_stringIcSt11char_traitsIcESaIcEEEN8usbguard9IPCServer13AccessControl7SectionEESaISB_EE12_Vector_implD2Ev' type='func-type' binding='weak-binding' visibility='default-visibility' is-defined='yes'/>
    <elf-symbol name='_ZNSt12_Vector_baseISt4pairINSt7__cxx1112basic_stringIcSt11char_traitsIcESaIcEEEN8usbguard9IPCServer13AccessControl7SectionEESaISB_EE13_M_deallocateEPSB_m' type='func-type' binding='weak-binding' visibility='default-visibility' is-defined='yes'/>
    <elf-symbol name='_ZNSt12_Vector_baseISt4pairINSt7__cxx1112basic_stringIcSt11char_traitsIcESaIcEEEN8usbguard9IPCServer13AccessControl7SectionEESaISB_EE17_Vector_impl_dataC1Ev' type='func-type' binding='weak-binding' visibility='default-visibility' is-defined='yes'/>
    <elf-symbol name='_ZNSt12_Vector_baseISt4pairINSt7__cxx1112basic_stringIcSt11char_traitsIcESaIcEEEN8usbguard9IPCServer13AccessControl7SectionEESaISB_EE17_Vector_impl_dataC2Ev' type='func-type' binding='weak-binding' visibility='default-visibility' alias='_ZNSt12_Vector_baseISt4pairINSt7__cxx1112basic_stringIcSt11char_traitsIcESaIcEEEN8usbguard9IPCServer13AccessControl7SectionEESaISB_EE17_Vector_impl_dataC1Ev' is-defined='yes'/>
    <elf-symbol name='_ZNSt12_Vector_baseISt4pairINSt7__cxx1112basic_stringIcSt11char_traitsIcESaIcEEEN8usbguard9IPCServer13AccessControl7SectionEESaISB_EE19_M_get_Tp_allocatorEv' type='func-type' binding='weak-binding' visibility='default-visibility' is-defined='yes'/>
    <elf-symbol name='_ZNSt12_Vector_baseISt4pairINSt7__cxx1112basic_stringIcSt11char_traitsIcESaIcEEEN8usbguard9IPCServer13AccessControl7SectionEESaISB_EEC1ERKSC_' type='func-type' binding='weak-binding' visibility='default-visibility' alias='_ZNSt12_Vector_baseISt4pairINSt7__cxx1112basic_stringIcSt11char_traitsIcESaIcEEEN8usbguard9IPCServer13AccessControl7SectionEESaISB_EEC2ERKSC_' is-defined='yes'/>
    <elf-symbol name='_ZNSt12_Vector_baseISt4pairINSt7__cxx1112basic_stringIcSt11char_traitsIcESaIcEEEN8usbguard9IPCServer13AccessControl7SectionEESaISB_EEC2ERKSC_' type='func-type' binding='weak-binding' visibility='default-visibility' is-defined='yes'/>
    <elf-symbol name='_ZNSt12_Vector_baseISt4pairINSt7__cxx1112basic_stringIcSt11char_traitsIcESaIcEEEN8usbguard9IPCServer13AccessControl7SectionEESaISB_EED1Ev' type='func-type' binding='weak-binding' visibility='default-visibility' is-defined='yes'/>
    <elf-symbol name='_ZNSt12_Vector_baseISt4pairINSt7__cxx1112basic_stringIcSt11char_traitsIcESaIcEEEN8usbguard9IPCServer13AccessControl7SectionEESaISB_EED2Ev' type='func-type' binding='weak-binding' visibility='default-visibility' alias='_ZNSt12_Vector_baseISt4pairINSt7__cxx1112basic_stringIcSt11char_traitsIcESaIcEEEN8usbguard9IPCServer13AccessControl7SectionEESaISB_EED1Ev' is-defined='yes'/>
    <elf-symbol name='_ZNSt12_Vector_baseISt4pairINSt7__cxx1112basic_stringIcSt11char_traitsIcESaIcEEEN8usbguard9IPCServer13AccessControl9PrivilegeEESaISB_EE11_M_allocateEm' type='func-type' binding='weak-binding' visibility='default-visibility' is-defined='yes'/>
    <elf-symbol name='_ZNSt12_Vector_baseISt4pairINSt7__cxx1112basic_stringIcSt11char_traitsIcESaIcEEEN8usbguard9IPCServer13AccessControl9PrivilegeEESaISB_EE12_Vector_implC1ERKSC_' type='func-type' binding='weak-binding' visibility='default-visibility' alias='_ZNSt12_Vector_baseISt4pairINSt7__cxx1112basic_stringIcSt11char_traitsIcESaIcEEEN8usbguard9IPCServer13AccessControl9PrivilegeEESaISB_EE12_Vector_implC2ERKSC_' is-defined='yes'/>
    <elf-symbol name='_ZNSt12_Vector_baseISt4pairINSt7__cxx1112basic_stringIcSt11char_traitsIcESaIcEEEN8usbguard9IPCServer13AccessControl9PrivilegeEESaISB_EE12_Vector_implC2ERKSC_' type='func-type' binding='weak-binding' visibility='default-visibility' is-defined='yes'/>
    <elf-symbol name='_ZNSt12_Vector_baseISt4pairINSt7__cxx1112basic_stringIcSt11char_traitsIcESaIcEEEN8usbguard9IPCServer13AccessControl9PrivilegeEESaISB_EE12_Vector_implD1Ev' type='func-type' binding='weak-binding' visibility='default-visibility' is-defined='yes'/>
    <elf-symbol name='_ZNSt12_Vector_baseISt4pairINSt7__cxx1112basic_stringIcSt11char_traitsIcESaIcEEEN8usbguard9IPCServer13AccessControl9PrivilegeEESaISB_EE12_Vector_implD2Ev' type='func-type' binding='weak-binding' visibility='default-visibility' alias='_ZNSt12_Vector_baseISt4pairINSt7__cxx1112basic_stringIcSt11char_traitsIcESaIcEEEN8usbguard9IPCServer13AccessControl9PrivilegeEESaISB_EE12_Vector_implD1Ev' is-defined='yes'/>
    <elf-symbol name='_ZNSt12_Vector_baseISt4pairINSt7__cxx1112basic_stringIcSt11char_traitsIcESaIcEEEN8usbguard9IPCServer13AccessControl9PrivilegeEESaISB_EE13_M_deallocateEPSB_m' type='func-type' binding='weak-binding' visibility='default-visibility' is-defined='yes'/>
    <elf-symbol name='_ZNSt12_Vector_baseISt4pairINSt7__cxx1112basic_stringIcSt11char_traitsIcESaIcEEEN8usbguard9IPCServer13AccessControl9PrivilegeEESaISB_EE17_Vector_impl_dataC1Ev' type='func-type' binding='weak-binding' visibility='default-visibility' is-defined='yes'/>
    <elf-symbol name='_ZNSt12_Vector_baseISt4pairINSt7__cxx1112basic_stringIcSt11char_traitsIcESaIcEEEN8usbguard9IPCServer13AccessControl9PrivilegeEESaISB_EE17_Vector_impl_dataC2Ev' type='func-type' binding='weak-binding' visibility='default-visibility' alias='_ZNSt12_Vector_baseISt4pairINSt7__cxx1112basic_stringIcSt11char_traitsIcESaIcEEEN8usbguard9IPCServer13AccessControl9PrivilegeEESaISB_EE17_Vector_impl_dataC1Ev' is-defined='yes'/>
    <elf-symbol name='_ZNSt12_Vector_baseISt4pairINSt7__cxx1112basic_stringIcSt11char_traitsIcESaIcEEEN8usbguard9IPCServer13AccessControl9PrivilegeEESaISB_EE19_M_get_Tp_allocatorEv' type='func-type' binding='weak-binding' visibility='default-visibility' is-defined='yes'/>
    <elf-symbol name='_ZNSt12_Vector_baseISt4pairINSt7__cxx1112basic_stringIcSt11char_traitsIcESaIcEEEN8usbguard9IPCServer13AccessControl9PrivilegeEESaISB_EEC1ERKSC_' type='func-type' binding='weak-binding' visibility='default-visibility' is-defined='yes'/>
    <elf-symbol name='_ZNSt12_Vector_baseISt4pairINSt7__cxx1112basic_stringIcSt11char_traitsIcESaIcEEEN8usbguard9IPCServer13AccessControl9PrivilegeEESaISB_EEC2ERKSC_' type='func-type' binding='weak-binding' visibility='default-visibility' alias='_ZNSt12_Vector_baseISt4pairINSt7__cxx1112basic_stringIcSt11char_traitsIcESaIcEEEN8usbguard9IPCServer13AccessControl9PrivilegeEESaISB_EEC1ERKSC_' is-defined='yes'/>
    <elf-symbol name='_ZNSt12_Vector_baseISt4pairINSt7__cxx1112basic_stringIcSt11char_traitsIcESaIcEEEN8usbguard9IPCServer13AccessControl9PrivilegeEESaISB_EED1Ev' type='func-type' binding='weak-binding' visibility='default-visibility' is-defined='yes'/>
    <elf-symbol name='_ZNSt12_Vector_baseISt4pairINSt7__cxx1112basic_stringIcSt11char_traitsIcESaIcEEEN8usbguard9IPCServer13AccessControl9PrivilegeEESaISB_EED2Ev' type='func-type' binding='weak-binding' visibility='default-visibility' alias='_ZNSt12_Vector_baseISt4pairINSt7__cxx1112basic_stringIcSt11char_traitsIcESaIcEEEN8usbguard9IPCServer13AccessControl9PrivilegeEESaISB_EED1Ev' is-defined='yes'/>
    <elf-symbol name='_ZNSt12_Vector_baseISt4pairINSt7__cxx1112basic_stringIcSt11char_traitsIcESaIcEEES6_ESaIS7_EE11_M_allocateEm' type='func-type' binding='weak-binding' visibility='default-visibility' is-defined='yes'/>
    <elf-symbol name='_ZNSt12_Vector_baseISt4pairINSt7__cxx1112basic_stringIcSt11char_traitsIcESaIcEEES6_ESaIS7_EE12_Vector_implC1Ev' type='func-type' binding='weak-binding' visibility='default-visibility' is-defined='yes'/>
    <elf-symbol name='_ZNSt12_Vector_baseISt4pairINSt7__cxx1112basic_stringIcSt11char_traitsIcESaIcEEES6_ESaIS7_EE12_Vector_implC2Ev' type='func-type' binding='weak-binding' visibility='default-visibility' alias='_ZNSt12_Vector_baseISt4pairINSt7__cxx1112basic_stringIcSt11char_traitsIcESaIcEEES6_ESaIS7_EE12_Vector_implC1Ev' is-defined='yes'/>
    <elf-symbol name='_ZNSt12_Vector_baseISt4pairINSt7__cxx1112basic_stringIcSt11char_traitsIcESaIcEEES6_ESaIS7_EE12_Vector_implD1Ev' type='func-type' binding='weak-binding' visibility='default-visibility' alias='_ZNSt12_Vector_baseISt4pairINSt7__cxx1112basic_stringIcSt11char_traitsIcESaIcEEES6_ESaIS7_EE12_Vector_implD2Ev' is-defined='yes'/>
    <elf-symbol name='_ZNSt12_Vector_baseISt4pairINSt7__cxx1112basic_stringIcSt11char_traitsIcESaIcEEES6_ESaIS7_EE12_Vector_implD2Ev' type='func-type' binding='weak-binding' visibility='default-visibility' is-defined='yes'/>
    <elf-symbol name='_ZNSt12_Vector_baseISt4pairINSt7__cxx1112basic_stringIcSt11char_traitsIcESaIcEEES6_ESaIS7_EE13_M_deallocateEPS7_m' type='func-type' binding='weak-binding' visibility='default-visibility' is-defined='yes'/>
    <elf-symbol name='_ZNSt12_Vector_baseISt4pairINSt7__cxx1112basic_stringIcSt11char_traitsIcESaIcEEES6_ESaIS7_EE17_Vector_impl_dataC1Ev' type='func-type' binding='weak-binding' visibility='default-visibility' alias='_ZNSt12_Vector_baseISt4pairINSt7__cxx1112basic_stringIcSt11char_traitsIcESaIcEEES6_ESaIS7_EE17_Vector_impl_dataC2Ev' is-defined='yes'/>
    <elf-symbol name='_ZNSt12_Vector_baseISt4pairINSt7__cxx1112basic_stringIcSt11char_traitsIcESaIcEEES6_ESaIS7_EE17_Vector_impl_dataC2Ev' type='func-type' binding='weak-binding' visibility='default-visibility' is-defined='yes'/>
    <elf-symbol name='_ZNSt12_Vector_baseISt4pairINSt7__cxx1112basic_stringIcSt11char_traitsIcESaIcEEES6_ESaIS7_EE19_M_get_Tp_allocatorEv' type='func-type' binding='weak-binding' visibility='default-visibility' is-defined='yes'/>
    <elf-symbol name='_ZNSt12_Vector_baseISt4pairINSt7__cxx1112basic_stringIcSt11char_traitsIcESaIcEEES6_ESaIS7_EEC1Ev' type='func-type' binding='weak-binding' visibility='default-visibility' alias='_ZNSt12_Vector_baseISt4pairINSt7__cxx1112basic_stringIcSt11char_traitsIcESaIcEEES6_ESaIS7_EEC2Ev' is-defined='yes'/>
    <elf-symbol name='_ZNSt12_Vector_baseISt4pairINSt7__cxx1112basic_stringIcSt11char_traitsIcESaIcEEES6_ESaIS7_EEC2Ev' type='func-type' binding='weak-binding' visibility='default-visibility' is-defined='yes'/>
    <elf-symbol name='_ZNSt12_Vector_baseISt4pairINSt7__cxx1112basic_stringIcSt11char_traitsIcESaIcEEES6_ESaIS7_EED1Ev' type='func-type' binding='weak-binding' visibility='default-visibility' is-defined='yes'/>
    <elf-symbol name='_ZNSt12_Vector_baseISt4pairINSt7__cxx1112basic_stringIcSt11char_traitsIcESaIcEEES6_ESaIS7_EED2Ev' type='func-type' binding='weak-binding' visibility='default-visibility' alias='_ZNSt12_Vector_baseISt4pairINSt7__cxx1112basic_stringIcSt11char_traitsIcESaIcEEES6_ESaIS7_EED1Ev' is-defined='yes'/>
    <elf-symbol name='_ZNSt12_Vector_baseISt4pairIhmESaIS1_EE11_M_allocateEm' type='func-type' binding='weak-binding' visibility='default-visibility' is-defined='yes'/>
    <elf-symbol name='_ZNSt12_Vector_baseISt4pairIhmESaIS1_EE12_Vector_implC1Ev' type='func-type' binding='weak-binding' visibility='default-visibility' alias='_ZNSt12_Vector_baseISt4pairIhmESaIS1_EE12_Vector_implC2Ev' is-defined='yes'/>
    <elf-symbol name='_ZNSt12_Vector_baseISt4pairIhmESaIS1_EE12_Vector_implC2Ev' type='func-type' binding='weak-binding' visibility='default-visibility' is-defined='yes'/>
    <elf-symbol name='_ZNSt12_Vector_baseISt4pairIhmESaIS1_EE12_Vector_implD1Ev' type='func-type' binding='weak-binding' visibility='default-visibility' is-defined='yes'/>
    <elf-symbol name='_ZNSt12_Vector_baseISt4pairIhmESaIS1_EE12_Vector_implD2Ev' type='func-type' binding='weak-binding' visibility='default-visibility' alias='_ZNSt12_Vector_baseISt4pairIhmESaIS1_EE12_Vector_implD1Ev' is-defined='yes'/>
    <elf-symbol name='_ZNSt12_Vector_baseISt4pairIhmESaIS1_EE13_M_deallocateEPS1_m' type='func-type' binding='weak-binding' visibility='default-visibility' is-defined='yes'/>
    <elf-symbol name='_ZNSt12_Vector_baseISt4pairIhmESaIS1_EE17_Vector_impl_dataC1Ev' type='func-type' binding='weak-binding' visibility='default-visibility' alias='_ZNSt12_Vector_baseISt4pairIhmESaIS1_EE17_Vector_impl_dataC2Ev' is-defined='yes'/>
    <elf-symbol name='_ZNSt12_Vector_baseISt4pairIhmESaIS1_EE17_Vector_impl_dataC2Ev' type='func-type' binding='weak-binding' visibility='default-visibility' is-defined='yes'/>
    <elf-symbol name='_ZNSt12_Vector_baseISt4pairIhmESaIS1_EE19_M_get_Tp_allocatorEv' type='func-type' binding='weak-binding' visibility='default-visibility' is-defined='yes'/>
    <elf-symbol name='_ZNSt12_Vector_baseISt4pairIhmESaIS1_EEC1Ev' type='func-type' binding='weak-binding' visibility='default-visibility' alias='_ZNSt12_Vector_baseISt4pairIhmESaIS1_EEC2Ev' is-defined='yes'/>
    <elf-symbol name='_ZNSt12_Vector_baseISt4pairIhmESaIS1_EEC2Ev' type='func-type' binding='weak-binding' visibility='default-visibility' is-defined='yes'/>
    <elf-symbol name='_ZNSt12_Vector_baseISt4pairIhmESaIS1_EED1Ev' type='func-type' binding='weak-binding' visibility='default-visibility' is-defined='yes'/>
    <elf-symbol name='_ZNSt12_Vector_baseISt4pairIhmESaIS1_EED2Ev' type='func-type' binding='weak-binding' visibility='default-visibility' alias='_ZNSt12_Vector_baseISt4pairIhmESaIS1_EED1Ev' is-defined='yes'/>
    <elf-symbol name='_ZNSt12_Vector_baseISt4pairIjNSt7__cxx1112basic_stringIcSt11char_traitsIcESaIcEEEESaIS7_EE11_M_allocateEm' type='func-type' binding='weak-binding' visibility='default-visibility' is-defined='yes'/>
    <elf-symbol name='_ZNSt12_Vector_baseISt4pairIjNSt7__cxx1112basic_stringIcSt11char_traitsIcESaIcEEEESaIS7_EE12_Vector_implC1ERKS8_' type='func-type' binding='weak-binding' visibility='default-visibility' alias='_ZNSt12_Vector_baseISt4pairIjNSt7__cxx1112basic_stringIcSt11char_traitsIcESaIcEEEESaIS7_EE12_Vector_implC2ERKS8_' is-defined='yes'/>
    <elf-symbol name='_ZNSt12_Vector_baseISt4pairIjNSt7__cxx1112basic_stringIcSt11char_traitsIcESaIcEEEESaIS7_EE12_Vector_implC2ERKS8_' type='func-type' binding='weak-binding' visibility='default-visibility' is-defined='yes'/>
    <elf-symbol name='_ZNSt12_Vector_baseISt4pairIjNSt7__cxx1112basic_stringIcSt11char_traitsIcESaIcEEEESaIS7_EE12_Vector_implD1Ev' type='func-type' binding='weak-binding' visibility='default-visibility' is-defined='yes'/>
    <elf-symbol name='_ZNSt12_Vector_baseISt4pairIjNSt7__cxx1112basic_stringIcSt11char_traitsIcESaIcEEEESaIS7_EE12_Vector_implD2Ev' type='func-type' binding='weak-binding' visibility='default-visibility' alias='_ZNSt12_Vector_baseISt4pairIjNSt7__cxx1112basic_stringIcSt11char_traitsIcESaIcEEEESaIS7_EE12_Vector_implD1Ev' is-defined='yes'/>
    <elf-symbol name='_ZNSt12_Vector_baseISt4pairIjNSt7__cxx1112basic_stringIcSt11char_traitsIcESaIcEEEESaIS7_EE13_M_deallocateEPS7_m' type='func-type' binding='weak-binding' visibility='default-visibility' is-defined='yes'/>
    <elf-symbol name='_ZNSt12_Vector_baseISt4pairIjNSt7__cxx1112basic_stringIcSt11char_traitsIcESaIcEEEESaIS7_EE17_Vector_impl_dataC1Ev' type='func-type' binding='weak-binding' visibility='default-visibility' alias='_ZNSt12_Vector_baseISt4pairIjNSt7__cxx1112basic_stringIcSt11char_traitsIcESaIcEEEESaIS7_EE17_Vector_impl_dataC2Ev' is-defined='yes'/>
    <elf-symbol name='_ZNSt12_Vector_baseISt4pairIjNSt7__cxx1112basic_stringIcSt11char_traitsIcESaIcEEEESaIS7_EE17_Vector_impl_dataC2Ev' type='func-type' binding='weak-binding' visibility='default-visibility' is-defined='yes'/>
    <elf-symbol name='_ZNSt12_Vector_baseISt4pairIjNSt7__cxx1112basic_stringIcSt11char_traitsIcESaIcEEEESaIS7_EE19_M_get_Tp_allocatorEv' type='func-type' binding='weak-binding' visibility='default-visibility' is-defined='yes'/>
    <elf-symbol name='_ZNSt12_Vector_baseISt4pairIjNSt7__cxx1112basic_stringIcSt11char_traitsIcESaIcEEEESaIS7_EEC1ERKS8_' type='func-type' binding='weak-binding' visibility='default-visibility' alias='_ZNSt12_Vector_baseISt4pairIjNSt7__cxx1112basic_stringIcSt11char_traitsIcESaIcEEEESaIS7_EEC2ERKS8_' is-defined='yes'/>
    <elf-symbol name='_ZNSt12_Vector_baseISt4pairIjNSt7__cxx1112basic_stringIcSt11char_traitsIcESaIcEEEESaIS7_EEC2ERKS8_' type='func-type' binding='weak-binding' visibility='default-visibility' is-defined='yes'/>
    <elf-symbol name='_ZNSt12_Vector_baseISt4pairIjNSt7__cxx1112basic_stringIcSt11char_traitsIcESaIcEEEESaIS7_EED1Ev' type='func-type' binding='weak-binding' visibility='default-visibility' is-defined='yes'/>
    <elf-symbol name='_ZNSt12_Vector_baseISt4pairIjNSt7__cxx1112basic_stringIcSt11char_traitsIcESaIcEEEESaIS7_EED2Ev' type='func-type' binding='weak-binding' visibility='default-visibility' alias='_ZNSt12_Vector_baseISt4pairIjNSt7__cxx1112basic_stringIcSt11char_traitsIcESaIcEEEESaIS7_EED1Ev' is-defined='yes'/>
    <elf-symbol name='_ZNSt12__mutex_baseC1Ev' type='func-type' binding='weak-binding' visibility='default-visibility' alias='_ZNSt12__mutex_baseC2Ev' is-defined='yes'/>
    <elf-symbol name='_ZNSt12__mutex_baseC2Ev' type='func-type' binding='weak-binding' visibility='default-visibility' is-defined='yes'/>
    <elf-symbol name='_ZNSt12__shared_ptrIKN8usbguard4RuleELN9__gnu_cxx12_Lock_policyE2EEC1EOS5_' type='func-type' binding='weak-binding' visibility='default-visibility' is-defined='yes'/>
    <elf-symbol name='_ZNSt12__shared_ptrIKN8usbguard4RuleELN9__gnu_cxx12_Lock_policyE2EEC1ERKS5_' type='func-type' binding='weak-binding' visibility='default-visibility' alias='_ZNSt12__shared_ptrIKN8usbguard4RuleELN9__gnu_cxx12_Lock_policyE2EEC2ERKS5_' is-defined='yes'/>
    <elf-symbol name='_ZNSt12__shared_ptrIKN8usbguard4RuleELN9__gnu_cxx12_Lock_policyE2EEC1IS1_vEEOS_IT_LS4_2EE' type='func-type' binding='weak-binding' visibility='default-visibility' is-defined='yes'/>
    <elf-symbol name='_ZNSt12__shared_ptrIKN8usbguard4RuleELN9__gnu_cxx12_Lock_policyE2EEC1IS1_vEERKS_IT_LS4_2EE' type='func-type' binding='weak-binding' visibility='default-visibility' is-defined='yes'/>
    <elf-symbol name='_ZNSt12__shared_ptrIKN8usbguard4RuleELN9__gnu_cxx12_Lock_policyE2EEC2EOS5_' type='func-type' binding='weak-binding' visibility='default-visibility' alias='_ZNSt12__shared_ptrIKN8usbguard4RuleELN9__gnu_cxx12_Lock_policyE2EEC1EOS5_' is-defined='yes'/>
    <elf-symbol name='_ZNSt12__shared_ptrIKN8usbguard4RuleELN9__gnu_cxx12_Lock_policyE2EEC2ERKS5_' type='func-type' binding='weak-binding' visibility='default-visibility' is-defined='yes'/>
    <elf-symbol name='_ZNSt12__shared_ptrIKN8usbguard4RuleELN9__gnu_cxx12_Lock_policyE2EEC2IS1_vEEOS_IT_LS4_2EE' type='func-type' binding='weak-binding' visibility='default-visibility' alias='_ZNSt12__shared_ptrIKN8usbguard4RuleELN9__gnu_cxx12_Lock_policyE2EEC1IS1_vEEOS_IT_LS4_2EE' is-defined='yes'/>
    <elf-symbol name='_ZNSt12__shared_ptrIKN8usbguard4RuleELN9__gnu_cxx12_Lock_policyE2EEC2IS1_vEERKS_IT_LS4_2EE' type='func-type' binding='weak-binding' visibility='default-visibility' alias='_ZNSt12__shared_ptrIKN8usbguard4RuleELN9__gnu_cxx12_Lock_policyE2EEC1IS1_vEERKS_IT_LS4_2EE' is-defined='yes'/>
    <elf-symbol name='_ZNSt12__shared_ptrIKN8usbguard4RuleELN9__gnu_cxx12_Lock_policyE2EED1Ev' type='func-type' binding='weak-binding' visibility='default-visibility' alias='_ZNSt12__shared_ptrIKN8usbguard4RuleELN9__gnu_cxx12_Lock_policyE2EED2Ev' is-defined='yes'/>
    <elf-symbol name='_ZNSt12__shared_ptrIKN8usbguard4RuleELN9__gnu_cxx12_Lock_policyE2EED2Ev' type='func-type' binding='weak-binding' visibility='default-visibility' is-defined='yes'/>
    <elf-symbol name='_ZNSt12__shared_ptrIN8usbguard12AuditBackendELN9__gnu_cxx12_Lock_policyE2EE31_M_enable_shared_from_this_withIS1_S1_EENSt9enable_ifIXntsrNS4_15__has_esft_baseIT0_vEE5valueEvE4typeEPT_' type='func-type' binding='weak-binding' visibility='default-visibility' is-defined='yes'/>
    <elf-symbol name='_ZNSt12__shared_ptrIN8usbguard12AuditBackendELN9__gnu_cxx12_Lock_policyE2EE4swapERS4_' type='func-type' binding='weak-binding' visibility='default-visibility' is-defined='yes'/>
    <elf-symbol name='_ZNSt12__shared_ptrIN8usbguard12AuditBackendELN9__gnu_cxx12_Lock_policyE2EEC1EOS4_' type='func-type' binding='weak-binding' visibility='default-visibility' is-defined='yes'/>
    <elf-symbol name='_ZNSt12__shared_ptrIN8usbguard12AuditBackendELN9__gnu_cxx12_Lock_policyE2EEC1Ev' type='func-type' binding='weak-binding' visibility='default-visibility' is-defined='yes'/>
    <elf-symbol name='_ZNSt12__shared_ptrIN8usbguard12AuditBackendELN9__gnu_cxx12_Lock_policyE2EEC1IS1_St14default_deleteIS1_EvEEOSt10unique_ptrIT_T0_E' type='func-type' binding='weak-binding' visibility='default-visibility' is-defined='yes'/>
    <elf-symbol name='_ZNSt12__shared_ptrIN8usbguard12AuditBackendELN9__gnu_cxx12_Lock_policyE2EEC2EOS4_' type='func-type' binding='weak-binding' visibility='default-visibility' alias='_ZNSt12__shared_ptrIN8usbguard12AuditBackendELN9__gnu_cxx12_Lock_policyE2EEC1EOS4_' is-defined='yes'/>
    <elf-symbol name='_ZNSt12__shared_ptrIN8usbguard12AuditBackendELN9__gnu_cxx12_Lock_policyE2EEC2Ev' type='func-type' binding='weak-binding' visibility='default-visibility' alias='_ZNSt12__shared_ptrIN8usbguard12AuditBackendELN9__gnu_cxx12_Lock_policyE2EEC1Ev' is-defined='yes'/>
    <elf-symbol name='_ZNSt12__shared_ptrIN8usbguard12AuditBackendELN9__gnu_cxx12_Lock_policyE2EEC2IS1_St14default_deleteIS1_EvEEOSt10unique_ptrIT_T0_E' type='func-type' binding='weak-binding' visibility='default-visibility' alias='_ZNSt12__shared_ptrIN8usbguard12AuditBackendELN9__gnu_cxx12_Lock_policyE2EEC1IS1_St14default_deleteIS1_EvEEOSt10unique_ptrIT_T0_E' is-defined='yes'/>
    <elf-symbol name='_ZNSt12__shared_ptrIN8usbguard12AuditBackendELN9__gnu_cxx12_Lock_policyE2EEaSEOS4_' type='func-type' binding='weak-binding' visibility='default-visibility' is-defined='yes'/>
    <elf-symbol name='_ZNSt12__shared_ptrIN8usbguard13DeviceManagerELN9__gnu_cxx12_Lock_policyE2EEC1INS0_19UEventDeviceManagerEvEEOS_IT_LS3_2EE' type='func-type' binding='weak-binding' visibility='default-visibility' alias='_ZNSt12__shared_ptrIN8usbguard13DeviceManagerELN9__gnu_cxx12_Lock_policyE2EEC2INS0_19UEventDeviceManagerEvEEOS_IT_LS3_2EE' is-defined='yes'/>
    <elf-symbol name='_ZNSt12__shared_ptrIN8usbguard13DeviceManagerELN9__gnu_cxx12_Lock_policyE2EEC1INS0_21UMockdevDeviceManagerEvEEOS_IT_LS3_2EE' type='func-type' binding='weak-binding' visibility='default-visibility' alias='_ZNSt12__shared_ptrIN8usbguard13DeviceManagerELN9__gnu_cxx12_Lock_policyE2EEC2INS0_21UMockdevDeviceManagerEvEEOS_IT_LS3_2EE' is-defined='yes'/>
    <elf-symbol name='_ZNSt12__shared_ptrIN8usbguard13DeviceManagerELN9__gnu_cxx12_Lock_policyE2EEC2INS0_19UEventDeviceManagerEvEEOS_IT_LS3_2EE' type='func-type' binding='weak-binding' visibility='default-visibility' is-defined='yes'/>
    <elf-symbol name='_ZNSt12__shared_ptrIN8usbguard13DeviceManagerELN9__gnu_cxx12_Lock_policyE2EEC2INS0_21UMockdevDeviceManagerEvEEOS_IT_LS3_2EE' type='func-type' binding='weak-binding' visibility='default-visibility' is-defined='yes'/>
    <elf-symbol name='_ZNSt12__shared_ptrIN8usbguard4RuleELN9__gnu_cxx12_Lock_policyE2EE31_M_enable_shared_from_this_withIS1_S1_EENSt9enable_ifIXntsrNS4_15__has_esft_baseIT0_vEE5valueEvE4typeEPT_' type='func-type' binding='weak-binding' visibility='default-visibility' is-defined='yes'/>
    <elf-symbol name='_ZNSt12__shared_ptrIN8usbguard4RuleELN9__gnu_cxx12_Lock_policyE2EE4swapERS4_' type='func-type' binding='weak-binding' visibility='default-visibility' is-defined='yes'/>
    <elf-symbol name='_ZNSt12__shared_ptrIN8usbguard4RuleELN9__gnu_cxx12_Lock_policyE2EEC1EOS4_' type='func-type' binding='weak-binding' visibility='default-visibility' is-defined='yes'/>
    <elf-symbol name='_ZNSt12__shared_ptrIN8usbguard4RuleELN9__gnu_cxx12_Lock_policyE2EEC1ERKS4_' type='func-type' binding='weak-binding' visibility='default-visibility' alias='_ZNSt12__shared_ptrIN8usbguard4RuleELN9__gnu_cxx12_Lock_policyE2EEC2ERKS4_' is-defined='yes'/>
    <elf-symbol name='_ZNSt12__shared_ptrIN8usbguard4RuleELN9__gnu_cxx12_Lock_policyE2EEC1ISaIvEJEEESt20_Sp_alloc_shared_tagIT_EDpOT0_' type='func-type' binding='weak-binding' visibility='default-visibility' alias='_ZNSt12__shared_ptrIN8usbguard4RuleELN9__gnu_cxx12_Lock_policyE2EEC2ISaIvEJEEESt20_Sp_alloc_shared_tagIT_EDpOT0_' is-defined='yes'/>
    <elf-symbol name='_ZNSt12__shared_ptrIN8usbguard4RuleELN9__gnu_cxx12_Lock_policyE2EEC1ISaIvEJRKS1_EEESt20_Sp_alloc_shared_tagIT_EDpOT0_' type='func-type' binding='weak-binding' visibility='default-visibility' is-defined='yes'/>
    <elf-symbol name='_ZNSt12__shared_ptrIN8usbguard4RuleELN9__gnu_cxx12_Lock_policyE2EEC2EOS4_' type='func-type' binding='weak-binding' visibility='default-visibility' alias='_ZNSt12__shared_ptrIN8usbguard4RuleELN9__gnu_cxx12_Lock_policyE2EEC1EOS4_' is-defined='yes'/>
    <elf-symbol name='_ZNSt12__shared_ptrIN8usbguard4RuleELN9__gnu_cxx12_Lock_policyE2EEC2ERKS4_' type='func-type' binding='weak-binding' visibility='default-visibility' is-defined='yes'/>
    <elf-symbol name='_ZNSt12__shared_ptrIN8usbguard4RuleELN9__gnu_cxx12_Lock_policyE2EEC2ISaIvEJEEESt20_Sp_alloc_shared_tagIT_EDpOT0_' type='func-type' binding='weak-binding' visibility='default-visibility' is-defined='yes'/>
    <elf-symbol name='_ZNSt12__shared_ptrIN8usbguard4RuleELN9__gnu_cxx12_Lock_policyE2EEC2ISaIvEJRKS1_EEESt20_Sp_alloc_shared_tagIT_EDpOT0_' type='func-type' binding='weak-binding' visibility='default-visibility' alias='_ZNSt12__shared_ptrIN8usbguard4RuleELN9__gnu_cxx12_Lock_policyE2EEC1ISaIvEJRKS1_EEESt20_Sp_alloc_shared_tagIT_EDpOT0_' is-defined='yes'/>
    <elf-symbol name='_ZNSt12__shared_ptrIN8usbguard4RuleELN9__gnu_cxx12_Lock_policyE2EED1Ev' type='func-type' binding='weak-binding' visibility='default-visibility' is-defined='yes'/>
    <elf-symbol name='_ZNSt12__shared_ptrIN8usbguard4RuleELN9__gnu_cxx12_Lock_policyE2EED2Ev' type='func-type' binding='weak-binding' visibility='default-visibility' alias='_ZNSt12__shared_ptrIN8usbguard4RuleELN9__gnu_cxx12_Lock_policyE2EED1Ev' is-defined='yes'/>
    <elf-symbol name='_ZNSt12__shared_ptrIN8usbguard4RuleELN9__gnu_cxx12_Lock_policyE2EEaSEOS4_' type='func-type' binding='weak-binding' visibility='default-visibility' is-defined='yes'/>
    <elf-symbol name='_ZNSt12__shared_ptrIN8usbguard4RuleELN9__gnu_cxx12_Lock_policyE2EEaSERKS4_' type='func-type' binding='weak-binding' visibility='default-visibility' is-defined='yes'/>
    <elf-symbol name='_ZNSt12__shared_ptrIN8usbguard6DeviceELN9__gnu_cxx12_Lock_policyE2EEC1EOS4_' type='func-type' binding='weak-binding' visibility='default-visibility' alias='_ZNSt12__shared_ptrIN8usbguard6DeviceELN9__gnu_cxx12_Lock_policyE2EEC2EOS4_' is-defined='yes'/>
    <elf-symbol name='_ZNSt12__shared_ptrIN8usbguard6DeviceELN9__gnu_cxx12_Lock_policyE2EEC1ERKS4_' type='func-type' binding='weak-binding' visibility='default-visibility' alias='_ZNSt12__shared_ptrIN8usbguard6DeviceELN9__gnu_cxx12_Lock_policyE2EEC2ERKS4_' is-defined='yes'/>
    <elf-symbol name='_ZNSt12__shared_ptrIN8usbguard6DeviceELN9__gnu_cxx12_Lock_policyE2EEC1Ev' type='func-type' binding='weak-binding' visibility='default-visibility' alias='_ZNSt12__shared_ptrIN8usbguard6DeviceELN9__gnu_cxx12_Lock_policyE2EEC2Ev' is-defined='yes'/>
    <elf-symbol name='_ZNSt12__shared_ptrIN8usbguard6DeviceELN9__gnu_cxx12_Lock_policyE2EEC1INS0_10DeviceBaseEEERKS_IT_LS3_2EEPS1_' type='func-type' binding='weak-binding' visibility='default-visibility' alias='_ZNSt12__shared_ptrIN8usbguard6DeviceELN9__gnu_cxx12_Lock_policyE2EEC2INS0_10DeviceBaseEEERKS_IT_LS3_2EEPS1_' is-defined='yes'/>
    <elf-symbol name='_ZNSt12__shared_ptrIN8usbguard6DeviceELN9__gnu_cxx12_Lock_policyE2EEC1INS0_10DeviceBaseEvEEOS_IT_LS3_2EE' type='func-type' binding='weak-binding' visibility='default-visibility' is-defined='yes'/>
    <elf-symbol name='_ZNSt12__shared_ptrIN8usbguard6DeviceELN9__gnu_cxx12_Lock_policyE2EEC1INS0_10DeviceBaseEvEERKS_IT_LS3_2EE' type='func-type' binding='weak-binding' visibility='default-visibility' alias='_ZNSt12__shared_ptrIN8usbguard6DeviceELN9__gnu_cxx12_Lock_policyE2EEC2INS0_10DeviceBaseEvEERKS_IT_LS3_2EE' is-defined='yes'/>
    <elf-symbol name='_ZNSt12__shared_ptrIN8usbguard6DeviceELN9__gnu_cxx12_Lock_policyE2EEC2EOS4_' type='func-type' binding='weak-binding' visibility='default-visibility' is-defined='yes'/>
    <elf-symbol name='_ZNSt12__shared_ptrIN8usbguard6DeviceELN9__gnu_cxx12_Lock_policyE2EEC2ERKS4_' type='func-type' binding='weak-binding' visibility='default-visibility' is-defined='yes'/>
    <elf-symbol name='_ZNSt12__shared_ptrIN8usbguard6DeviceELN9__gnu_cxx12_Lock_policyE2EEC2Ev' type='func-type' binding='weak-binding' visibility='default-visibility' is-defined='yes'/>
    <elf-symbol name='_ZNSt12__shared_ptrIN8usbguard6DeviceELN9__gnu_cxx12_Lock_policyE2EEC2INS0_10DeviceBaseEEERKS_IT_LS3_2EEPS1_' type='func-type' binding='weak-binding' visibility='default-visibility' is-defined='yes'/>
    <elf-symbol name='_ZNSt12__shared_ptrIN8usbguard6DeviceELN9__gnu_cxx12_Lock_policyE2EEC2INS0_10DeviceBaseEvEEOS_IT_LS3_2EE' type='func-type' binding='weak-binding' visibility='default-visibility' alias='_ZNSt12__shared_ptrIN8usbguard6DeviceELN9__gnu_cxx12_Lock_policyE2EEC1INS0_10DeviceBaseEvEEOS_IT_LS3_2EE' is-defined='yes'/>
    <elf-symbol name='_ZNSt12__shared_ptrIN8usbguard6DeviceELN9__gnu_cxx12_Lock_policyE2EEC2INS0_10DeviceBaseEvEERKS_IT_LS3_2EE' type='func-type' binding='weak-binding' visibility='default-visibility' is-defined='yes'/>
    <elf-symbol name='_ZNSt12__shared_ptrIN8usbguard6DeviceELN9__gnu_cxx12_Lock_policyE2EED1Ev' type='func-type' binding='weak-binding' visibility='default-visibility' alias='_ZNSt12__shared_ptrIN8usbguard6DeviceELN9__gnu_cxx12_Lock_policyE2EED2Ev' is-defined='yes'/>
    <elf-symbol name='_ZNSt12__shared_ptrIN8usbguard6DeviceELN9__gnu_cxx12_Lock_policyE2EED2Ev' type='func-type' binding='weak-binding' visibility='default-visibility' is-defined='yes'/>
    <elf-symbol name='_ZNSt12__shared_ptrIN8usbguard6DeviceELN9__gnu_cxx12_Lock_policyE2EEaSERKS4_' type='func-type' binding='weak-binding' visibility='default-visibility' is-defined='yes'/>
    <elf-symbol name='_ZNSt12__shared_ptrIN8usbguard7RuleSetELN9__gnu_cxx12_Lock_policyE2EEC1ERKS4_' type='func-type' binding='weak-binding' visibility='default-visibility' alias='_ZNSt12__shared_ptrIN8usbguard7RuleSetELN9__gnu_cxx12_Lock_policyE2EEC2ERKS4_' is-defined='yes'/>
    <elf-symbol name='_ZNSt12__shared_ptrIN8usbguard7RuleSetELN9__gnu_cxx12_Lock_policyE2EEC2ERKS4_' type='func-type' binding='weak-binding' visibility='default-visibility' is-defined='yes'/>
    <elf-symbol name='_ZNSt12__shared_ptrIN8usbguard7RuleSetELN9__gnu_cxx12_Lock_policyE2EED1Ev' type='func-type' binding='weak-binding' visibility='default-visibility' alias='_ZNSt12__shared_ptrIN8usbguard7RuleSetELN9__gnu_cxx12_Lock_policyE2EED2Ev' is-defined='yes'/>
    <elf-symbol name='_ZNSt12__shared_ptrIN8usbguard7RuleSetELN9__gnu_cxx12_Lock_policyE2EED2Ev' type='func-type' binding='weak-binding' visibility='default-visibility' is-defined='yes'/>
    <elf-symbol name='_ZNSt12__shared_ptrIN8usbguard7RuleSetELN9__gnu_cxx12_Lock_policyE2EEaSERKS4_' type='func-type' binding='weak-binding' visibility='default-visibility' is-defined='yes'/>
    <elf-symbol name='_ZNSt12__shared_ptrINSt13__future_base13_State_baseV2ELN9__gnu_cxx12_Lock_policyE2EE31_M_enable_shared_from_this_withIS1_S1_EENSt9enable_ifIXntsrNS4_15__has_esft_baseIT0_vEE5valueEvE4typeEPT_' type='func-type' binding='weak-binding' visibility='default-visibility' is-defined='yes'/>
    <elf-symbol name='_ZNSt12__shared_ptrINSt13__future_base13_State_baseV2ELN9__gnu_cxx12_Lock_policyE2EE4swapERS4_' type='func-type' binding='weak-binding' visibility='default-visibility' is-defined='yes'/>
    <elf-symbol name='_ZNSt12__shared_ptrINSt13__future_base13_State_baseV2ELN9__gnu_cxx12_Lock_policyE2EE5resetEv' type='func-type' binding='weak-binding' visibility='default-visibility' is-defined='yes'/>
    <elf-symbol name='_ZNSt12__shared_ptrINSt13__future_base13_State_baseV2ELN9__gnu_cxx12_Lock_policyE2EEC1ERKS4_' type='func-type' binding='weak-binding' visibility='default-visibility' alias='_ZNSt12__shared_ptrINSt13__future_base13_State_baseV2ELN9__gnu_cxx12_Lock_policyE2EEC2ERKS4_' is-defined='yes'/>
    <elf-symbol name='_ZNSt12__shared_ptrINSt13__future_base13_State_baseV2ELN9__gnu_cxx12_Lock_policyE2EEC1Ev' type='func-type' binding='weak-binding' visibility='default-visibility' alias='_ZNSt12__shared_ptrINSt13__future_base13_State_baseV2ELN9__gnu_cxx12_Lock_policyE2EEC2Ev' is-defined='yes'/>
    <elf-symbol name='_ZNSt12__shared_ptrINSt13__future_base13_State_baseV2ELN9__gnu_cxx12_Lock_policyE2EEC1ISaIvEJEEESt20_Sp_alloc_shared_tagIT_EDpOT0_' type='func-type' binding='weak-binding' visibility='default-visibility' is-defined='yes'/>
    <elf-symbol name='_ZNSt12__shared_ptrINSt13__future_base13_State_baseV2ELN9__gnu_cxx12_Lock_policyE2EEC2ERKS4_' type='func-type' binding='weak-binding' visibility='default-visibility' is-defined='yes'/>
    <elf-symbol name='_ZNSt12__shared_ptrINSt13__future_base13_State_baseV2ELN9__gnu_cxx12_Lock_policyE2EEC2Ev' type='func-type' binding='weak-binding' visibility='default-visibility' is-defined='yes'/>
    <elf-symbol name='_ZNSt12__shared_ptrINSt13__future_base13_State_baseV2ELN9__gnu_cxx12_Lock_policyE2EEC2ISaIvEJEEESt20_Sp_alloc_shared_tagIT_EDpOT0_' type='func-type' binding='weak-binding' visibility='default-visibility' alias='_ZNSt12__shared_ptrINSt13__future_base13_State_baseV2ELN9__gnu_cxx12_Lock_policyE2EEC1ISaIvEJEEESt20_Sp_alloc_shared_tagIT_EDpOT0_' is-defined='yes'/>
    <elf-symbol name='_ZNSt12__shared_ptrINSt13__future_base13_State_baseV2ELN9__gnu_cxx12_Lock_policyE2EED1Ev' type='func-type' binding='weak-binding' visibility='default-visibility' alias='_ZNSt12__shared_ptrINSt13__future_base13_State_baseV2ELN9__gnu_cxx12_Lock_policyE2EED2Ev' is-defined='yes'/>
    <elf-symbol name='_ZNSt12__shared_ptrINSt13__future_base13_State_baseV2ELN9__gnu_cxx12_Lock_policyE2EED2Ev' type='func-type' binding='weak-binding' visibility='default-visibility' is-defined='yes'/>
    <elf-symbol name='_ZNSt12__weak_countILN9__gnu_cxx12_Lock_policyE2EEC1ERKS2_' type='func-type' binding='weak-binding' visibility='default-visibility' alias='_ZNSt12__weak_countILN9__gnu_cxx12_Lock_policyE2EEC2ERKS2_' is-defined='yes'/>
    <elf-symbol name='_ZNSt12__weak_countILN9__gnu_cxx12_Lock_policyE2EEC1ERKSt14__shared_countILS1_2EE' type='func-type' binding='weak-binding' visibility='default-visibility' alias='_ZNSt12__weak_countILN9__gnu_cxx12_Lock_policyE2EEC2ERKSt14__shared_countILS1_2EE' is-defined='yes'/>
    <elf-symbol name='_ZNSt12__weak_countILN9__gnu_cxx12_Lock_policyE2EEC2ERKS2_' type='func-type' binding='weak-binding' visibility='default-visibility' is-defined='yes'/>
    <elf-symbol name='_ZNSt12__weak_countILN9__gnu_cxx12_Lock_policyE2EEC2ERKSt14__shared_countILS1_2EE' type='func-type' binding='weak-binding' visibility='default-visibility' is-defined='yes'/>
    <elf-symbol name='_ZNSt12__weak_countILN9__gnu_cxx12_Lock_policyE2EED1Ev' type='func-type' binding='weak-binding' visibility='default-visibility' alias='_ZNSt12__weak_countILN9__gnu_cxx12_Lock_policyE2EED2Ev' is-defined='yes'/>
    <elf-symbol name='_ZNSt12__weak_countILN9__gnu_cxx12_Lock_policyE2EED2Ev' type='func-type' binding='weak-binding' visibility='default-visibility' is-defined='yes'/>
    <elf-symbol name='_ZNSt12future_errorC1ERKS_' type='func-type' binding='weak-binding' visibility='default-visibility' is-defined='yes'/>
    <elf-symbol name='_ZNSt12future_errorC1ESt10error_code' type='func-type' binding='weak-binding' visibility='default-visibility' is-defined='yes'/>
    <elf-symbol name='_ZNSt12future_errorC1ESt11future_errc' type='func-type' binding='weak-binding' visibility='default-visibility' is-defined='yes'/>
    <elf-symbol name='_ZNSt12future_errorC2ERKS_' type='func-type' binding='weak-binding' visibility='default-visibility' alias='_ZNSt12future_errorC1ERKS_' is-defined='yes'/>
    <elf-symbol name='_ZNSt12future_errorC2ESt10error_code' type='func-type' binding='weak-binding' visibility='default-visibility' alias='_ZNSt12future_errorC1ESt10error_code' is-defined='yes'/>
    <elf-symbol name='_ZNSt12future_errorC2ESt11future_errc' type='func-type' binding='weak-binding' visibility='default-visibility' alias='_ZNSt12future_errorC1ESt11future_errc' is-defined='yes'/>
    <elf-symbol name='_ZNSt13_Rb_tree_nodeISt4pairIKNSt7__cxx1112basic_stringIcSt11char_traitsIcESaIcEEES6_EE9_M_valptrEv' type='func-type' binding='weak-binding' visibility='default-visibility' is-defined='yes'/>
    <elf-symbol name='_ZNSt13_Rb_tree_nodeISt4pairIKNSt7__cxx1112basic_stringIcSt11char_traitsIcESaIcEEESt10unique_ptrIN8usbguard7LogSinkESt14default_deleteISA_EEEE9_M_valptrEv' type='func-type' binding='weak-binding' visibility='default-visibility' is-defined='yes'/>
    <elf-symbol name='_ZNSt13_Rb_tree_nodeISt4pairIKNSt7__cxx1112basic_stringIcSt11char_traitsIcESaIcEEEjEE9_M_valptrEv' type='func-type' binding='weak-binding' visibility='default-visibility' is-defined='yes'/>
    <elf-symbol name='_ZNSt13_Rb_tree_nodeISt4pairIKjSt10shared_ptrIN8usbguard6DeviceEEEE9_M_valptrEv' type='func-type' binding='weak-binding' visibility='default-visibility' is-defined='yes'/>
    <elf-symbol name='_ZNSt13__atomic_baseIbEC1Eb' type='func-type' binding='weak-binding' visibility='default-visibility' alias='_ZNSt13__atomic_baseIbEC2Eb' is-defined='yes'/>
    <elf-symbol name='_ZNSt13__atomic_baseIbEC2Eb' type='func-type' binding='weak-binding' visibility='default-visibility' is-defined='yes'/>
    <elf-symbol name='_ZNSt13__atomic_baseIbEaSEb' type='func-type' binding='weak-binding' visibility='default-visibility' is-defined='yes'/>
    <elf-symbol name='_ZNSt13__atomic_baseIiEC1Ei' type='func-type' binding='weak-binding' visibility='default-visibility' alias='_ZNSt13__atomic_baseIiEC2Ei' is-defined='yes'/>
    <elf-symbol name='_ZNSt13__atomic_baseIiEC2Ei' type='func-type' binding='weak-binding' visibility='default-visibility' is-defined='yes'/>
    <elf-symbol name='_ZNSt13__atomic_baseIjEC1Ej' type='func-type' binding='weak-binding' visibility='default-visibility' is-defined='yes'/>
    <elf-symbol name='_ZNSt13__atomic_baseIjEC2Ej' type='func-type' binding='weak-binding' visibility='default-visibility' alias='_ZNSt13__atomic_baseIjEC1Ej' is-defined='yes'/>
    <elf-symbol name='_ZNSt13__atomic_baseIjEaSEj' type='func-type' binding='weak-binding' visibility='default-visibility' is-defined='yes'/>
    <elf-symbol name='_ZNSt13__atomic_baseImEppEi' type='func-type' binding='weak-binding' visibility='default-visibility' is-defined='yes'/>
    <elf-symbol name='_ZNSt13__future_base13_State_baseV213_M_set_resultESt8functionIFSt10unique_ptrINS_12_Result_baseENS3_8_DeleterEEvEEb' type='func-type' binding='weak-binding' visibility='default-visibility' is-defined='yes'/>
    <elf-symbol name='_ZNSt13__future_base13_State_baseV216_M_break_promiseESt10unique_ptrINS_12_Result_baseENS2_8_DeleterEE' type='func-type' binding='weak-binding' visibility='default-visibility' is-defined='yes'/>
    <elf-symbol name='_ZNSt13__future_base13_State_baseV217_M_complete_asyncEv' type='func-type' binding='weak-binding' visibility='default-visibility' is-defined='yes'/>
    <elf-symbol name='_ZNSt13__future_base13_State_baseV221_M_set_retrieved_flagEv' type='func-type' binding='weak-binding' visibility='default-visibility' is-defined='yes'/>
    <elf-symbol name='_ZNSt13__future_base13_State_baseV24waitEv' type='func-type' binding='weak-binding' visibility='default-visibility' is-defined='yes'/>
    <elf-symbol name='_ZNSt13__future_base13_State_baseV28_S_checkIS0_EEvRKSt10shared_ptrIT_E' type='func-type' binding='weak-binding' visibility='default-visibility' is-defined='yes'/>
    <elf-symbol name='_ZNSt13__future_base13_State_baseV28wait_forIlSt5ratioILl1ELl1000EEEESt13future_statusRKNSt6chrono8durationIT_T0_EE' type='func-type' binding='weak-binding' visibility='default-visibility' is-defined='yes'/>
    <elf-symbol name='_ZNSt13__future_base13_State_baseV29_M_do_setEPSt8functionIFSt10unique_ptrINS_12_Result_baseENS3_8_DeleterEEvEEPb' type='func-type' binding='weak-binding' visibility='default-visibility' is-defined='yes'/>
    <elf-symbol name='_ZNSt13__future_base13_State_baseV2C1Ev' type='func-type' binding='weak-binding' visibility='default-visibility' is-defined='yes'/>
    <elf-symbol name='_ZNSt13__future_base13_State_baseV2C2Ev' type='func-type' binding='weak-binding' visibility='default-visibility' alias='_ZNSt13__future_base13_State_baseV2C1Ev' is-defined='yes'/>
    <elf-symbol name='_ZNSt13__future_base13_State_baseV2D0Ev' type='func-type' binding='weak-binding' visibility='default-visibility' is-defined='yes'/>
    <elf-symbol name='_ZNSt13__future_base13_State_baseV2D1Ev' type='func-type' binding='weak-binding' visibility='default-visibility' alias='_ZNSt13__future_base13_State_baseV2D2Ev' is-defined='yes'/>
    <elf-symbol name='_ZNSt13__future_base13_State_baseV2D2Ev' type='func-type' binding='weak-binding' visibility='default-visibility' is-defined='yes'/>
    <elf-symbol name='_ZNSt13__future_base7_ResultISt10unique_ptrIN6google8protobuf7MessageESt14default_deleteIS4_EEE10_M_destroyEv' type='func-type' binding='weak-binding' visibility='default-visibility' is-defined='yes'/>
    <elf-symbol name='_ZNSt13__future_base7_ResultISt10unique_ptrIN6google8protobuf7MessageESt14default_deleteIS4_EEE6_M_setEOS7_' type='func-type' binding='weak-binding' visibility='default-visibility' is-defined='yes'/>
    <elf-symbol name='_ZNSt13__future_base7_ResultISt10unique_ptrIN6google8protobuf7MessageESt14default_deleteIS4_EEE8_M_valueEv' type='func-type' binding='weak-binding' visibility='default-visibility' is-defined='yes'/>
    <elf-symbol name='_ZNSt13__future_base7_ResultISt10unique_ptrIN6google8protobuf7MessageESt14default_deleteIS4_EEEC1Ev' type='func-type' binding='weak-binding' visibility='default-visibility' alias='_ZNSt13__future_base7_ResultISt10unique_ptrIN6google8protobuf7MessageESt14default_deleteIS4_EEEC2Ev' is-defined='yes'/>
    <elf-symbol name='_ZNSt13__future_base7_ResultISt10unique_ptrIN6google8protobuf7MessageESt14default_deleteIS4_EEEC2Ev' type='func-type' binding='weak-binding' visibility='default-visibility' is-defined='yes'/>
    <elf-symbol name='_ZNSt13__future_base7_ResultISt10unique_ptrIN6google8protobuf7MessageESt14default_deleteIS4_EEED0Ev' type='func-type' binding='weak-binding' visibility='default-visibility' is-defined='yes'/>
    <elf-symbol name='_ZNSt13__future_base7_ResultISt10unique_ptrIN6google8protobuf7MessageESt14default_deleteIS4_EEED1Ev' type='func-type' binding='weak-binding' visibility='default-visibility' alias='_ZNSt13__future_base7_ResultISt10unique_ptrIN6google8protobuf7MessageESt14default_deleteIS4_EEED2Ev' is-defined='yes'/>
    <elf-symbol name='_ZNSt13__future_base7_ResultISt10unique_ptrIN6google8protobuf7MessageESt14default_deleteIS4_EEED2Ev' type='func-type' binding='weak-binding' visibility='default-visibility' is-defined='yes'/>
    <elf-symbol name='_ZNSt13random_deviceC1Ev' type='func-type' binding='weak-binding' visibility='default-visibility' alias='_ZNSt13random_deviceC2Ev' is-defined='yes'/>
    <elf-symbol name='_ZNSt13random_deviceC2Ev' type='func-type' binding='weak-binding' visibility='default-visibility' is-defined='yes'/>
    <elf-symbol name='_ZNSt13random_deviceD1Ev' type='func-type' binding='weak-binding' visibility='default-visibility' alias='_ZNSt13random_deviceD2Ev' is-defined='yes'/>
    <elf-symbol name='_ZNSt13random_deviceD2Ev' type='func-type' binding='weak-binding' visibility='default-visibility' is-defined='yes'/>
    <elf-symbol name='_ZNSt13random_deviceclEv' type='func-type' binding='weak-binding' visibility='default-visibility' is-defined='yes'/>
    <elf-symbol name='_ZNSt13unordered_mapIN8usbguard9IPCServer13AccessControl7SectionEhNS2_11SectionHashESt8equal_toIS3_ESaISt4pairIKS3_hEEE5clearEv' type='func-type' binding='weak-binding' visibility='default-visibility' is-defined='yes'/>
    <elf-symbol name='_ZNSt13unordered_mapIN8usbguard9IPCServer13AccessControl7SectionEhNS2_11SectionHashESt8equal_toIS3_ESaISt4pairIKS3_hEEEC1ERKSB_' type='func-type' binding='weak-binding' visibility='default-visibility' alias='_ZNSt13unordered_mapIN8usbguard9IPCServer13AccessControl7SectionEhNS2_11SectionHashESt8equal_toIS3_ESaISt4pairIKS3_hEEEC2ERKSB_' is-defined='yes'/>
    <elf-symbol name='_ZNSt13unordered_mapIN8usbguard9IPCServer13AccessControl7SectionEhNS2_11SectionHashESt8equal_toIS3_ESaISt4pairIKS3_hEEEC1Ev' type='func-type' binding='weak-binding' visibility='default-visibility' alias='_ZNSt13unordered_mapIN8usbguard9IPCServer13AccessControl7SectionEhNS2_11SectionHashESt8equal_toIS3_ESaISt4pairIKS3_hEEEC2Ev' is-defined='yes'/>
    <elf-symbol name='_ZNSt13unordered_mapIN8usbguard9IPCServer13AccessControl7SectionEhNS2_11SectionHashESt8equal_toIS3_ESaISt4pairIKS3_hEEEC2ERKSB_' type='func-type' binding='weak-binding' visibility='default-visibility' is-defined='yes'/>
    <elf-symbol name='_ZNSt13unordered_mapIN8usbguard9IPCServer13AccessControl7SectionEhNS2_11SectionHashESt8equal_toIS3_ESaISt4pairIKS3_hEEEC2Ev' type='func-type' binding='weak-binding' visibility='default-visibility' is-defined='yes'/>
    <elf-symbol name='_ZNSt13unordered_mapIN8usbguard9IPCServer13AccessControl7SectionEhNS2_11SectionHashESt8equal_toIS3_ESaISt4pairIKS3_hEEED1Ev' type='func-type' binding='weak-binding' visibility='default-visibility' alias='_ZNSt13unordered_mapIN8usbguard9IPCServer13AccessControl7SectionEhNS2_11SectionHashESt8equal_toIS3_ESaISt4pairIKS3_hEEED2Ev' is-defined='yes'/>
    <elf-symbol name='_ZNSt13unordered_mapIN8usbguard9IPCServer13AccessControl7SectionEhNS2_11SectionHashESt8equal_toIS3_ESaISt4pairIKS3_hEEED2Ev' type='func-type' binding='weak-binding' visibility='default-visibility' is-defined='yes'/>
    <elf-symbol name='_ZNSt13unordered_mapIN8usbguard9IPCServer13AccessControl7SectionEhNS2_11SectionHashESt8equal_toIS3_ESaISt4pairIKS3_hEEEaSERKSB_' type='func-type' binding='weak-binding' visibility='default-visibility' is-defined='yes'/>
    <elf-symbol name='_ZNSt13unordered_mapIN8usbguard9IPCServer13AccessControl7SectionEhNS2_11SectionHashESt8equal_toIS3_ESaISt4pairIKS3_hEEEixERS8_' type='func-type' binding='weak-binding' visibility='default-visibility' is-defined='yes'/>
    <elf-symbol name='_ZNSt13unordered_mapINSt7__cxx1112basic_stringIcSt11char_traitsIcESaIcEEEN8usbguard9IPCServer13AccessControlESt4hashIS5_ESt8equal_toIS5_ESaISt4pairIKS5_S8_EEE7emplaceIJRSE_RKS8_EEESD_INSt8__detail14_Node_iteratorISF_Lb0ELb1EEEbEDpOT_' type='func-type' binding='weak-binding' visibility='default-visibility' is-defined='yes'/>
    <elf-symbol name='_ZNSt13unordered_mapINSt7__cxx1112basic_stringIcSt11char_traitsIcESaIcEEEN8usbguard9IPCServer13AccessControlESt4hashIS5_ESt8equal_toIS5_ESaISt4pairIKS5_S8_EEEC1Ev' type='func-type' binding='weak-binding' visibility='default-visibility' is-defined='yes'/>
    <elf-symbol name='_ZNSt13unordered_mapINSt7__cxx1112basic_stringIcSt11char_traitsIcESaIcEEEN8usbguard9IPCServer13AccessControlESt4hashIS5_ESt8equal_toIS5_ESaISt4pairIKS5_S8_EEEC2Ev' type='func-type' binding='weak-binding' visibility='default-visibility' alias='_ZNSt13unordered_mapINSt7__cxx1112basic_stringIcSt11char_traitsIcESaIcEEEN8usbguard9IPCServer13AccessControlESt4hashIS5_ESt8equal_toIS5_ESaISt4pairIKS5_S8_EEEC1Ev' is-defined='yes'/>
    <elf-symbol name='_ZNSt13unordered_mapINSt7__cxx1112basic_stringIcSt11char_traitsIcESaIcEEEN8usbguard9IPCServer13AccessControlESt4hashIS5_ESt8equal_toIS5_ESaISt4pairIKS5_S8_EEED1Ev' type='func-type' binding='weak-binding' visibility='default-visibility' alias='_ZNSt13unordered_mapINSt7__cxx1112basic_stringIcSt11char_traitsIcESaIcEEEN8usbguard9IPCServer13AccessControlESt4hashIS5_ESt8equal_toIS5_ESaISt4pairIKS5_S8_EEED2Ev' is-defined='yes'/>
    <elf-symbol name='_ZNSt13unordered_mapINSt7__cxx1112basic_stringIcSt11char_traitsIcESaIcEEEN8usbguard9IPCServer13AccessControlESt4hashIS5_ESt8equal_toIS5_ESaISt4pairIKS5_S8_EEED2Ev' type='func-type' binding='weak-binding' visibility='default-visibility' is-defined='yes'/>
    <elf-symbol name='_ZNSt13unordered_mapINSt7__cxx1112basic_stringIcSt11char_traitsIcESaIcEEES5_St4hashIS5_ESt8equal_toIS5_ESaISt4pairIKS5_S5_EEE7emplaceIJRSB_SG_EEESA_INSt8__detail14_Node_iteratorISC_Lb0ELb1EEEbEDpOT_' type='func-type' binding='weak-binding' visibility='default-visibility' is-defined='yes'/>
    <elf-symbol name='_ZNSt13unordered_mapINSt7__cxx1112basic_stringIcSt11char_traitsIcESaIcEEES5_St4hashIS5_ESt8equal_toIS5_ESaISt4pairIKS5_S5_EEEC1EOSE_' type='func-type' binding='weak-binding' visibility='default-visibility' alias='_ZNSt13unordered_mapINSt7__cxx1112basic_stringIcSt11char_traitsIcESaIcEEES5_St4hashIS5_ESt8equal_toIS5_ESaISt4pairIKS5_S5_EEEC2EOSE_' is-defined='yes'/>
    <elf-symbol name='_ZNSt13unordered_mapINSt7__cxx1112basic_stringIcSt11char_traitsIcESaIcEEES5_St4hashIS5_ESt8equal_toIS5_ESaISt4pairIKS5_S5_EEEC1Ev' type='func-type' binding='weak-binding' visibility='default-visibility' alias='_ZNSt13unordered_mapINSt7__cxx1112basic_stringIcSt11char_traitsIcESaIcEEES5_St4hashIS5_ESt8equal_toIS5_ESaISt4pairIKS5_S5_EEEC2Ev' is-defined='yes'/>
    <elf-symbol name='_ZNSt13unordered_mapINSt7__cxx1112basic_stringIcSt11char_traitsIcESaIcEEES5_St4hashIS5_ESt8equal_toIS5_ESaISt4pairIKS5_S5_EEEC2EOSE_' type='func-type' binding='weak-binding' visibility='default-visibility' is-defined='yes'/>
    <elf-symbol name='_ZNSt13unordered_mapINSt7__cxx1112basic_stringIcSt11char_traitsIcESaIcEEES5_St4hashIS5_ESt8equal_toIS5_ESaISt4pairIKS5_S5_EEEC2Ev' type='func-type' binding='weak-binding' visibility='default-visibility' is-defined='yes'/>
    <elf-symbol name='_ZNSt13unordered_mapINSt7__cxx1112basic_stringIcSt11char_traitsIcESaIcEEES5_St4hashIS5_ESt8equal_toIS5_ESaISt4pairIKS5_S5_EEED1Ev' type='func-type' binding='weak-binding' visibility='default-visibility' alias='_ZNSt13unordered_mapINSt7__cxx1112basic_stringIcSt11char_traitsIcESaIcEEES5_St4hashIS5_ESt8equal_toIS5_ESaISt4pairIKS5_S5_EEED2Ev' is-defined='yes'/>
    <elf-symbol name='_ZNSt13unordered_mapINSt7__cxx1112basic_stringIcSt11char_traitsIcESaIcEEES5_St4hashIS5_ESt8equal_toIS5_ESaISt4pairIKS5_S5_EEED2Ev' type='func-type' binding='weak-binding' visibility='default-visibility' is-defined='yes'/>
    <elf-symbol name='_ZNSt13unordered_mapIhSt6vectorIN8usbguard13USBDescriptorESaIS2_EESt4hashIhESt8equal_toIhESaISt4pairIKhS4_EEE5eraseERSA_' type='func-type' binding='weak-binding' visibility='default-visibility' is-defined='yes'/>
    <elf-symbol name='_ZNSt13unordered_mapIhSt6vectorIN8usbguard13USBDescriptorESaIS2_EESt4hashIhESt8equal_toIhESaISt4pairIKhS4_EEEC1Ev' type='func-type' binding='weak-binding' visibility='default-visibility' alias='_ZNSt13unordered_mapIhSt6vectorIN8usbguard13USBDescriptorESaIS2_EESt4hashIhESt8equal_toIhESaISt4pairIKhS4_EEEC2Ev' is-defined='yes'/>
    <elf-symbol name='_ZNSt13unordered_mapIhSt6vectorIN8usbguard13USBDescriptorESaIS2_EESt4hashIhESt8equal_toIhESaISt4pairIKhS4_EEEC2Ev' type='func-type' binding='weak-binding' visibility='default-visibility' is-defined='yes'/>
    <elf-symbol name='_ZNSt13unordered_mapIhSt6vectorIN8usbguard13USBDescriptorESaIS2_EESt4hashIhESt8equal_toIhESaISt4pairIKhS4_EEED1Ev' type='func-type' binding='weak-binding' visibility='default-visibility' alias='_ZNSt13unordered_mapIhSt6vectorIN8usbguard13USBDescriptorESaIS2_EESt4hashIhESt8equal_toIhESaISt4pairIKhS4_EEED2Ev' is-defined='yes'/>
    <elf-symbol name='_ZNSt13unordered_mapIhSt6vectorIN8usbguard13USBDescriptorESaIS2_EESt4hashIhESt8equal_toIhESaISt4pairIKhS4_EEED2Ev' type='func-type' binding='weak-binding' visibility='default-visibility' is-defined='yes'/>
    <elf-symbol name='_ZNSt13unordered_mapIhSt6vectorIN8usbguard13USBDescriptorESaIS2_EESt4hashIhESt8equal_toIhESaISt4pairIKhS4_EEEixERSA_' type='func-type' binding='weak-binding' visibility='default-visibility' is-defined='yes'/>
    <elf-symbol name='_ZNSt13unordered_mapIhmSt4hashIhESt8equal_toIhESaISt4pairIKhmEEEC1Ev' type='func-type' binding='weak-binding' visibility='default-visibility' alias='_ZNSt13unordered_mapIhmSt4hashIhESt8equal_toIhESaISt4pairIKhmEEEC2Ev' is-defined='yes'/>
    <elf-symbol name='_ZNSt13unordered_mapIhmSt4hashIhESt8equal_toIhESaISt4pairIKhmEEEC2Ev' type='func-type' binding='weak-binding' visibility='default-visibility' is-defined='yes'/>
    <elf-symbol name='_ZNSt13unordered_mapIhmSt4hashIhESt8equal_toIhESaISt4pairIKhmEEED1Ev' type='func-type' binding='weak-binding' visibility='default-visibility' alias='_ZNSt13unordered_mapIhmSt4hashIhESt8equal_toIhESaISt4pairIKhmEEED2Ev' is-defined='yes'/>
    <elf-symbol name='_ZNSt13unordered_mapIhmSt4hashIhESt8equal_toIhESaISt4pairIKhmEEED2Ev' type='func-type' binding='weak-binding' visibility='default-visibility' is-defined='yes'/>
    <elf-symbol name='_ZNSt13unordered_mapIhmSt4hashIhESt8equal_toIhESaISt4pairIKhmEEEixERS5_' type='func-type' binding='weak-binding' visibility='default-visibility' is-defined='yes'/>
    <elf-symbol name='_ZNSt13unordered_mapIjN8usbguard9IPCServer13AccessControlESt4hashIjESt8equal_toIjESaISt4pairIKjS2_EEE7emplaceIJRjRKS2_EEES7_INSt8__detail14_Node_iteratorIS9_Lb0ELb0EEEbEDpOT_' type='func-type' binding='weak-binding' visibility='default-visibility' is-defined='yes'/>
    <elf-symbol name='_ZNSt13unordered_mapIjN8usbguard9IPCServer13AccessControlESt4hashIjESt8equal_toIjESaISt4pairIKjS2_EEEC1Ev' type='func-type' binding='weak-binding' visibility='default-visibility' alias='_ZNSt13unordered_mapIjN8usbguard9IPCServer13AccessControlESt4hashIjESt8equal_toIjESaISt4pairIKjS2_EEEC2Ev' is-defined='yes'/>
    <elf-symbol name='_ZNSt13unordered_mapIjN8usbguard9IPCServer13AccessControlESt4hashIjESt8equal_toIjESaISt4pairIKjS2_EEEC2Ev' type='func-type' binding='weak-binding' visibility='default-visibility' is-defined='yes'/>
    <elf-symbol name='_ZNSt13unordered_mapIjN8usbguard9IPCServer13AccessControlESt4hashIjESt8equal_toIjESaISt4pairIKjS2_EEED1Ev' type='func-type' binding='weak-binding' visibility='default-visibility' alias='_ZNSt13unordered_mapIjN8usbguard9IPCServer13AccessControlESt4hashIjESt8equal_toIjESaISt4pairIKjS2_EEED2Ev' is-defined='yes'/>
    <elf-symbol name='_ZNSt13unordered_mapIjN8usbguard9IPCServer13AccessControlESt4hashIjESt8equal_toIjESaISt4pairIKjS2_EEED2Ev' type='func-type' binding='weak-binding' visibility='default-visibility' is-defined='yes'/>
    <elf-symbol name='_ZNSt14_Function_base13_Base_managerINSt13__future_base13_State_baseV27_SetterISt10unique_ptrIN6google8protobuf7MessageESt14default_deleteIS7_EEOSA_EEE10_M_destroyERSt9_Any_dataSt17integral_constantIbLb1EE' type='func-type' binding='weak-binding' visibility='default-visibility' is-defined='yes'/>
    <elf-symbol name='_ZNSt14_Function_base13_Base_managerINSt13__future_base13_State_baseV27_SetterISt10unique_ptrIN6google8protobuf7MessageESt14default_deleteIS7_EEOSA_EEE10_M_managerERSt9_Any_dataRKSE_St18_Manager_operation' type='func-type' binding='weak-binding' visibility='default-visibility' is-defined='yes'/>
    <elf-symbol name='_ZNSt14_Function_base13_Base_managerINSt13__future_base13_State_baseV27_SetterISt10unique_ptrIN6google8protobuf7MessageESt14default_deleteIS7_EEOSA_EEE14_M_get_pointerERKSt9_Any_data' type='func-type' binding='weak-binding' visibility='default-visibility' is-defined='yes'/>
    <elf-symbol name='_ZNSt14_Function_base13_Base_managerINSt13__future_base13_State_baseV27_SetterISt10unique_ptrIN6google8protobuf7MessageESt14default_deleteIS7_EEOSA_EEE15_M_init_functorIRKSC_EEvRSt9_Any_dataOT_' type='func-type' binding='weak-binding' visibility='default-visibility' is-defined='yes'/>
    <elf-symbol name='_ZNSt14_Function_base13_Base_managerINSt13__future_base13_State_baseV27_SetterISt10unique_ptrIN6google8protobuf7MessageESt14default_deleteIS7_EEOSA_EEE15_M_init_functorISC_EEvRSt9_Any_dataOT_' type='func-type' binding='weak-binding' visibility='default-visibility' is-defined='yes'/>
    <elf-symbol name='_ZNSt14_Function_base13_Base_managerINSt13__future_base13_State_baseV27_SetterISt10unique_ptrIN6google8protobuf7MessageESt14default_deleteIS7_EEOSA_EEE21_M_not_empty_functionISC_EEbRKT_' type='func-type' binding='weak-binding' visibility='default-visibility' is-defined='yes'/>
    <elf-symbol name='_ZNSt14_Function_base13_Base_managerINSt13__future_base13_State_baseV27_SetterISt10unique_ptrIN6google8protobuf7MessageESt14default_deleteIS7_EEOSA_EEE9_M_createIRKSC_EEvRSt9_Any_dataOT_St17integral_constantIbLb1EE' type='func-type' binding='weak-binding' visibility='default-visibility' is-defined='yes'/>
    <elf-symbol name='_ZNSt14_Function_base13_Base_managerINSt13__future_base13_State_baseV27_SetterISt10unique_ptrIN6google8protobuf7MessageESt14default_deleteIS7_EEOSA_EEE9_M_createISC_EEvRSt9_Any_dataOT_St17integral_constantIbLb1EE' type='func-type' binding='weak-binding' visibility='default-visibility' is-defined='yes'/>
    <elf-symbol name='_ZNSt14_Function_base13_Base_managerIPFNSt7__cxx1112basic_stringIcSt11char_traitsIcESaIcEEERKS6_PK6direntEE10_M_destroyERSt9_Any_dataSt17integral_constantIbLb1EE' type='func-type' binding='weak-binding' visibility='default-visibility' is-defined='yes'/>
